ccopy_reg
_reconstructor
p0
(cgensim.corpora.dictionary
Dictionary
p1
c__builtin__
object
p2
Ntp3
Rp4
(dp5
S'num_docs'
p6
I19972
sS'token2id'
p7
(dp8
VSoap & Lotion Dispensers|Bathroom Accessories
p9
I1256
sVUniversal Fittings|Drip Irrigation Fittings
p10
I1651
sVWood Blinds|Blinds & Window Treatments
p11
I1216
sVNatural Gas Grills|Gas Grills
p12
I1733
sVLong Tapes|Measuring Tools
p13
I1334
sVDownspout Extensions|Gutters & Accessories
p14
I492
sVMortar, Cement & Concrete Mix|Concrete, Cement & Masonry
p15
I383
sVFruit & Vegetable Fertilizer|Plant Food & Fertilizer
p16
I18
sVTrack Heads & Pendants|Track Lighting
p17
I1138
sVDisinfectants & Sanitizers|Cleaners
p18
I853
sVScreen Door Accessories|Screen & Storm Door Hardware
p19
I48
sVNuts|Fittings
p20
I234
sVSheet|Metal Sheets & Rods
p21
I291
sVHitch Assembly Kits|Hitches & Accessories
p22
I976
sVTomato Cages & Plant Support|Landscaping
p23
I64
sVAsphalt & Concrete Accessories|Concrete, Cement & Masonry
p24
I488
sVJobsite Storage|Tool Storage
p25
I1336
sVDoor Frame Reinforcers|Door Security
p26
I1055
sVGlides & Guides|Furniture Accessories
p27
I576
sVRollers|Riding Mower & Tractor Attachments
p28
I1871
sVLight Kits|Ceiling Fan Accessories
p29
I1199
sVHedge Shears|Shears & Pruning Tools
p30
I102
sVBackflow & Vacuum Breakers|Valves
p31
I750
sVComfort Mats|Mats
p32
I837
sVChristmas Ornaments|Holiday Decorations
p33
I1098
sVImpact Wrenches|Power Tools
p34
I1723
sVCurtain Rings & Clips|Drapery Hardware
p35
I1539
sVBumpers|Furniture Accessories
p36
I248
sVBlack Lights|Decorative Light Bulbs
p37
I1130
sVRod Coupling Nuts|Nuts
p38
I1067
sVHose Connectors & Fittings|Watering & Irrigation
p39
I394
sVJacks|Automotive Shop Equipment
p40
I954
sVCommercial Stencils|Signs, Letters & Numbers
p41
I1569
sVDeck Screws|Decking Hardware
p42
I124
sVConical Anchors|Anchors
p43
I1680
sVPush-In Anchors|Anchors
p44
I1342
sVShrub Rakes|Garden Rakes
p45
I521
sVChild Safety Accessories|Child Safety
p46
I1120
sVParts & Accessories|Space Heaters
p47
I1165
sVFlag Drippers|Drip Irrigation Emitters
p48
I1612
sVChisel Sets|Hand Tool Sets
p49
I217
sVMini Refrigerators|Appliances\u000a
p50
I559
sVAV Adapters|AV Cables & Connectors
p51
I524
sVBasins|Pedestal Sinks
p52
I1418
sVSliding Door Locks|Door Locks & Deadbolts
p53
I1057
sVDrywall Joint Compound|Drywall
p54
I751
sVSanded Plywood|Plywood
p55
I91
sVWindow Fans|Portable Fans
p56
I1330
sVRatchets|Ratchets & Sockets
p57
I162
sVIndoor & Outdoor Insect Control|Insect & Pest Control
p58
I144
sVWooden Letters & Numbers|Wall Decor
p59
I1289
sVSquare Nuts|Nuts
p60
I1759
sVWall Base|Vinyl Flooring & Resilient Flooring
p61
I1141
sVAir Tool Accessory Kits|Air Compressor Parts & Accessories
p62
I620
sVScrewdriver Sets|Hand Tool Sets
p63
I49
sVPlant & Flower Disease Control|Plant Disease Control
p64
I901
sVPool Clarifiers|Pool Chemicals
p65
I1579
sVTile Cleaners|Tile Care & Maintenance
p66
I548
sVStep Stools|Ladders
p67
I266
sVOutdoor Heating|Heaters
p68
I1341
sVVinyl Fence Panels|Vinyl Fencing
p69
I1718
sVForstner Bits|Drill Bits
p70
I692
sVOutdoor Electrical Wire|Wire
p71
I1041
sVPaint Sprayers|Paint Sprayers
p72
I683
sVSpecialty Hammers|Hammers
p73
I351
sVGloves|Cleaning Tools & Supplies
p74
I381
sVMouse & Rat Traps & Cages|Mouse & Rat Control
p75
I153
sVComposite Fasteners|Specialty Fasteners
p76
I186
sVGarden Forks|Gardening Tools
p77
I303
sVRug Padding & Grippers|Area Rugs & Mats
p78
I850
sVTubular Skylights|Skylights
p79
I1033
sVMantel Kits|Fireplace Mantels
p80
I1845
sVChannel Raceways|Cord Covers
p81
I453
sVDead-Blow Hammers|Hammers
p82
I746
sVChain Link Fence Fabric|Chain Link Fencing
p83
I1541
sVHousing Assemblies|Tub and Shower Parts & Repair
p84
I143
sVWindow Security Accessories|Window Hardware
p85
I1570
sVTarps, Drop Cloths & Plastic Sheeting|Paint\u000a
p86
I62
sVGas Cooktops|Cooktops
p87
I512
sVBottom Rollaway Chests|Tool Chests
p88
I1153
sVPantry Organizers|Kitchen Storage & Organization
p89
I1709
sVOriented Strand Board - OSB|Plywood
p90
I200
sVPlanters|Pots & Planters
p91
I614
sVMaintenance Fluids|Vehicle Maintenance
p92
I740
sVFirewood Racks|Fireplace & Hearth
p93
I1011
sVWelding Wire|Welding
p94
I176
sVAccessories|Electrical Boxes, Conduit & Fittings
p95
I0
sVLamp Shades|Lamps & Shades
p96
I1498
sVOther Accessories|Plumbing Tools
p97
I1164
sVLandscape Rocks|Landscaping
p98
I312
sVWrench Sets|Wrenches
p99
I528
sVPipe Cement, Primer & Cleaner|Plumbing Accessories
p100
I533
sVLifting Equipment|Material Handling Equipment
p101
I1790
sVSwings|Hammocks & Swings
p102
I1692
sVToasters, Toaster Ovens & Countertop Ovens|Small Appliances
p103
I1549
sVGrow Light Bulbs|Specialty Light Bulbs
p104
I497
sVHousings|Recessed Lighting
p105
I1095
sVFlush Valves|Toilet Parts & Repair
p106
I16
sVMasonry & Percussion|Drill Bits
p107
I151
sVCarpet Blades & Knives|Carpet Tools & Accessories
p108
I823
sVSiding Nailers|Nail Guns & Collated Tools
p109
I1819
sVSprinkler Valves|Valves
p110
I59
sVWater Softening Salts|Water Softeners
p111
I72
sVPressure Washers|Pressure Washers
p112
I432
sVThermostats & Controls|Under Floor Heating
p113
I1473
sVHeadphones|Home Electronics
p114
I1753
sVCarpet Trimmers|Carpet Tools & Accessories
p115
I1624
sVAir Compressor Lubricants & Cleaners|Air Compressor Parts & Accessories
p116
I1345
sVBiscuits|Woodworking Tool Accessories
p117
I1388
sVUrns|Pots & Planters
p118
I992
sVCaps & Tips|Furniture Accessories
p119
I507
sVAccessories|Generator Accessories
p120
I1748
sVAluminum Mini Blinds|Mini Blinds
p121
I1097
sVProgrammable Thermostats|Thermostats
p122
I755
sVRain Gear|Workwear & Apparel
p123
I1576
sVAir Gaps & Cam Kits|Faucet Parts & Repair
p124
I550
sVUPS Battery Back-Up|Extension Cords & Surge Protectors
p125
I1319
sVCarpenter Ant Control|Wood Destroying Insect Control
p126
I1167
sV1 Pole|Circuit Breakers
p127
I713
sVGardening Gloves|Gardening Tools
p128
I20
sVFuses|Power Distribution
p129
I438
sVTrash Compactors|Dishwashers
p130
I1565
sVOutdoor Carpet|Carpet & Carpet Tile
p131
I1320
sVChristmas Tree Skirts|Indoor Christmas Decorations
p132
I678
sVPaint Edgers|Paint Brushes
p133
I345
sVConcrete Sealers & Repair|Concrete, Cement & Masonry
p134
I413
sVDrawer Organizers|Kitchen Storage & Organization
p135
I1708
sVPlier Sets|Pliers
p136
I707
sVOils, Lubricants & Additives|Replacement Engines & Parts
p137
I317
sVRoman Tub Faucets|Tub & Shower Faucets
p138
I1384
sVWood Decking Posts|Decking
p139
I1504
sVTest Kit & Solutions|Pool Chemicals
p140
I1866
sVGas Wall Heaters|Wall Heaters
p141
I1499
sVFence Gate Latches & Slide Bolts|Fencing Parts & Accessories
p142
I136
sVGopher Bait|Gopher Control
p143
I1276
sVGloves|Cleaning Tools
p144
I1251
sVRetaining Kits|Load Centers
p145
I1783
sVSofas & Loveseats|Patio Furniture
p146
I1362
sVStraight Grinders|Grinders
p147
I1491
sVUndermount Sinks|Bathroom Sinks
p148
I1206
sVCeramic Heaters|Electric Heaters
p149
I89
sVVessel Sink Faucets|Sink Faucets
p150
I1160
sVAir Grinders|Air Tools
p151
I1812
sVGranite Tile|Natural Stone Tile
p152
I1447
sVTrack Lighting Kits|Track Lighting
p153
I959
sVFan Blades & Arms|Ceiling Fan Accessories
p154
I253
sVHandles, Levers & Controls|Faucet Parts & Repair
p155
I101
sVSlip Joint Pliers|Pliers
p156
I565
sVSafety Vests|Safety Gear
p157
I1208
sVAudio Cables|AV Cables & Connectors
p158
I1769
sVFrames & Parts|Screens, Tools & Accessories
p159
I739
sVWindow Air Conditioners|Air Conditioners
p160
I669
sVInstallation Tools|Vinyl Floor Maintenance & Tools
p161
I927
sVLandscape Lighting|Landscape & Deck Lighting
p162
I478
sVRoller Shades|Blinds & Window Treatments
p163
I1479
sVSpray Bottles|Cleaning Tools
p164
I567
sVCandles|Candles & Candleholders
p165
I1516
sVUniversal Remote Controls|AV Accessories
p166
I1147
sVSoap Holders|Bathroom Accessories
p167
I1200
sVChildren's Toilet Seats|Toilet & Bidet Seats
p168
I1337
sVAccessories|Trash & Recycling
p169
I1630
sVGarden Art & Statues|Outdoor Decor
p170
I1507
sVPocket Door Hardware|Closet & Pocket Door Hardware
p171
I1099
sVAugers|Drain Openers
p172
I406
sVBrushes|Cleaning Tools & Supplies
p173
I410
sVStack Ducts|In-Wall Duct System
p174
I1296
sVBrushes & Accessories|Pool Cleaning Tools
p175
I1726
sVTroffers|Commercial Lighting
p176
I788
sVPaint Brushes|Paint Brushes
p177
I37
sVWet/Dry Vacuums|Vacuum Cleaners & Floor Care
p178
I213
sVSliding Door Hardware|Closet & Pocket Door Hardware
p179
I1522
sVIce Melt & Traction Control|Snow Equipment
p180
I423
sVElectric Snow Blowers|Snow Blowers
p181
I1611
sVSprayers|Kitchen Faucets
p182
I58
sVTrash & Refuse Bags|Trash & Recycling
p183
I174
sVLaminate Tile & Stone Flooring|Laminate Flooring
p184
I1597
sVSpeaker Wire|Wire
p185
I1106
sVLouvered|Exterior Shutters
p186
I1451
sVPoint Of Use|Water Heaters
p187
I956
sVBeverage Centers|Wine, Beverage & Keg Coolers
p188
I1359
sVKnee Pads|Safety Gear
p189
I310
sVRecycling Bins|Trash & Recycling
p190
I519
sVWall Hung & Wall Mounted Sinks|Bathroom Sinks
p191
I1779
sVConduit Fittings|Electrical Boxes, Conduit & Fittings
p192
I7
sVSemi-Flushmount Lights|Recessed & Flushmount Lighting
p193
I83
sVClip & Suction Lights|Accent & Decorative Lighting
p194
I1526
sVDehumidifiers|Air Quality
p195
I1394
sVElbows|Transitions & Connectors
p196
I473
sVSubmersible Utility Pumps|Utility Pumps
p197
I93
sVTrack Lighting Accessories|Indoor Lighting Parts & Accessories
p198
I1139
sVAutomotive Cleaners|Cleaners
p199
I820
sVCoveralls|Workwear & Apparel
p200
I882
sVComfort Height Toilets|Bath
p201
I1205
sVHanger Bolts & Dowel Screws|Screws
p202
I1207
sVVanities without Tops|Bathroom Vanities
p203
I1089
sVPolyurethanes, Shellacs & Lacquers|Interior Paint & Stain
p204
I526
sVPedestals|Pedestal Sinks
p205
I1546
sVDrop Ceiling Tiles|Ceiling Tiles
p206
I189
sVBlind Parts|Blinds & Window Treatments
p207
I76
sVGrates|Grill Replacement Parts
p208
I258
sVMulti-Tools|Hand Tools
p209
I1436
sVU-Bolts|Bolts
p210
I1045
sVAll-Purpose & Degreasers|Cleaners
p211
I981
sVHearing Protection|Safety Gear
p212
I630
sVHitch Balls|Hitches & Accessories
p213
I1234
sVLockout Kits|Circuit Breakers
p214
I1800
sVHID Light Bulbs|Light Bulbs
p215
I1426
sVWood Molding & Trim|Wood Flooring
p216
I640
sVDehumidifier|Heating, Cooling & Air Quality
p217
I1591
sVShrub & Tree Fertilizer|Plant Food & Fertilizer
p218
I225
sVPatching & Repair|Sandpaper, Patching & Repairs
p219
I40
sVArtificial Grass|Park Furnishing
p220
I1402
sVBlow-in Insulation|Insulation
p221
I1114
sVOffice Storage & Organization|Storage & Organization\u000a
p222
I1875
sVWelding Machines|Welding
p223
I1745
sVAwning Accessories|Awnings
p224
I1647
sVChairs & Stools|Patio Furniture
p225
I585
sVPorcelain Floor & Wall Tile|Porcelain Tile
p226
I579
sVTower Fans|Portable Fans
p227
I1145
sVHalogen Light Bulbs|Light Bulbs
p228
I23
sVFencing|Livestock Supplies
p229
I1801
sVSqueegees|Cleaning Tools & Supplies
p230
I450
sVCollated Framing Nails|Collated Nails, Screws & Staples
p231
I893
sVFlagging Tape|Marking & Layout tools
p232
I530
sVMoving Boxes & Shipping Supplies|Storage & Organization\u000a
p233
I261
sVAnt Control|Indoor Insect Control
p234
I486
sVDrains|Fittings
p235
I1250
sVPool Pumps|Pools
p236
I1667
sVVinyl Fence Posts|Vinyl Fencing
p237
I1481
sVLog Splitters|Outdoor Power Equipment
p238
I1274
sVHose & Sprinkler Accessories|Watering & Irrigation
p239
I309
sVFireplace Grates|Fireplace & Hearth
p240
I1271
sVResidential Swing Sets|Residential Playsets & Swing Sets
p241
I1834
sVPulsating Sprinklers|Lawn Sprinklers
p242
I657
sVGarage Door Accessories|Garage Doors, Openers & Accessories
p243
I1132
sVAir Impact Wrenches|Air Tools
p244
I1477
sVFender Washers|Washer Fasteners
p245
I674
sVDoors With Glass|Wood Doors
p246
I1550
sVDryer|Washers & Dryers
p247
I510
sVLeaf Rakes|Garden Rakes
p248
I314
sVBug Light Bulbs|Specialty Light Bulbs
p249
I591
sVKits|Sinks
p250
I1442
sVFlushmount Lights|Recessed & Flushmount Lighting
p251
I77
sVWaterfall Pumps|Water Garden Pumps
p252
I1444
sVWelding Stick Electrodes|Welding
p253
I571
sVImpact Drivers|Power Tools
p254
I1368
sVPool Bromine|Pool Chemicals
p255
I1583
sVFence Gate Cane Bolts|Fencing Parts & Accessories
p256
I494
sVCouplings & Adaptors|Fittings
p257
I96
sVNail Stops & Nail Plates|Builders Hardware
p258
I1299
sVTrash Can Liners|Trash & Recycling
p259
I1756
sVHeat Guns|Power Tools
p260
I1161
sVTape Measures|Measuring Tools
p261
I356
sVNut Drivers|Screwdrivers & Nut Drivers
p262
I1405
sVWyes|Transitions & Connectors
p263
I1373
sVSpecialty Saw Blades|Saw Blades
p264
I1300
sVDrip Irrigation Landscape Starter Kits|Drip Irrigation Kits
p265
I1689
sVCubbies & Cube Storage|Storage & Organization\u000a
p266
I544
sVPipe|Cast Iron Pipe & Fittings
p267
I1844
sVCountertop Microwaves|Microwaves
p268
I122
sVWire, Punch & Tap Tools|Electrical Tools
p269
I995
sVUtility Sink Faucets|Plumbing\u000a
p270
I1022
sVAttic Ladders|Ladders
p271
I1231
sVDrip Irrigation Tubing|Drip Irrigation
p272
I943
sVYard Structure Accessories|Yard Structures & Shade
p273
I1842
sVBath Tub Walls & Surrounds|Bathtubs & Whirlpools
p274
I802
sVFinishing Nails|Nails
p275
I675
sVFence Gate Hardware Kits|Fencing Parts & Accessories
p276
I511
sVRocker Switch Plates|Switch Plates
p277
I82
sVRigid Insulation|Insulation
p278
I781
sVCellular Shades|Blinds & Window Treatments
p279
I736
sVDoor Bottoms|Weather Stripping
p280
I1273
sVBolts & Mounting Hardware|Toilet Parts & Repair
p281
I116
sVShop Towels|Rags & Wipes
p282
I696
sVLevel Accessories|Levels
p283
I1870
sVScreen & Storm Door Latches|Screen & Storm Door Hardware
p284
I1412
sVSpecialty Hand Tools|Hand Tools
p285
I1049
sVRope Lights|Accent & Decorative Lighting
p286
I1190
sVGrommets|Clamps, Vices & Fastening Tools
p287
I999
sVLamp Holders & Parts|Fluorescent Lighting Accessories
p288
I531
sVCarpet Pad|Carpet & Carpet Tile
p289
I863
sVSewing Machines, Irons & Steamers|Small Appliances
p290
I1343
sVDrill Attachments|Power Tool Accessories
p291
I10
sVOutdoor Cleaners|Cleaners
p292
I428
sVBar Digger|Digging Tools
p293
I1298
sVChaise Lounge Cushions|Outdoor Cushions & Pillows
p294
I1873
sVUpright Carpet Cleaners|Carpet Cleaners
p295
I1622
sVPower Tool Combo Kits|Power Tools
p296
I348
sVElectric Cooktops|Cooktops
p297
I1684
sVPalm Nailers|Nail Guns & Collated Tools
p298
I1743
sVPoinsettias & Christmas Flowers|Indoor Christmas Decorations
p299
I977
sVAssorted Packs|Furniture Accessories
p300
I505
sVStud Finders|Hand Tools
p301
I390
sVElbows|Fittings
p302
I98
sVThermostat Accessories|Thermostats
p303
I1152
sVWind Turbine|Gable Vents & Static Ventilation
p304
I1548
sVGrill Lights|Accessories
p305
I1123
sVPicture & Mirror Hanging|Fasteners
p306
I203
sVCup Hooks|Metal Hooks & Eyes
p307
I282
sVBookcases|Free Standing & Bookcases
p308
I1757
sVPump Control Boxes & Cable Protectors|Pump Accessories
p309
I1778
sVPulls & Pull Chains|Ceiling Fan Accessories
p310
I265
sVNon-Electrostatic Filters|Air Filters
p311
I618
sVDoor Kick Plates|Door Accessories
p312
I868
sVRadiant Barrier|Insulation
p313
I1180
sVPlugs & Connectors|Dimmers, Switches & Outlets
p314
I445
sVWell Points, Couplings & Drive Caps|Pump Accessories
p315
I1703
sVWater Plants|Garden Plants & Flowers
p316
I1690
sVMetal Ducts|Ducting & Venting
p317
I480
sVChain & Rope Accessories|Chain & Rope
p318
I184
sVDog Kennels|Dog Carriers, Houses & Kennels
p319
I1724
sVMisc. Tools & Brushes|Cleaning Tools
p320
I773
sVWeatherproof Boxes|Electrical Boxes, Conduit & Fittings
p321
I536
sVPendant Lights|Chandeliers & Pendants
p322
I741
sVWindow Wells & Accessories|Windows
p323
I1771
sVDoor Closers|Door Accessories
p324
I574
sVBlades & Sharpeners|Replacement Engines & Parts
p325
I88
sVCombination Wall Plates|Wall Plates
p326
I412
sVSpecialty Bolts|Bolts
p327
I1404
sVMusic|Home & Entertainment
p328
I1860
sVSingle Shower Walls|Showers
p329
I1580
sVHumidifiers|Air Quality
p330
I970
sVPressure Regulators|Valves
p331
I42
sVAir Hoses|Air Compressor Parts & Accessories
p332
I722
sVRemote & Wall Controls|Ceiling Fan Accessories
p333
I834
sVStandard Level|Levels
p334
I324
sVStaple Guns|Staplers & Staples
p335
I807
sVSpecialty Cleaners|Cleaners
p336
I449
sVPrimers|Vinyl Floor Maintenance & Tools
p337
I1042
sVWelded Wire Fence|Fencing
p338
I623
sVDouble Hung Windows|Windows
p339
I1485
sVStorm Doors|Doors
p340
I937
sVDummy Door Knobs|Door Knobs
p341
I1035
sVToothbrush & Tumbler Holders|Bathroom Accessories
p342
I1471
sVFurniture Paint, Faux Finishes & Craft Paint|Paint\u000a
p343
I99
sVScreens|Traps & Drains
p344
I371
sVHandheld Vacuums|Vacuums
p345
I991
sVConcrete Mixers|Concrete, Cement & Masonry
p346
I1798
sVCabinet & Countertop Paint|Interior Paint & Stain
p347
I1463
sVCell Phone & Tablet Accessories|Home Electronics
p348
I1146
sVHome Storage Hooks|Storage & Organization\u000a
p349
I476
sVChlorine Free Chemicals|Pool Chemicals
p350
I1197
sVConversion Kits|Grill Replacement Parts
p351
I1410
sVComposite Decking Posts|Decking
p352
I1719
sVMeter Sockets|Metering & Temporary Power
p353
I1582
sVCeiling Light Panels & Louvers|Ceilings
p354
I824
sVBarbed Wire Fencing|Fencing
p355
I1629
sVRisers & Treads|Interior Stair Parts
p356
I785
sVWashing Machine Valves|Valves
p357
I1830
sVWhirlpool Tubs|Bathtubs & Whirlpools
p358
I994
sVWhole-House Surge Protectors|Power Distribution
p359
I1793
sVMiscellaneous Planter Accessories|Planter Accessories
p360
I873
sVRivets|Rivet Tools & Rivets
p361
I964
sVBall Mounts & Draw Bars|Hitches & Accessories
p362
I975
sVFlooring Knee Pads|Carpet Tools & Accessories
p363
I1163
sVWater Heater Parts|Water Heaters
p364
I484
sVCompasses|Marking & Layout tools
p365
I1646
sVTile Tool Accessories|Tile Tools & Accessories
p366
I278
sVAdapters & Extenders|Ratchets & Sockets
p367
I1313
sVTub & Shower Faucet Combos|Tub & Shower Faucets
p368
I598
sVMiter Saws|Saws
p369
I199
sVMetal Fence Gates|Metal Fencing
p370
I1390
sVPower Inverters|Generators
p371
I1445
sVSecurity Bars|Windows
p372
I1512
sVBird Feeders|Bird Supplies
p373
I180
sVTwist Drill Bits|Drill Bits
p374
I246
sVStarting Collars|In-Wall Duct System
p375
I663
sVConnecting Furniture|Specialty Fasteners
p376
I573
sVPipe|Polyethylene Pipe & Fittings
p377
I621
sVPatching & Repair|Tools & Maintenance
p378
I346
sVMarble Tile|Natural Stone Tile
p379
I855
sVLag Shields|Anchors
p380
I148
sVSelf-Drilling Screws|Screws
p381
I350
sVParts & Accessories|Fluorescent Lighting Accessories
p382
I429
sVFilter Systems|Pool Equipment
p383
I1486
sVStop Valves|Valves
p384
I354
sVMasonry & Concrete Anchors|Anchors
p385
I33
sVBarrels|Pots & Planters
p386
I968
sVUntreated|Timber
p387
I1503
sVSingle Handle Faucets|Kitchen Faucets
p388
I766
sVAppliance Cords|Extension Cords
p389
I1156
sVPush Nuts|Nuts
p390
I1465
sVMagnifying Mirrors|Bathroom Mirrors
p391
I1560
sVEnhancers|Tile Care & Maintenance
p392
I690
sVSpecialty Fans|Portable Fans
p393
I1191
sVTune-up Kits|Replacement Engines & Parts
p394
I325
sVBaby Gates|Child Safety
p395
I1186
sVDoor Chime Boxes & Kits|Door Bells
p396
I251
sVLamp Finials|Lamp Parts & Accessories
p397
I1443
sVPedestal or Column Pumps|Sump Pumps
p398
I1061
sVDoor Mats|Mats
p399
I336
sVSink Hole Covers|Sink Parts & Repair
p400
I1329
sVGutter Accessories|Gutters & Accessories
p401
I1058
sVBar, Flats, Tubes & Rods|Metal Sheets & Rods
p402
I178
sVSide by Side Refrigerators|Refrigerators
p403
I931
sVFrame Corners, Operators & Accessories|Door Repair
p404
I1802
sVReplacement Cartridges|Pool Equipment
p405
I1476
sVStationary Air Compressors|Air Compressors
p406
I1665
sVBelts|Replacement Engines & Parts
p407
I489
sVSnail & Slug Control|Outdoor Insect Control
p408
I55
sVVanity Tops|Vanity Tops & Side Splashes
p409
I1090
sVTree Pruners|Shears & Pruning Tools
p410
I762
sVFlashlight Accessories|Flashlights & Accessories
p411
I1333
sVSoaking Tubs|Bathtubs & Whirlpools
p412
I1272
sVFittings|Interior Stair Parts
p413
I418
sVMetal Tile|Tile
p414
I286
sVPassage Door Knobs|Door Knobs
p415
I430
sVCabinet Accessories|Cabinets & Cabinet Hardware
p416
I216
sVMiscellaneous Parts|Replacement Engines & Parts
p417
I316
sVMending Plates|Builders Hardware
p418
I861
sVDisposable Tableware|Dining & Entertainment
p419
I1837
sVCarpenter Squares|Marking & Layout tools
p420
I584
sVPipe Wrenches|Wrenches
p421
I1252
sVRaceway Accessories|Cord Covers
p422
I609
sVElectrical Staples|Staples, Ties & Tubing
p423
I646
sVConstruction Connectors|Builders Hardware
p424
I626
sVBall-Peen Hammers|Hammers
p425
I552
sVTruck Boxes|Tool Storage
p426
I1480
sVTraffic Cones|Safety Gear
p427
I85
sVRubberized Coatings|Paint\u000a
p428
I1619
sVMagnets & Protective Discs|Hook & Loop
p429
I1235
sVCeiling Fans|Ceiling Fans & Accessories
p430
I119
sVCarpet Cleaner & Vacuum|Vacuum Cleaners & Floor Care
p431
I332
sVBarn & Fence Paint|Exterior Paint, Stain & Waterproofing
p432
I179
sVDimmers|Dimmers, Switches & Outlets
p433
I414
sVAttic Flooring Panels|Plywood
p434
I1112
sVLoppers|Shears & Pruning Tools
p435
I198
sVFountains|Outdoor Decor
p436
I1291
sVTool Stands|Power Tool Accessories
p437
I932
sVLamp Accessories|Lamp Parts & Accessories
p438
I515
sVLong Nose Pliers|Pliers
p439
I425
sVShoe Storage|Closet Storage & Organization
p440
I778
sVMulti-Position Ladders|Ladders
p441
I1110
sVShade Cloths|Landscaping
p442
I1335
sVHanger Wire & Fasteners|Ceiling Tile Tools & Accessories
p443
I596
sVToggle Switch Plates|Switch Plates
p444
I294
sVRoofing Tools|Roofing
p445
I1654
sVIndoor Halloween Decorations|Halloween
p446
I1740
sVPipe|PEX Pipe & Fittings
p447
I684
sVJack Stands|Automotive Shop Equipment
p448
I1823
sVSleeves|Fittings
p449
I876
sVVinyl Mini Blinds|Mini Blinds
p450
I295
sVDoors Without Glass|Fiberglass Doors
p451
I1315
sVAccessories|Pet Doors
p452
I1862
sVFraming Hammers|Hammers
p453
I1478
sV4' Centerset Sink Faucets|Sink Faucets
p454
I110
sVOrganic Vegetable & Herb Seeds|Organic Seeds
p455
I36
sVAppliance Cleaners|Cleaners
p456
I113
sVReplacement Chains|Chainsaws & Accessories
p457
I397
sVPush & Pull Plates|Door Accessories
p458
I608
sVFinishing Nailers|Nail Guns & Collated Tools
p459
I1495
sVDoors With Glass|Fiberglass Doors
p460
I1656
sVTubing|Staples, Ties & Tubing
p461
I744
sVAccessories|Christmas Lights
p462
I296
sVFoam|Insulation
p463
I285
sVHardware & Accessories|Ceiling Fan Accessories
p464
I577
sVChristmas Candles & Candleholders|Indoor Christmas Decorations
p465
I934
sVEco-Incandescent Light Bulbs|Light Bulbs
p466
I191
sVTable Lamps|Lamps & Shades
p467
I1269
sVWheels & Tires|Replacement Engines & Parts
p468
I329
sVFruit & Vegetable Disease Control|Plant Disease Control
p469
I1245
sVAccessories|Poultry Supplies
p470
I1253
sVDrain Filtration Sleeves|Accessories
p471
I1361
sVPower Tool Batteries|Power Tool Batteries & Chargers
p472
I240
sVRivet Tools|Rivet Tools & Rivets
p473
I1267
sVSponges|Tile Tools & Accessories
p474
I389
sVElectronic Door Levers|Door Levers
p475
I1074
sVPipe Hangers|Plumbing Accessories
p476
I655
sVPlank Paneling|Paneling
p477
I1305
sVBrackets|Drapery Hardware
p478
I916
sVBacksplashes|Countertops & Backsplashes
p479
I1375
sVLight Kits|Ponds & Pond Accessories
p480
I1714
sVPressure Treated|Timber
p481
I919
sVPrivacy Door Levers|Door Levers
p482
I607
sVFlexible Ductwork|Ducting & Venting
p483
I647
sVRoofing Nailers|Nail Guns & Collated Tools
p484
I1695
sVAir Freshener Accessories|Air Fresheners
p485
I111
sVDecking Parts & Accessories|Decking
p486
I1168
sVMisting|Watering & Irrigation
p487
I1195
sVResidential Playset Hardware|Residential Playsets & Swing Sets
p488
I1734
sVProtractors|Marking & Layout tools
p489
I1012
sVCircular Saw Blades|Saw Blades
p490
I572
sVShrub & Tree Insect Control|Plant Insect Control
p491
I1144
sVFile & Rasp Sets|Hand Tool Sets
p492
I12
sVCO & Smoke Combination Alarms|Fire Safety
p493
I183
sVLazy Susans|Kitchen Storage & Organization
p494
I479
sVResidential Playsets|Residential Playsets & Swing Sets
p495
I1230
sVPipe|Galvanized Pipe & Fittings
p496
I856
sVCovers|Evap Cooler Parts & Accessories
p497
I627
sVHandles|Cleaning Tools & Supplies
p498
I595
sVFinishing Washers|Washer Fasteners
p499
I775
sVCovers|Electrical Boxes, Conduit & Fittings
p500
I471
sVHomeowners Tool Sets|Hand Tool Sets
p501
I1280
sVSnow Equipment Parts & Accessories|Snow Equipment
p502
I1552
sVIce Maker Installation Kits|Refrigeration
p503
I1645
sVCaps|Duct Accessories
p504
I984
sVCorded Routers|Routers
p505
I9
sVHybrid Fans|Powered Vents & Fans
p506
I1864
sVJackets & Vests|Workwear & Apparel
p507
I1559
sVArbors & Trellises|Yard Structures & Shade
p508
I487
sVWood Burning Stoves|Freestanding Stoves
p509
I1789
sVDining Chair Cushions|Outdoor Chair Cushions
p510
I1818
sVFlooring Nailers|Nail Guns & Collated Tools
p511
I1701
sVTool Bags|Tool Storage
p512
I65
sVBases|Caps & Bases
p513
I915
sVSurface Bolts|Door Security
p514
I895
sVMetal Fence Panels|Metal Fencing
p515
I1076
sVBath Fans|Bath Ventilation Fans
p516
I641
sVRope|Chain & Rope
p517
I209
sVFaucet Spouts & Extensions|Faucet Parts & Repair
p518
I1833
sVSeed Starters|Seeds & Accessories
p519
I957
sVTelephone Accessories|Phones
p520
I1044
sVLaminate Molding & Trim|Laminate Flooring
p521
I797
sVRoofing Nails|Nails
p522
I742
sVSpecialty Screwdrivers|Screwdrivers
p523
I353
sVCondensate Removal Pumps|Utility Pumps
p524
I1532
sVDog Food|Dog Supplies
p525
I1327
sVFlappers|Toilet Parts & Repair
p526
I13
sVTack Strips|Carpet Tools & Accessories
p527
I1238
sVHose Washer|Fittings
p528
I1380
sVRecessed Lighting Accessories|Indoor Lighting Parts & Accessories
p529
I1562
sVMotion Detectors|Security Systems
p530
I1626
sVLiquid|Lawn Fertilizers
p531
I860
sVVanity Lighting|Sconces & Vanity Lighting
p532
I1034
sVGranule|Lawn Fertilizers
p533
I541
sVShepherd's Hooks|Planter Accessories
p534
I502
sVPropane Grills|Gas Grills
p535
I590
sVVices|Clamps & Vices
p536
I933
sVMicro Sprinklers|Drip Irrigation Emitters
p537
I753
sVLawn Weed Killer|Weed Killer
p538
I32
sVGlue Sticks|Glue Guns & Glue Sticks
p539
I872
sVBackflow Valves|Valves
p540
I671
sVFan Controls|Dimmers, Switches & Outlets
p541
I1129
sVFireplace Tool Sets|Fireplace & Hearth
p542
I378
sVCabinet Door Dampers|Cabinet Accessories
p543
I1396
sVAerators|Riding Mower & Tractor Attachments
p544
I1852
sVCommon Nails|Nails
p545
I454
sVVanities with Tops|Bathroom Vanities
p546
I847
sVSpecialty Hardware|Hardware
p547
I681
sVGeneral Purpose|Extension Cords
p548
I100
sVSoil Amendments|Soil & Soil Amendments
p549
I211
sVChain Locks|Door Security
p550
I1053
sVRoof Ventilation|Roofing
p551
I732
sVDrapes & Curtains|Blinds & Window Treatments
p552
I950
sVShower Heads|Shower Heads & Hand Showers
p553
I51
sVBathroom Accessory Kits|Bathroom Accessories
p554
I1737
sVColored Light Bulbs|Decorative Light Bulbs
p555
I411
sVHalloween Lights|Halloween
p556
I1325
sVCord Reels|Extension Cords
p557
I8
sVWindow Repair Parts|Window Hardware
p558
I1687
sVGarage Door Opener Remotes|Garage Doors, Openers & Accessories
p559
I78
sVOver-the-Range Microwaves|Microwaves
p560
I717
sVRaised Garden Beds|Garden Center
p561
I704
sVSpline|Screen & Storm Door Hardware
p562
I815
sVHitch Accessories|Hitches & Accessories
p563
I1700
sVGarment Racks|Closet Storage & Organization
p564
I839
sVBrush Cutters|Trimmers & Edgers
p565
I1786
sVMicrowave & Electric Wall Oven Combinations|Wall Ovens
p566
I1781
sVInterior Stain|Interior Paint & Stain
p567
I145
sVMole Bait|Mole Control
p568
I1639
sVCarpet|Carpet & Floor Cleaners
p569
I392
sVFree Standing Cabinets, Racks & Shelves|Garage Storage
p570
I444
sV2 Pole|Circuit Breakers
p571
I1119
sVVent Free|Fireplace Inserts
p572
I1454
sVMicrowave|Cooking
p573
I651
sVFan Heaters|Electric Heaters
p574
I555
sVPaint Rollers|Paint Rollers
p575
I385
sVOther Replacement Parts|Grill Replacement Parts
p576
I578
sVWire Rope|Chain & Rope
p577
I914
sVSmall Parts Organizers|Tool Storage
p578
I54
sVAerators & Adaptors|Plumbing Parts & Repair
p579
I625
sVElectrical Tape|Electrical Tape & Wire Connectors
p580
I456
sVPneumatic Staplers|Nail Guns & Collated Tools
p581
I1574
sVFraming Nailers|Nail Guns & Collated Tools
p582
I1148
sVPortable Ice Makers|Ice Makers
p583
I1663
sVWine Coolers|Wine, Beverage & Keg Coolers
p584
I1752
sVPolishing|Abrasives
p585
I238
sVBit Holders & Extensions|Drill Bits
p586
I408
sVTop Chests|Tool Chests
p587
I1155
sVPortable Grills|Grills & Grill Accessories
p588
I946
sVResidential Electric|Water Heaters
p589
I1854
sVCut-Off Wheels|Grinding
p590
I123
sVSnow Shovels & Ice Scrapers|Snow & Ice
p591
I1170
sVWire Connectors|Electrical Tape & Wire Connectors
p592
I74
sVScaffolding|Ladders
p593
I1497
sVCutters & Punchers|Drip Irrigation Tools & Accessories
p594
I942
sVDimensional Lumber|Framing Lumber & Studs
p595
I126
sVCollars|Accessories
p596
I1382
sVMedicine Cabinets|Bathroom Cabinets & Storage
p597
I907
sVCabinet Knobs|Cabinet & Furniture Hardware
p598
I374
sVEmergency Response Kits|Emergency Preparedness
p599
I1806
sVSweepers|Hard Surface Cleaners
p600
I1863
sVTie-Down Straps & Bungee Cords|Hardware
p601
I63
sVBack Brackets & Guide Tracks|Drawer Hardware
p602
I1501
sVSpark Plugs|Riding Mower & Tractor Attachments
p603
I535
sVWindow Screens|Windows
p604
I1466
sVComposters|Garden Center
p605
I1416
sVAuger Bits|Drill Bits
p606
I897
sVEscutcheons & Flanges|Faucet Parts & Repair
p607
I1029
sVKits|Recessed Lighting
p608
I693
sVBuilding Wire|Wire
p609
I182
sVVanity Side Splashes|Vanity Tops & Side Splashes
p610
I1297
sVTermite Control|Wood Destroying Insect Control
p611
I733
sVSlab Doors|Interior & Closet Doors
p612
I52
sVProjectors & Animations|Outdoor Christmas Decorations
p613
I1713
sVCrimpers|Pliers
p614
I1414
sVParticle Board|Plywood
p615
I635
sVCompressor Accessories|Air Compressor Parts & Accessories
p616
I835
sVScrewdrivers & Nut Drivers|Electrical Tools
p617
I50
sVInstallation & Mounting Kits|Bathroom Accessories
p618
I1420
sVGrill Cleaning Tools|Accessories
p619
I306
sVNet Lights|Christmas Lights
p620
I849
sVSpecialty Tools|Electrical Tools
p621
I1065
sVPortable Dishwashers|Dishwashers
p622
I1853
sVPower Heads|Trimmers & Edgers
p623
I206
sVPoles|Pool Cleaning Tools
p624
I1452
sVSpade Bits|Drill Bits
p625
I1265
sVCoaxial Cables|AV Cables & Connectors
p626
I617
sVPump Covers|Pumps
p627
I518
sVFoggers & Fumigators|Insect & Pest Control
p628
I139
sVGarage Storage Systems & Accessories|Garage Storage
p629
I800
sVSurveillance Accessories|Surveillance Equipment
p630
I1530
sVPool Water Balancers|Pool Chemicals
p631
I440
sVFabric Softener|Laundry
p632
I284
sVBaggers|Riding Mower & Tractor Attachments
p633
I1519
sVBathroom Cleaners|Cleaners
p634
I2
sVFire Extinguishers|Fire Safety
p635
I417
sVBoilers|Heaters
p636
I1829
sVClamps|Clamps & Vices
p637
I219
sVThermometer|Pool Accessories
p638
I1494
sVAdhesives|Tools & Maintenance
p639
I1240
sVSpecialty Drill Bits|Drill Bits
p640
I57
sVReciprocating Saws|Saws
p641
I1244
sVClamp On, Hand Helds & Stand-Up|Work Lights
p642
I185
sVPump Kits|Pump Accessories
p643
I1773
sVWindow Handles|Window Hardware
p644
I214
sVStorm Door Hardware|Screen & Storm Door Hardware
p645
I1257
sVSpecialty Power Tools|Power Tools
p646
I1836
sVShower Baskets & Caddies|Shower Curtains, Rods & Accessories
p647
I169
sVPull-Out Cabinet Organizers|Cabinet Organizers
p648
I720
sVBackerboard|Surface Prep
p649
I632
sVHollow & Drywall Anchors|Anchors
p650
I308
sVMeter Combos|Load Centers
p651
I1673
sVRaised Panel|Exterior Shutters
p652
I1691
sVOutdoor Decorative Lighting|Outdoor Lighting
p653
I1136
sVDecorative Wall Decals|Decorative Wall Decals & Murals
p654
I965
sVOscillating Tools|Power Multi Tools
p655
I156
sVSeat Cushions|Outdoor Chair Cushions
p656
I1513
sVCalculators|Marking & Layout tools
p657
I1563
sVShower Curtains & Liners|Shower Curtains, Rods & Accessories
p658
I887
sVUpright Freezers|Freezers & Ice Makers
p659
I212
sVPumpkin Carving Kits|Halloween
p660
I1742
sVVentilation Accessories|Ventilation
p661
I570
sVWood Fillers|Tools & Maintenance
p662
I1417
sVCoaxial Wall Plates|Wall Plates
p663
I281
sVWindow Rollers & Guides|Window Hardware
p664
I1070
sVNewels|Interior Stair Parts
p665
I1613
sVAdjustable Drippers|Drip Irrigation Emitters
p666
I1398
sVCasual Dress Shirts|Work Shirts
p667
I1640
sVCircular Saws|Saws
p668
I218
sVAccess Panels|Plumbing Accessories
p669
I896
sVDump Carts|Riding Mower & Tractor Attachments
p670
I1202
sVCordless Rotary Tools|Rotary Tools
p671
I1686
sVDoor Sweeps|Door Repair
p672
I231
sVWindow Operators|Window Hardware
p673
I734
sVBaseboard & Floor|Heaters
p674
I1484
sVGym Flooring|Exercise & Gym Flooring
p675
I1558
sVOutlet Wall Plates|Wall Plates
p676
I223
sVSpeed Nuts|Nuts
p677
I1674
sVDrywall Texture Sprayers & Hopper Guns|Drywall Tools
p678
I1266
sVLifts, Jacks & Ramps|Riding Mower & Tractor Attachments
p679
I1586
sVKnives|Knives & Blades
p680
I79
sVDriveway Reflectors|Signs, Letters & Numbers
p681
I1172
sVTurnbuckles|Metal Hooks & Eyes
p682
I706
sVAcrylic Sinks|Kitchen Sinks
p683
I1531
sVGlass Tile|Tile
p684
I854
sVRV & Marine Cords|Extension Cords
p685
I1868
sVPaint Apparel & Safety|Paint Buckets, Tools, Safety & Apparel
p686
I384
sVMailbox Accessories|Mailboxes & Mailbox Posts
p687
I650
sVCharcoal & Wood Grills|Grills & Grill Accessories
p688
I5
sVKerosene Heaters|Gas Heaters
p689
I1383
sVShower Towers|Shower Systems & Valves
p690
I1848
sVShower Doors|Showers
p691
I840
sVFraming Nails|Nails
p692
I557
sVBottom Freezer Refrigerators|Refrigerators
p693
I948
sVDeck Lighting|Landscape & Deck Lighting
p694
I545
sVMops|Cleaning Tools
p695
I287
sVPads|Evap Cooler Parts & Accessories
p696
I1092
sVDetergent|Laundry
p697
I283
sVWallpaper Tools & Supplies|Wallpaper
p698
I789
sVSliding Doors|Interior & Closet Doors
p699
I1249
sVChest Freezers|Freezers & Ice Makers
p700
I1028
sVTexture|Carpet Tile
p701
I1758
sVRoofing Primers|Roof Coatings
p702
I920
sVReplacement Ballasts|Fluorescent Lighting Accessories
p703
I563
sVFiles|Chisels, Files & Punches
p704
I575
sVBall Valves|Valves
p705
I1353
sVShower Curtain Rods|Shower Curtains, Rods & Accessories
p706
I728
sVBenches & Gliders|Patio Furniture
p707
I1135
sVRoll Runners|Stair Treads & Roll Runners
p708
I812
sVCorbels|Moulding & Millwork
p709
I925
sVWatering Cans|Watering & Irrigation
p710
I974
sVAir Chucks|Air Compressor Parts & Accessories
p711
I892
sVLaminate Sheets|Countertops
p712
I832
sVClaw Hammers|Hammers
p713
I828
sVSpecialty Power Tool Accessories|Power Tool Accessories
p714
I352
sVHVAC Tools|HVAC Parts & Accessories
p715
I1157
sVToilet & Bidet Accessories|Toilets, Toilet Seats & Bidets
p716
I1143
sVInstallation Tools|Tools & Maintenance
p717
I1242
sVEave Vents|Appliance Vents
p718
I1518
sVHand Showers|Shower Heads & Hand Showers
p719
I604
sVPersonal Fans|Portable Fans
p720
I654
sVArmored Cable|Wire
p721
I1209
sVCaps|Fittings
p722
I672
sVPickaxes & Mattocks|Striking Tools
p723
I318
sVWraparound Lights|Commercial Lighting
p724
I582
sVBox &  Floor Fans|Portable Fans
p725
I822
sVMailbox Posts|Mailboxes & Mailbox Posts
p726
I1086
sVBleach|Cleaners
p727
I363
sVSnips & Sidecutters|Hand Saws & Cutting Tools
p728
I767
sVPassage Door Levers|Door Levers
p729
I106
sVBagged Mulch|Barks & Mulches
p730
I407
sVNursery Pots|Pots & Planters
p731
I703
sVMain Breakers|Circuit Breakers
p732
I1828
sVSpacers|Washer Fasteners
p733
I1285
sVPipe Putty & Sealants|Plumbing Accessories
p734
I204
sVGlass & Repair|Windows
p735
I1233
sVWater Testing Kits|Plumbing Accessories
p736
I1318
sVSqueegees|Cleaning Tools
p737
I1126
sVAir Conditioner|Heating, Cooling & Air Quality
p738
I1039
sVTrimmer & Edger Accessories|Trimmers & Edgers
p739
I94
sVString Lights|Christmas Lights
p740
I443
sVCitronella Candles & Torches|Insect & Pest Control
p741
I470
sVEye Bolts|Bolts
p742
I634
sVDrip Adapters|Drip Irrigation Fittings
p743
I1069
sVVessel Sinks|Bathroom Sinks
p744
I1634
sVTampers|Striking Tools
p745
I697
sVYellow Jacket Control|Stinging Insect Control
p746
I745
sVPower Sander Accessories|Sandpaper, Patching & Repairs
p747
I431
sVRatchet & Socket Combination Sets|Ratchet & Socket Sets
p748
I1487
sVCleaners & De-Icers|Vehicle Maintenance
p749
I1401
sVRailings|Deck Railings
p750
I1633
sVMiddle & Side Chests|Tool Chests
p751
I1766
sVDriveway Sealers & Repair|Concrete, Cement & Masonry
p752
I509
sVStanding Decor|Home Accents
p753
I1843
sVPavers & Step Stones|Forming Products
p754
I499
sVQuick Ship & Assembled Cabinets|Cabinets & Cabinet Hardware
p755
I349
sVAccessories|Outdoor Heating
p756
I1636
sVAppearance Boards|Lumber & Composites\u000a
p757
I177
sVRulers|Measuring Tools
p758
I726
sVPlastic|Sheds
p759
I1182
sVPropane Heaters|Gas Heaters
p760
I517
sVBird Repellents|Bird Control
p761
I1128
sVStair Kits|Exterior Stair Parts
p762
I1670
sVPatch Panels|Structured Media
p763
I1715
sVTire Inflators|Tires & Tire Care
p764
I1846
sVChipper Shredders|Outdoor Power Equipment
p765
I1807
sVFence Gate Handles|Fencing Parts & Accessories
p766
I1662
sVStructural Straps|Builders Hardware
p767
I464
sVWoodshop Projects|Ready-To-Assemble Kits
p768
I670
sVAutomatic Gate Opener Kits|Gate Openers
p769
I1838
sVInstaller Bits|Drill Bits
p770
I1354
sVPlant Hangers|Planter Accessories
p771
I874
sVTemporary Shades|Blinds & Window Treatments
p772
I988
sVFountain Pumps|Water Garden Pumps
p773
I1025
sVSpecialty Hardware|Decking Hardware
p774
I1429
sVElectronic Deadbolts|Electronic Door Hardware
p775
I601
sVVented Skylights|Skylights
p776
I1672
sVAuger Heads|Augers & Bits
p777
I1625
sVRiding Mowers|Riding Lawn Mowers
p778
I1150
sVPortable Generators|Generators
p779
I1847
sVDoor & Window Alarms|Security Systems
p780
I905
sVPre-Lit Christmas Trees|Artificial Christmas Trees
p781
I1214
sVIn-wall Volume Controllers|Home Audio
p782
I1856
sVElectric Wall Heaters|Wall Heaters
p783
I917
sVBarn Door Hardware|Door Knobs & Hardware
p784
I1795
sVCarts & Caddies|Cleaning Tools
p785
I1840
sVLeaf Collecting Tools|Gardening Tools
p786
I1556
sVScissors|Hand Saws & Cutting Tools
p787
I747
sVFruit & Vegetable Insect Control|Plant Insect Control
p788
I256
sVFish Tapes|Fish Tapes & Lubes
p789
I1293
sVAccessories|Insulation
p790
I798
sVDoor Pins, Springs & Rollers|Door Repair
p791
I909
sVWood Siding|Siding
p792
I1367
sVForming Tubes|Forming Products
p793
I884
sVDecor Screws|Screws
p794
I906
sVAir Drills|Air Tools
p795
I1794
sVCarts|Accessories
p796
I1408
sVRepair/Joining|Plumbing Tools
p797
I1424
sVElectric Dryers|Dryers
p798
I1554
sVAdhesives|Laminate Floor Maintenance & Tools
p799
I403
sVGaskets, Seals, & Wax Rings|Toilet Parts & Repair
p800
I339
sVDoors With Glass|Steel Doors
p801
I1278
sVScroll Saws|Saws
p802
I1754
sVAerators|Gardening Tools
p803
I537
sVMixing Valves|Valves
p804
I843
sVQuad|Circuit Breakers
p805
I1683
sVSiding Nails|Nails
p806
I1763
sVLaser Distance Measurer|Measuring Tools
p807
I1832
sVKnee Pads|Tile Tools & Accessories
p808
I1397
sVKits|Drapery Hardware
p809
I996
sVBack & Knee Support|Health & Medical
p810
I1489
sVFloor Lamps|Lamps & Shades
p811
I738
sVDrains & Drain Assemblies|Traps & Drains
p812
I587
sVPipe|Black Pipe & Fittings
p813
I158
sVVertical Screens|Retractable Door Screens
p814
I1849
sVUnder Cabinet Range Hoods|Range Hoods
p815
I757
sVConnectors|Transitions & Connectors
p816
I645
sVFilters|Ponds & Pond Accessories
p817
I1602
sVDrip Pressure Regulator|Drip Water Source Connections
p818
I944
sVFoam Tapes|Weather Stripping
p819
I255
sVShims & Wood Shingles|Lumber & Composites\u000a
p820
I388
sVAir Purifiers|Air Quality
p821
I1415
sVDusters|Cleaning Tools & Supplies
p822
I377
sVReel Lawn Mowers|Lawn Mowers
p823
I289
sVChain Link Fence Posts|Chain Link Fencing
p824
I830
sVRoof Shingles|Roofing
p825
I165
sVWeed Barrier & Underlayment|Landscaping
p826
I327
sVPortable Band Saws|Saws
p827
I1457
sVAir Cut-Off Tools|Air Tools
p828
I1431
sVHose Bibbs & Sillcocks|Valves
p829
I1117
sVOscillating Tool Accessories|Power Tool Accessories
p830
I344
sVFiller Plates|Load Centers
p831
I1419
sVFrench Door Refrigerators|Refrigerators
p832
I794
sVNosing|Interior Stair Parts
p833
I1661
sVIrrigation Timers|Sprinkler Timers
p834
I809
sVPool Chlorine|Pool Chemicals
p835
I776
sVRepair Parts|Valves
p836
I1618
sVHVAC Cleaners & Sealers|HVAC Parts & Accessories
p837
I1212
sVGutter Guards|Gutters & Accessories
p838
I782
sVSocket Screws|Screws
p839
I743
sVOrganic Lawn Fertilizer|Organic Lawn Care
p840
I481
sVSecurity Wire|Wire
p841
I1746
sVParts & Accessories|Bath Ventilation Fans
p842
I1433
sVWall Vents|Appliance Vents
p843
I1121
sVEntry Chimes|Security Systems
p844
I910
sVDeadbolts|Door Locks & Deadbolts
p845
I97
sVConduit Benders & Sizers|Electrical Tools
p846
I877
sVAir Quality Testers|Parts & Accessories
p847
I749
sVDrywall Sponges|Drywall Tools
p848
I1179
sVWhole House Systems|Water Dispensers & Filters
p849
I1036
sVPlaner Blades|Woodworking Tool Accessories
p850
I1615
sVLandscaping Rakes|Garden Rakes
p851
I730
sVPipe/Tube Cutting|Plumbing Tools
p852
I656
sVMallets|Striking Tools
p853
I315
sVSocket Sets|Ratchet & Socket Sets
p854
I597
sVBistro Sets|Dining Sets
p855
I1755
sVRollers & Slides|Drawer Hardware
p856
I534
sVPanel Saws|Saws
p857
I1292
sVMasonry, Brick & Stucco Paint|Exterior Paint, Stain & Waterproofing
p858
I805
sV8' Widespread Sink Faucets|Sink Faucets
p859
I790
sVCollated Roofing Nails|Collated Nails, Screws & Staples
p860
I1019
sVHouse Plants|Garden Plants & Flowers
p861
I1595
sVOutdoor Multi-Insect Control|Outdoor Insect Control
p862
I157
sVString Trimmers|Trimmers & Edgers
p863
I61
sVGarage Door Replacement Parts|Garage Doors, Openers & Accessories
p864
I838
sVHoses|Pool Cleaning Tools
p865
I1644
sVBleach|Laundry
p866
I1321
sVDrywall Specialty Tools|Drywall Tools
p867
I898
sVComposite Decking|Decking Boards
p868
I718
sVMotors|Evap Cooler Parts & Accessories
p869
I1193
sVChristmas Window & Wall Decor|Home Accents
p870
I923
sVPocket Door Locks|Door Locks & Deadbolts
p871
I1385
sVChain & Bar Sets|Parts & Accessories
p872
I644
sVDeck Boxes|Sheds, Garages & Outdoor Storage
p873
I586
sVSandpaper, Screens, Sponges & Steel Wool|Sandpaper, Patching & Repairs
p874
I290
sVLag Bolts|Bolts
p875
I147
sVInstallation Hardware|Faucet Parts & Repair
p876
I763
sVHandles|Cleaning Tools
p877
I1226
sVMosaic Tile|Tile
p878
I288
sVElectrical Disconnects|Power Distribution
p879
I1210
sVFireplace Pipe & Fittings|Fireplace Parts
p880
I1459
sVThumb Tacks|Nails
p881
I466
sVEngine Oil|Vehicle Maintenance
p882
I1874
sVMicro Bubblers|Drip Irrigation Emitters
p883
I1693
sVDummy Door Levers|Door Levers
p884
I871
sVLabeling Accessories|Labeling
p885
I1515
sVCarpet Adhesives|Carpet Tape & Adhesives
p886
I1520
sVPaint Trays & Liners|Paint Buckets, Tools, Safety & Apparel
p887
I39
sVHidden Deck Fasteners|Decking Hardware
p888
I719
sVStrainers|Traps & Drains
p889
I712
sVPolishers|Power Tools
p890
I1220
sVKnob Handlesets|Handlesets
p891
I814
sVTravertine Tile|Natural Stone Tile
p892
I698
sVMarine, Pond & Pool Paint|Paint\u000a
p893
I1344
sVAir Admittance Valves|Valves
p894
I848
sVAir Grease Guns|Air Tools
p895
I1439
sVElectronics|Fishing
p896
I709
sVTowel Bars|Bathroom Hardware
p897
I361
sVPost Hole Digger|Digging Tools
p898
I833
sVLubricants, Grease & Funnels|Hand Tools
p899
I532
sVFryer Accessories|Accessories
p900
I1222
sVHole Saw Arbors|Hole Saws & Arbors
p901
I648
sVAccessories|Bird Supplies
p902
I1553
sVSlate Tile|Natural Stone Tile
p903
I858
sVTankless Gas|Water Heaters
p904
I1803
sVTees & Wyes|Fittings
p905
I665
sVBoots|In-Wall Duct System
p906
I643
sVTees|Transitions & Connectors
p907
I666
sVStationary Sprinklers|Lawn Sprinklers
p908
I463
sVGas Fittings & Connectors|Pipe Fittings & Connectors
p909
I140
sVKids & Teens Wall Decals|Decorative Wall Decals & Murals
p910
I1328
sVLinoleum Nails|Nails
p911
I1652
sVGable & Louvered Vents|Ventilation
p912
I1288
sVEngineered Hardwood|Wood Flooring
p913
I900
sVCockroach Control|Indoor Insect Control
p914
I881
sVWall Paint & Trim|Interior Paint & Stain
p915
I70
sVOutdoor Wall Mounted Lighting|Outdoor Lighting
p916
I262
sVReplacement Blades|Knives & Blades
p917
I45
sVFlow Restrictors & Stops|Faucet Parts & Repair
p918
I366
sVCarpet Tuckers|Carpet Tools & Accessories
p919
I1262
sVLamp Wire|Wire
p920
I1710
sVAccessories|Patio Furniture
p921
I1358
sVMeasuring Wheels|Measuring Tools
p922
I1322
sVCreepers & Work Seats|Automotive Shop Equipment
p923
I1225
sVCeramic Floor & Wall Tile|Ceramic Tile
p924
I687
sVCabinet Hinges|Cabinet & Furniture Hardware
p925
I229
sVPVC Schedule 40 Pipe|PVC Pipe & Fittings
p926
I104
sVElectric Fence|Fencing
p927
I1544
sVPump Switches|Pump Accessories
p928
I761
sVConduit|Electrical Boxes, Conduit & Fittings
p929
I230
sVUpright Vacuums|Vacuums
p930
I1184
sVHumidifier|Heating, Cooling & Air Quality
p931
I936
sVLighters|Accessories
p932
I382
sVBird Spikes|Bird Control
p933
I1627
sVHose Clamps, End Caps & Plugs|Drip Irrigation Tools & Accessories
p934
I945
sVIntercoms|Door Bells & Intercoms
p935
I1813
sVPipe & Tubing|ABS DWV Pipe & Fittings
p936
I955
sVPry & Wrecking Bar Sets|Hand Tool Sets
p937
I836
sVLandscape Lighting Wire|Wire
p938
I477
sVHigh Bay Lights|Commercial Lighting
p939
I1566
sVPipe Insulation|Plumbing\u000a
p940
I386
sVAir Filters Accessories & Air Fresheners|Air Filters
p941
I485
sVWhole House Evaporative Coolers|Evaporative Coolers
p942
I1304
sVFly Control|Indoor Insect Control
p943
I17
sVUtility Sink Accessories|Sinks
p944
I961
sVStair Treads|Stair Treads & Roll Runners
p945
I904
sVBamboo Shades & Natural Shades|Blinds & Window Treatments
p946
I1050
sVPaint Buckets & Tools|Paint Buckets, Tools, Safety & Apparel
p947
I38
sVPush-to-connect Fittings & Connectors|Pipes & Fittings
p948
I636
sVPump Filters|Pump Accessories
p949
I1722
sVBumpers & Guards|Door Security
p950
I364
sVSoldering Accessories|Torches & Soldering Irons
p951
I1458
sVFruit Seeds|Seeds & Accessories
p952
I845
sVPaper Products & Dispensers|Professional Cleaning
p953
I90
sVCeramic Wall Tile|Ceramic Tile
p954
I1094
sVMulching Kits|Replacement Engines & Parts
p955
I1149
sVOutdoor Security Lighting|Outdoor Lighting
p956
I201
sVFence Gate Hinges|Fencing Parts & Accessories
p957
I878
sVMulti-piece Shower Surrounds|Shower Walls & Surrounds
p958
I1567
sVStruts|Electrical Boxes, Conduit & Fittings
p959
I891
sVLaminate Wood Flooring|Laminate Flooring
p960
I370
sVWood|Sheds
p961
I962
sVGrow Bags|Pots & Planters
p962
I1784
sVFirst Aid Kits|Emergency Preparedness
p963
I1083
sVWing Nuts|Nuts
p964
I1046
sVWelding Accessories|Welding
p965
I503
sVDoor Latches & Catches|Door Accessories
p966
I737
sVRange/Cooktop|Cooking
p967
I161
sVPin Nailers|Nail Guns & Collated Tools
p968
I1716
sVBalusters|Interior Stair Parts
p969
I1735
sVChair Mats|Mats
p970
I1601
sVWindow Film|Blinds & Window Treatments
p971
I639
sVDownrods|Ceiling Fan Accessories
p972
I869
sVSledge Hammers|Striking Tools
p973
I1183
sVMounted Garage Racks & Shelving|Garage Storage
p974
I731
sVCloset Organizer Accessories|Closet Storage & Organization
p975
I770
sVCabinet Pulls|Cabinet & Furniture Hardware
p976
I506
sVDrywall Screws|Screws
p977
I130
sVPond Treatments & Repair|Ponds & Pond Accessories
p978
I903
sVAccessories|Evap Cooler Parts & Accessories
p979
I624
sVHeadlamps, Lanterns & Spotlights|Flashlights & Accessories
p980
I307
sVFloor Cleaning Products|Vacuum Cleaners & Floor Care
p981
I14
sVRobe Hooks|Bathroom Hardware
p982
I164
sVHammock Stands & Accessories|Hammocks & Swings
p983
I611
sVBrick Jointers|Forming Products
p984
I1387
sVSurge Protectors|Extension Cords & Surge Protectors
p985
I580
sVTowel Rings|Bathroom Hardware
p986
I67
sVSpray Paint|Paint\u000a
p987
I108
sVWoodruff Keys|Hook & Loop
p988
I1855
sVPortable Evaporative Coolers|Evaporative Coolers
p989
I1675
sVAnnuals|Garden Plants & Flowers
p990
I1610
sVAir Ratchet Wrenches|Air Tools
p991
I1791
sVBurners|Grill Replacement Parts
p992
I1178
sVSkylights Accessories|Skylights
p993
I1878
sVBolt Cutters|Hand Saws & Cutting Tools
p994
I1468
sVSkylight Flashing Kits|Skylights
p995
I1671
sVPumps|Evap Cooler Parts & Accessories
p996
I1125
sVPrimers|Paint\u000a
p997
I81
sVRotary Tools|Power Multi Tools
p998
I273
sVChristmas Tree Stands|Storage & Tree Stands
p999
I1237
sVThreading|Plumbing Tools
p1000
I1642
sVTile Edging|Tile Tools & Accessories
p1001
I1005
sVPost-Mount Mailboxes|Single Family Mailboxes
p1002
I347
sVFresh Garland|Christmas Garland
p1003
I1488
sVStrainers|Fittings
p1004
I1506
sVPorch & Patio Paint|Exterior Paint, Stain & Waterproofing
p1005
I806
sVSoap & Lotion Dispensers|Kitchen Faucets
p1006
I1528
sVIncandescent Light Bulbs|Light Bulbs
p1007
I30
sVParts & Accessories|Ceiling Lighting Accessories
p1008
I439
sVTransition Strips|Tile Tools & Accessories
p1009
I1460
sVWater Courses|Ponds & Pond Accessories
p1010
I1841
sVPortable Air Compressors|Air Compressors
p1011
I622
sVRefrigerator/Freezer|Refrigeration
p1012
I243
sVPlant & Flower Fertilizer|Plant Food & Fertilizer
p1013
I41
sVTrim|Siding
p1014
I245
sVShovels|Digging Tools
p1015
I448
sVExterior Paint & Trim|Exterior Paint, Stain & Waterproofing
p1016
I134
sVWall-Mount Mailboxes|Single Family Mailboxes
p1017
I888
sVWhirlpool Hardware|Whirlpool Parts & Accessories
p1018
I1538
sVFaux Wood Blinds|Blinds & Window Treatments
p1019
I556
sVMachine Screws|Screws
p1020
I150
sVHardwood|Floor Care Cleaners
p1021
I826
sVDishwashing Detergent|Cleaners
p1022
I335
sVBamboo Flooring|Wood Flooring
p1023
I1326
sVFinials|Drapery Hardware
p1024
I1679
sVDuct Tape, Glues & Epoxy|Paint\u000a
p1025
I132
sVFlags & Flag Poles|Outdoor Decor
p1026
I588
sVInflators|Air Compressors, Tools & Accessories
p1027
I1037
sVHex Nuts|Nuts
p1028
I197
sVO - Rings & Washers|Faucet Parts & Repair
p1029
I155
sVCountertop Samples|Countertops & Backsplashes
p1030
I689
sVSprinkler Wire|Wire
p1031
I1643
sVAll Purpose Cleaners|Cleaners
p1032
I1
sVFloats & Trowels|Tile Tools & Accessories
p1033
I138
sVJapanese Beetle Control|Outdoor Insect Control
p1034
I605
sVWeed & Grass Killer|Weed Killer
p1035
I73
sVDoor Reinforcement|Door Security
p1036
I594
sVJack Posts|Builders Hardware
p1037
I1593
sVExterior Stain|Exterior Paint, Stain & Waterproofing
p1038
I302
sVCombination Wrenches|Wrenches
p1039
I220
sVGardening Tool Accessories|Gardening Tools
p1040
I475
sVHand Shower Accessories|Shower Heads & Hand Showers
p1041
I368
sVWork Gloves|Workwear & Apparel
p1042
I215
sVStair Handrails|Exterior Stair Parts
p1043
I1009
sVRolls of Screen|Screens, Tools & Accessories
p1044
I460
sVFireplace Chimney Caps|Fireplace Parts
p1045
I1316
sVGrass Seed|Lawn Care
p1046
I22
sVPlayset Slides|Residential Playset Components
p1047
I1229
sVUnions|Fittings
p1048
I759
sVSprinkler Pumps|Pumps
p1049
I1635
sVChristmas Inflatables|Outdoor Christmas Decorations
p1050
I772
sVHousehold Cleaners|Cleaners
p1051
I142
sVHex Keys|Hand Tools
p1052
I24
sVSprinkler Heads|Sprinkler Systems
p1053
I398
sVPull-Out Faucets|Kitchen Faucets
p1054
I1088
sVSnacks & Candy|Dining & Entertainment
p1055
I971
sVValves|Pool Parts
p1056
I1869
sVPlumb Bobs|Marking & Layout tools
p1057
I1594
sVEnergy Efficient Roofing|Roof Coatings
p1058
I894
sVSpreaders|Riding Mower & Tractor Attachments
p1059
I1641
sVAccordion Doors|Interior & Closet Doors
p1060
I880
sVRotary Sprinklers|Sprinkler Systems
p1061
I46
sVAutomotive Paint|Paint\u000a
p1062
I114
sVSolder|Torches & Soldering Irons
p1063
I1218
sVVinyl Pipe & Tubing|Pipes & Fittings
p1064
I879
sVStair Rods|Stair Treads & Roll Runners
p1065
I1502
sVSubmersible Sump Pumps|Sump Pumps
p1066
I1219
sVMulti-Outlet Strips|Extension Cords & Surge Protectors
p1067
I1493
sVCommercial Mats|Mats
p1068
I938
sVAir Blow Guns|Air Tools
p1069
I993
sVErgonomic Tools|Outdoors
p1070
I457
sVHVAC Accessories|HVAC Parts & Accessories
p1071
I1116
sVGarden Sprayers & Dusters|Plant Care
p1072
I305
sVSheet Sanders|Sanders
p1073
I168
sVComposite Sinks|Kitchen Sinks
p1074
I1441
sVDeep Well Submersible Pumps|Well Pumps & Systems
p1075
I1772
sVTank Levers|Toilet Parts & Repair
p1076
I226
sVTables & Bars|Patio Furniture
p1077
I978
sVShower Stalls & Kits|Showers
p1078
I1260
sVGrill Covers|Accessories
p1079
I340
sVPlanter Stands|Planter Accessories
p1080
I1124
sVSewage & Effluent Pumps|Pumps
p1081
I1324
sVWrecking & Pry Bars|Hand Tools
p1082
I228
sVCut-Off Saws|Saws
p1083
I1827
sVAdjustable Wrenches|Wrenches
p1084
I686
sVBi-Fold Door Hardware|Closet & Pocket Door Hardware
p1085
I1081
sVRebar & Remesh|Concrete, Cement & Masonry
p1086
I323
sVWelding Gloves|Welding
p1087
I969
sVCurtain Tie Backs|Drapery Hardware
p1088
I1659
sVHedge Trimmers|Trimmers & Edgers
p1089
I513
sVOrganic Lawn Disease Control|Organic Lawn Care
p1090
I1077
sVFiltered Water Faucets|Kitchen Faucets
p1091
I1764
sVDrip Manifolds|Drip Water Source Connections
p1092
I1024
sVCurtain Rods|Drapery Hardware
p1093
I846
sVHome Safety|Hardware
p1094
I677
sVSpecialty|Gardening Tools
p1095
I1015
sVLaminate Countertops|Countertops
p1096
I764
sVDoor Bell Accessories|Door Bells
p1097
I1284
sVPool Alarms|Security Systems
p1098
I811
sVExtension Ladders|Ladders
p1099
I816
sVUnitized Washers & Dryers|Washers & Dryers
p1100
I1826
sVCalipers|Measuring Tools
p1101
I1440
sVWalkie Talkies|Home Electronics
p1102
I1013
sVGun Safes|Safes
p1103
I1310
sVGarden Wall Blocks|Landscaping
p1104
I1103
sVTrimmer Attachments|Trimmers & Edgers
p1105
I818
sVMoulding|Moulding & Millwork
p1106
I34
sVTraps|Fittings
p1107
I960
sVMotion Sensors|Dimmers, Switches & Outlets
p1108
I652
sVSingle Hung Windows|Windows
p1109
I1736
sVGranite  Sinks|Kitchen Sinks
p1110
I1717
sVLaser Level|Levels
p1111
I313
sVSafety Switches|Power Distribution
p1112
I1648
sVGlass Cleaners|Cleaners
p1113
I367
sVDoor Locks|Safety & Security
p1114
I1312
sVKnotting Anchors|Anchors
p1115
I311
sVFlanges|Fittings
p1116
I269
sVFurniture Sliders|Hardware
p1117
I1492
sVSmoke Alarms|Fire Safety
p1118
I210
sVHouse Letters & Numbers|Signs, Letters & Numbers
p1119
I259
sVFiberglass Panels|Paneling
p1120
I729
sVOutlet Controls|Energy Management
p1121
I653
sVLight Covers|Ceiling Fan Accessories
p1122
I1697
sVTelephone Cords|Phones
p1123
I1392
sVIce Scrapers & Snow Brushes|Auto Accessories
p1124
I1331
sVRust Preventative|Interior Paint & Stain
p1125
I167
sVLED Light Bulbs|Light Bulbs
p1126
I589
sVAdhesives|Vinyl Floor Maintenance & Tools
p1127
I748
sVFire Escape Ladders|Ladders
p1128
I1762
sVRevolving Sprinklers|Lawn Sprinklers
p1129
I774
sVTile Board|Paneling
p1130
I1062
sVOrganic Lawn Insect Control|Organic Lawn Care
p1131
I1026
sVTee Nuts|Nuts
p1132
I1236
sVOutdoor Ceiling Lighting|Outdoor Lighting
p1133
I606
sVProject Panels|Plywood
p1134
I208
sVChain|Chain & Rope
p1135
I593
sVSlotted Screwdrivers|Screwdrivers
p1136
I53
sVCultivators|Gardening Tools
p1137
I699
sVDrywall Corner Bead|Drywall
p1138
I128
sVOther Indoor Insect Control|Indoor Insect Control
p1139
I235
sVChains|Ceiling Lighting Accessories
p1140
I1590
sVLawn Disease Control|Lawn Care
p1141
I928
sVDethatchers|Riding Mower & Tractor Attachments
p1142
I1551
sVJump Starters|Batteries, Chargers & Jumper Cables
p1143
I1437
sVStair Stringers|Exterior Stair Parts
p1144
I721
sVDisposer|Dishwashers & Disposers
p1145
I867
sVWall Mount Faucets|Kitchen Faucets
p1146
I1052
sVCarabiners|Chain & Rope
p1147
I780
sVJigsaw Blade|Saw Blades
p1148
I810
sVDuct Tape|Duct Accessories
p1149
I133
sVWood Screws|Screws
p1150
I227
sVMosquito Control|Stinging Insect Control
p1151
I701
sVWater Coolers|Water Dispensers & Filters
p1152
I451
sVPipe & Tubing|Brass Pipe & Fittings
p1153
I1281
sVPool Shock|Pool Chemicals
p1154
I1588
sVPrehung Doors|Interior & Closet Doors
p1155
I1248
sVPond Accessories|Ponds & Pond Accessories
p1156
I902
sVThresholds|Weather Stripping
p1157
I293
sVHeat Lamps|Specialty Light Bulbs
p1158
I1427
sVHardwood Plywood|Plywood
p1159
I628
sVInsoles, Socks & Shoe Covers|Workwear & Apparel
p1160
I859
sVBird Seed & Food|Bird Supplies
p1161
I181
sVPrivacy Door Knobs|Door Knobs
p1162
I224
sVLoads & Boosters|Powder Actuated Tools & Accessories
p1163
I1428
sVBell Wire & Accessories|Door Bells
p1164
I1467
sVMole Traps & Lures|Mole Control
p1165
I1133
sVPipe|Specialty Pipe & Fittings
p1166
I1268
sVHoses|Sprayers & Hoses
p1167
I1228
sVStarting Collars & Take Offs|Ducting & Venting
p1168
I1096
sVRoofing Underlayments|Roofing
p1169
I1007
sVAccessories|Dimmers, Switches & Outlets
p1170
I599
sVWater Softener Systems|Water Softeners
p1171
I1585
sVCountersink Bits|Drill Bits
p1172
I1422
sVChest Combos|Tool Chests
p1173
I1389
sVPump Hoses|Pump Accessories
p1174
I659
sVPaint Thinner, Solvents & Cleaners|Paint Thinner, Additives, Solvents & Cleaners
p1175
I80
sVTillers|Tillers & Cultivators
p1176
I1782
sVSafety Glasses & Sunglasses|Safety Gear
p1177
I615
sVCast Iron Sinks|Kitchen Sinks
p1178
I1376
sVMiter Boxes|Hand Saws & Cutting Tools
p1179
I939
sVOutdoor Shades|Blinds & Window Treatments
p1180
I1127
sVSpecialty Metal Hooks & Eyes|Metal Hooks & Eyes
p1181
I638
sVSwing Arm Lamps|Lamps & Shades
p1182
I1534
sVEngines & Engine Parts|Replacement Engines & Parts
p1183
I966
sVValve Accessories|Valves
p1184
I1181
sVRepair Clamps|Plumbing Accessories
p1185
I163
sVAV Connectors|AV Cables & Connectors
p1186
I997
sVTwist|Carpet
p1187
I1194
sVVehicle Ramps|Automotive Shop Equipment
p1188
I667
sVStack Heads|In-Wall Duct System
p1189
I1669
sVBathroom Hardware & Multi-piece Kits|Bathroom Hardware
p1190
I1204
sVChristmas Stockings & Santa Hats|Indoor Christmas Decorations
p1191
I1557
sVMulti-Animal & Rodent Control Baits & Lures|Multi-Animal & Rodent Control
p1192
I270
sVPull-Down Faucets|Kitchen Faucets
p1193
I777
sVLaundry Pedestals|Washers & Dryers
p1194
I1738
sVToilet Paper Holders|Bathroom Hardware
p1195
I359
sVFirewood|Outdoor Heating
p1196
I379
sVTesters & Install Kits|Vehicle Maintenance
p1197
I1303
sVLeaf Blowers|Outdoor Power Equipment
p1198
I103
sVDrywall Taping & Joint  Knives|Drywall Tools
p1199
I131
sVWater Heater Storage Tanks|Commercial
p1200
I1770
sVSharpening Tools|Power Tool Accessories
p1201
I1760
sVWasps & Hornet Control|Stinging Insect Control
p1202
I71
sVAxes|Axes, Mauls & Hatchets
p1203
I297
sVFilters|Replacement Engines & Parts
p1204
I268
sVSheet Metal Screws|Screws
p1205
I107
sVCollated Finishing Nails|Collated Nails, Screws & Staples
p1206
I924
sVShallow Well Pumps|Well Pumps & Systems
p1207
I1203
sVUmbrellas & Bases|Patio Furniture
p1208
I326
sVShop Lights|Commercial Lighting
p1209
I564
sVCombustible Gas Detectors|Fire Safety
p1210
I1091
sVGas Snow Blowers|Snow Blowers
p1211
I804
sVWood Fence Posts|Wood Fencing
p1212
I1509
sVPole Saws & Pruners|Chainsaws & Accessories
p1213
I857
sVCutting Pliers|Pliers
p1214
I912
sVWelding Helmets|Welding
p1215
I1728
sVSpecialty Nailers|Nail Guns & Collated Tools
p1216
I1859
sVPads & Cushions|Furniture Accessories
p1217
I263
sVBattery Chargers|Batteries, Chargers & Jumper Cables
p1218
I1435
sVBox Nails|Nails
p1219
I373
sVDoor Hinges|Door Knobs & Hardware
p1220
I188
sVApparel Accessories|Workwear & Apparel
p1221
I1063
sVVideo Cables|AV Cables & Connectors
p1222
I1301
sVConstruction Fencing|Fencing
p1223
I1286
sVBrad/Pilot Point Bits|Drill Bits
p1224
I1221
sVThermostat Wire|Wire
p1225
I979
sVDoor Knockers|Door Accessories
p1226
I1482
sVFabric Stain Remover|Laundry
p1227
I710
sVTorches & Tanks|Torches & Soldering Irons
p1228
I569
sVResilient Vinyl Planks|Vinyl Flooring & Resilient Flooring
p1229
I1085
sVTorque Wrenches|Wrenches
p1230
I779
sVDoor Blinds|Door Accessories
p1231
I1395
sVSingle Gas Wall Ovens|Gas Wall Ovens
p1232
I522
sVElectric|Ventilation
p1233
I1279
sVFlat Roof Flashing|Roof Flashing
p1234
I691
sVMop Service Basins|Cleaning Tools
p1235
I612
sVTrash Cans|Trash & Recycling
p1236
I86
sVDrilling Hammers|Hammers
p1237
I1617
sVBi-Fold Doors|Interior & Closet Doors
p1238
I1241
sVFluorescent Bulbs|Light Bulbs
p1239
I15
sVArea Rugs|Area Rugs & Mats
p1240
I542
sVChisels|Chisels, Files & Punches
p1241
I375
sVSmall Appliances|Appliance Parts, Filters & Accessories
p1242
I1792
sVLawn Sweepers|Riding Mower & Tractor Attachments
p1243
I1632
sVConcrete Floats|Concrete Tools
p1244
I908
sVDoor Stops|Door Accessories
p1245
I365
sVKits & Sets|Fasteners
p1246
I983
sVDrop-in & Self Rimming Sinks|Bathroom Sinks
p1247
I1255
sVConcrete Mixing Tubs & Pans|Concrete Tools
p1248
I673
sVFiles & Guides|Parts & Accessories
p1249
I982
sVSafety Accessories|Safety Gear
p1250
I1366
sVVinyl Tile|Vinyl Flooring & Resilient Flooring
p1251
I921
sVShower Bases & Pans|Showers
p1252
I1568
sVAnimal Traps & Cages|Bird & Wildlife Supplies
p1253
I819
sVCraft Storage|Storage & Organization\u000a
p1254
I949
sVShrubs & Vines|Garden Plants & Flowers
p1255
I1505
sVWall Cabinets|Bathroom Cabinets & Storage
p1256
I1511
sVPneumatic Staples|Collated Nails, Screws & Staples
p1257
I980
sVJam Nuts|Nuts
p1258
I649
sVFolding Door Locks|Door Locks & Deadbolts
p1259
I1668
sVRags & Cloths|Rags & Wipes
p1260
I242
sVHole Saws|Hole Saws & Arbors
p1261
I26
sVAir Freshener Spray|Air Fresheners
p1262
I404
sVRope Hammocks|Hammocks & Swings
p1263
I1508
sVDoor Bells with Video or Strobe|Alerting Systems
p1264
I1660
sVCasters|Furniture Accessories
p1265
I490
sVPolycarbonate Sheets|Plastic Sheets
p1266
I1078
sVSpindle Sanders|Sanders
p1267
I1575
sVSupply Lines|Shut-off Valves & Supply Lines
p1268
I84
sVBathroom Shelving|Bathroom Cabinets & Storage
p1269
I280
sVVinyl|Lattice
p1270
I483
sVTire Sealants|Tires & Tire Care
p1271
I821
sVTable Saws|Saws
p1272
I1151
sVAccessories|Extension Cords
p1273
I452
sVPump Alarms & Gauges|Pump Accessories
p1274
I1043
sVS-Hooks|Metal Hooks & Eyes
p1275
I680
sVPantryware|Cooking & Food Preparation
p1276
I1688
sVHDMI Cables|AV Cables & Connectors
p1277
I603
sVBuilt-In Dishwashers|Dishwashers
p1278
I922
sVDrywall Panels|Drywall
p1279
I129
sVArtificial Garland|Christmas Garland
p1280
I1261
sVDoors Without Glass|Steel Doors
p1281
I883
sVWood Closet Organizers|Closet Organizers
p1282
I267
sVCabinet Door Storage|Cabinet Organizers
p1283
I829
sVGlobes & Shades|Ceiling Lighting Accessories
p1284
I257
sVChain Link Fence Accessories|Chain Link Fencing
p1285
I760
sVDrywall Mud Pans|Drywall Tools
p1286
I864
sVGarbage Disposals|Appliances\u000a
p1287
I474
sVOutdoor Fireplaces|Outdoor Heating
p1288
I1113
sVBushings|Fittings
p1289
I708
sVSingle Electric Wall Ovens|Electric Wall Ovens
p1290
I1448
sVChicken Wire|Fencing
p1291
I543
sVCap Nuts|Nuts
p1292
I1014
sVAccents, Borders & Trims|Porcelain Tile
p1293
I851
sVFire Ant Control|Outdoor Insect Control
p1294
I254
sVHasps|Door Accessories
p1295
I195
sVFaucet Balls|Faucet Parts & Repair
p1296
I1198
sVFront Load Washers|Washers
p1297
I1555
sVThrough the Wall Air Conditioners|Air Conditioners
p1298
I1239
sVDriving Bits|Drill Bits
p1299
I232
sVFuel|Fireplace & Hearth
p1300
I380
sVTowing Lights & Wiring|Towing Accessories
p1301
I1543
sVEmergency & Exit Lights|Commercial Lighting
p1302
I415
sVWater Meter Keys|Plumbing Tools
p1303
I889
sVHandheld Carpet Cleaners|Carpet Cleaners
p1304
I1725
sVSink Maintenance & Accessories|Bathroom Sinks
p1305
I1356
sVSoldering Irons|Torches & Soldering Irons
p1306
I1087
sVTop Freezer Refrigerators|Refrigerators
p1307
I1287
sVWindow Boxes|Pots & Planters
p1308
I504
sVRetaining Rings|Vehicle Parts
p1309
I1850
sVLava Rocks & Briquettes|Grill Replacement Parts
p1310
I685
sVPhone & Data Wall Plates|Wall Plates
p1311
I1006
sVRacks & Plastic Bins|Tool Storage
p1312
I1283
sVCabinet Backplates|Cabinet & Furniture Hardware
p1313
I1865
sVPicture Frames|Wall Decor
p1314
I1188
sVFaucet Mounted Filters|Water Dispensers & Filters
p1315
I135
sVCultivators|Tillers & Cultivators
p1316
I1017
sVBath & Shower Chairs|Bathroom Safety & Accessibility
p1317
I1196
sVNovelty Lamps|Lamps & Shades
p1318
I1455
sVFoot Stops|Personal Care & Accessories
p1319
I1831
sVColor Posters & Paint Samples|Paint Colors & Paint Samples
p1320
I688
sVRoses|Garden Plants & Flowers
p1321
I1857
sVConcrete Brushes|Concrete Tools
p1322
I299
sVJoist Hangers|Builders Hardware
p1323
I260
sVVertical & Wall Planters|Pots & Planters
p1324
I1666
sVLubes|Fish Tapes & Lubes
p1325
I1084
sVBlower Fans|Portable Fans
p1326
I1365
sVSiding Vents|Siding
p1327
I1776
sVGrab Bars|Bathroom Safety & Accessibility
p1328
I771
sVBidet Seats|Toilet & Bidet Seats
p1329
I1809
sVIrrigation Parts|Watering & Irrigation
p1330
I369
sVStrike Plates|Door Accessories
p1331
I172
sVHubs|Load Centers
p1332
I1158
sVGutters|Gutters & Accessories
p1333
I546
sVOther Bathroom Accessories|Bathroom Accessories
p1334
I754
sVMold & Mildew Removers|Cleaners
p1335
I426
sVDoor Screens|Pre-framed Screens
p1336
I1378
sVKnife Sets|Hand Tool Sets
p1337
I827
sVBike Storage|Biking
p1338
I1796
sVGas Cans|Replacement Engines & Parts
p1339
I525
sVConcrete Trowels|Concrete Tools
p1340
I121
sVStep Bits|Drill Bits
p1341
I1649
sVOscillating Sprinklers|Lawn Sprinklers
p1342
I458
sVRotary Tool Accessories|Power Tool Accessories
p1343
I272
sVRotary Drills|Drills
p1344
I1605
sVHalloween Yard Decor|Outdoor Halloween Decorations
p1345
I1614
sVRailing Planters|Pots & Planters
p1346
I1514
sVLineman's|Pliers
p1347
I342
sVHeater Accessories|Heaters
p1348
I1108
sVBathroom Etageres & Space Savers|Bathroom Cabinets & Storage
p1349
I1561
sVEdging|Landscaping
p1350
I493
sVDies|Taps & Dies
p1351
I1820
sVDrill Presses|Woodworking Tools
p1352
I1115
sVRight Angle Drills|Drills
p1353
I1323
sVLever Handlesets|Handlesets
p1354
I424
sVSoils|Soil & Soil Amendments
p1355
I56
sVOutdoor Storage|Sheds, Garages & Outdoor Storage
p1356
I1306
sVIsland Range Hoods|Range Hoods
p1357
I1876
sVPost Lighting|Outdoor Lighting
p1358
I547
sVSeaming Irons & Rollers|Carpet Tools & Accessories
p1359
I1606
sVSmoker & Charcoal Boxes|Accessories
p1360
I1111
sVWriting Utensils|Marking & Layout tools
p1361
I75
sVEntry Door Knobs|Door Knobs
p1362
I233
sVHarnesses|Safety Gear
p1363
I1780
sVOther Outdoor Insect Control|Outdoor Insect Control
p1364
I1275
sVPlanter Caddies|Planter Accessories
p1365
I875
sVGenerator Cords|Extension Cords
p1366
I1432
sVAccessories|Tents & Shelters
p1367
I1653
sVDouble Handle|Bar Faucets
p1368
I1434
sVNon-Programmable Thermostats|Thermostats
p1369
I427
sVFaucet Valves|Valves
p1370
I1369
sVHome Improvement How-To|Books
p1371
I1347
sVInstallation Tools|Laminate Floor Maintenance & Tools
p1372
I795
sVPellet Stoves|Freestanding Stoves
p1373
I1867
sVProfessional & Industrial Tool Sets|Hand Tool Sets
p1374
I1589
sVPlugs|Fittings
p1375
I321
sVGarden Hand Tools|Gardening Tools
p1376
I304
sVPower Inlets|Transfer Switches & Kits
p1377
I1529
sVHex Bolts|Bolts
p1378
I196
sVPlanter Saucers|Planter Accessories
p1379
I237
sVTimers, Thermometers & Food Scales|Kitchen Tools and Gadgets
p1380
I1702
sVVoice & Data Cable|Wire
p1381
I1351
sVMops|Cleaning Tools & Supplies
p1382
I765
sVCarpet Staplers|Carpet Tools & Accessories
p1383
I1623
sVBookcases & Shelves|Home Office Furniture
p1384
I1732
sVTool Belts|Tool Storage
p1385
I436
sVTest Strips|Pool Chemicals
p1386
I1650
sVCollated Screws|Collated Nails, Screws & Staples
p1387
I1744
sVPins, Rings & Clips|Fasteners
p1388
I320
sVConcrete Specialty Tools|Concrete Tools
p1389
I1101
sVConcrete Setting Tools|Concrete Tools
p1390
I1729
sVDesks & Hutches|Home Office Furniture
p1391
I1377
sVShirts|Apparel
p1392
I1797
sVOrganic Weed Killer|Organic Lawn Care
p1393
I1118
sVIndoor Multi-Insect Control|Indoor Insect Control
p1394
I514
sVToilets|Toilets, Toilet Seats & Bidets
p1395
I360
sVStair Fittings|Exterior Stair Parts
p1396
I1637
sVTrack Connectors|Track Lighting
p1397
I1137
sV3 Pole|Circuit Breakers
p1398
I1824
sVStakes & Risers|Drip Irrigation Tools & Accessories
p1399
I947
sVStorage Bins, Cubes & Totes|Storage & Organization\u000a
p1400
I60
sVTemporary Power Distribution|Metering & Temporary Power
p1401
I1536
sVStorm & Hurricane Protection|Exterior Shutters
p1402
I1607
sVAprons & Mitts|Cooking Accessories
p1403
I1071
sVStems|Cartridges & Stems
p1404
I274
sVEdgers|Trimmers & Edgers
p1405
I1073
sVIcicle Lights|Christmas Lights
p1406
I1169
sVPlant & Flower Insect Control|Plant Insect Control
p1407
I205
sVConcrete Blocks & Bricks|Concrete, Cement & Masonry
p1408
I376
sVPowder Actuated Tools|Powder Actuated Tools & Accessories
p1409
I1581
sVBattery Back-up Sump Systems|Sump Pumps
p1410
I1215
sVLandscape Accessories|Landscaping
p1411
I498
sVChain Link Fence Gates|Chain Link Fencing
p1412
I1254
sVSeating Sets|Patio Furniture
p1413
I727
sVBaskets & Boxes|Home Accents
p1414
I1835
sVStainless Sinks|Kitchen Sinks
p1415
I768
sVButton Drippers|Drip Irrigation Emitters
p1416
I940
sVFixed Skylights|Skylights
p1417
I1031
sVGas Fireplace Logs|Fireplace Logs
p1418
I1677
sVSingle Hole Sink Faucets|Sink Faucets
p1419
I170
sVNon-slip Mats & Treads|Bathroom Safety & Accessibility
p1420
I1500
sVFence Toppers|Wood Fencing
p1421
I1407
sVConvertible Jet Pumps|Well Pumps & Systems
p1422
I1524
sVDrywall Steel Studs & Framing|Drywall
p1423
I1573
sVPower Strips & Multi-Outlet Converters|Extension Cords & Surge Protectors
p1424
I207
sVPump Well Caps & Basins|Pump Accessories
p1425
I1525
sVMetal|Sheds
p1426
I1348
sVGauges|Measuring Tools
p1427
I1040
sVCorner Braces|Builders Hardware
p1428
I187
sVFiberglass|Insulation
p1429
I799
sVWorkbenches|Tool Storage
p1430
I1311
sVElectrostatic Air Filters|Air Filters
p1431
I11
sVPatio Furniture Covers|Patio Furniture
p1432
I1176
sVPaint Roller Covers|Paint Rollers
p1433
I105
sVPattern|Carpet
p1434
I1470
sVSockets|Ratchets & Sockets
p1435
I566
sVLong Nose|Pliers
p1436
I1339
sVAppliance, Tub & Tile Paint|Interior Paint & Stain
p1437
I95
sVTransfer Utility Pumps|Utility Pumps
p1438
I1616
sVPropane Tanks|Accessories
p1439
I1004
sVWindow Flashing|Door & Window Flashing
p1440
I1720
sVMauls|Striking Tools
p1441
I1104
sVAir Sanders & Polishers|Air Tools
p1442
I1777
sVPatio Doors|Doors
p1443
I1657
sVNon-slip Bath Mats|Bath
p1444
I1259
sVBending/Forming|Plumbing Tools
p1445
I1456
sVArea Lights|Commercial Lighting
p1446
I247
sVPool Stain Chemicals|Pool Chemicals
p1447
I1338
sVBrooms|Cleaning Tools & Supplies
p1448
I538
sVAccessories & Kits|Laminate Floor Maintenance & Tools
p1449
I791
sVNetwork Tools & Testers|Computer Networking
p1450
I1620
sVLadder Accessories|Ladders
p1451
I1243
sVElectrical Tool Accessories|Electrical Tools & Accessories
p1452
I890
sVTile Scrapers|Tile Tools & Accessories
p1453
I435
sVValves|Tub and Shower Parts & Repair
p1454
I1816
sVAir Fresheners|Cleaning Supplies
p1455
I112
sVSolid Hardwood|Wood Flooring
p1456
I1600
sVPlanes|Hand Saws & Cutting Tools
p1457
I1282
sVOutlets & Receptacles|Dimmers, Switches & Outlets
p1458
I202
sVCat Doors|Pet Doors
p1459
I539
sVPush to Connect Fittings|Drip Irrigation Fittings
p1460
I43
sVCarpet Tape|Carpet Tape & Adhesives
p1461
I793
sVLighting Accessories & Changers|Light Bulbs
p1462
I913
sVPull Out Trash Cans|Kitchen Storage & Organization
p1463
I1295
sVDust Pans|Cleaning Tools & Supplies
p1464
I554
sVVinyl Fence Gates|Vinyl Fencing
p1465
I1706
sVLock Nuts|Nuts
p1466
I679
sVTile Sealers|Tile Care & Maintenance
p1467
I399
sVVCT Tile|Vinyl Flooring & Resilient Flooring
p1468
I1517
sVStock Signs|Signs, Letters & Numbers
p1469
I664
sVPlaners & Joiners|Woodworking Tools
p1470
I1464
sVPump Valves|Pump Accessories
p1471
I1079
sVSpreaders|Lawn Care
p1472
I434
sVCeiling Installation Tools|Ceiling Tile Tools & Accessories
p1473
I1093
sVKey & Portable Safes|Safes
p1474
I1051
sVHand Saws|Hand Saws & Cutting Tools
p1475
I422
sVLawn Insect Control|Lawn Care
p1476
I149
sVBack Supports|Safety Gear
p1477
I1462
sVWater Filters & Cartridges|Water Dispensers & Filters
p1478
I668
sVElectrical Test Meters|Electrical Tools & Accessories
p1479
I192
sVCookware|Cooking Accessories
p1480
I1064
sVSpecialty Lights|Christmas Lights
p1481
I1413
sVPaint Additives|Paint Thinner, Additives, Solvents & Cleaners
p1482
I1048
sVEntry Door Levers|Door Levers
p1483
I602
sVRoofing Sealants|Roof Coatings
p1484
I166
sVGarage Door Hardware|Hardware
p1485
I1173
sVOrganic Flower Seeds|Organic Seeds
p1486
I1217
sVFire & Security Safes|Safes
p1487
I952
sVHanging Mirrors|Bathroom Mirrors
p1488
I341
sVDesk Cable Management|Cable Management
p1489
I1314
sVChaise Lounges|Patio Furniture
p1490
I1154
sVReciprocating Saw Blades|Saw Blades
p1491
I562
sVDining Sets|Dining Sets
p1492
I1059
sVGrounding Bars|Load Centers
p1493
I831
sVCeiling Paint|Interior Paint & Stain
p1494
I249
sVPump Adapters & Fittings|Pump Accessories
p1495
I658
sVFoundation Vents|Gable Vents & Static Ventilation
p1496
I1211
sVDesk Lamps|Lamps & Shades
p1497
I1270
sVJigs|Hand Saws & Cutting Tools
p1498
I1438
sVPlastic Pipe & Tubing|Pipes & Fittings
p1499
I1381
sVDishwasher|Dishwashers & Disposers
p1500
I334
sVNight Lights|Accent & Decorative Lighting
p1501
I702
sVMail Slots|Mailboxes & Mailbox Posts
p1502
I1804
sVCutting|Pliers
p1503
I1001
sVWasher|Washers & Dryers
p1504
I87
sVDouble Oven Electric Ranges|Electric Ranges
p1505
I1877
sVIce Maker Valves|Valves
p1506
I1598
sVPruning Saws|Shears & Pruning Tools
p1507
I322
sVSauna Accessories|Saunas
p1508
I1584
sVDoor Hardware Combo Packs|Door Knobs & Hardware
p1509
I127
sVHose Reels & Storage|Watering & Irrigation
p1510
I27
sVTransfer Switches|Generator Accessories
p1511
I1712
sVScrew Covers & Protectors|Screws
p1512
I1174
sVElongated Toilet Seats|Toilet & Bidet Seats
p1513
I338
sVBrackets|Decorative Shelving & Brackets
p1514
I468
sVPlungers|Drain Openers
p1515
I459
sVBench & Stationary Tool Accessories|Woodworking Tool Accessories
p1516
I1596
sVMechanics Tool Sets|Hand Tool Sets
p1517
I343
sVScrew Guns|Drills
p1518
I92
sVRegister Boxes|Ducting & Venting
p1519
I660
sVPond Pumps|Water Garden Pumps
p1520
I1450
sVBar Stools|Kitchen & Dining Furniture
p1521
I865
sVJumper Cables|Batteries, Chargers & Jumper Cables
p1522
I1122
sVPaint Sprayer Accessories|Paint Sprayers
p1523
I613
sVPhillips-Head Screwdrivers|Screwdrivers
p1524
I695
sVEdgers|Gardening Tools
p1525
I1425
sVHandle Ties|Load Centers
p1526
I1747
sVBaskets|Pots & Planters
p1527
I866
sVCoaxial Wire|Wire
p1528
I633
sVCaps|Caps & Bases
p1529
I803
sVMetal Roofing|Roofing
p1530
I1825
sVRange Hood|Cooking
p1531
I844
sVRefrigerator Water Filters|Appliance Parts, Filters & Accessories
p1532
I44
sVTelephone Cables|Phones
p1533
I1010
sVToilet Bolt Caps|Toilet Parts & Repair
p1534
I401
sVRepair & Installation Kits|Sink Parts & Repair
p1535
I271
sVDrywall Sanders|Drywall Tools
p1536
I752
sVPaint Roller Extension Poles|Paint Rollers
p1537
I264
sVStops, Drains & Drain Plugs|Plumbing\u000a
p1538
I275
sVGarden Hoses|Watering & Irrigation
p1539
I19
sVSmokers & Fryers|Grills & Grill Accessories
p1540
I973
sVComposite Siding|Siding
p1541
I1142
sVPressure Washer Accessories|Pressure Washers
p1542
I1021
sVUnbound Remnants|Carpet
p1543
I1066
sVDoor Viewers|Door Security
p1544
I1294
sVMemo Boards|Wall Decor
p1545
I1213
sVSliding Windows|Windows
p1546
I1008
sVHalloween Inflatables|Outdoor Halloween Decorations
p1547
I1704
sVFreezerless Refrigerators|Refrigerators
p1548
I1749
sVMouse & Rat Bait|Mouse & Rat Control
p1549
I152
sVSiding Tools & Hardware|Siding
p1550
I1308
sVLighting Controls|Dimmers, Switches & Outlets
p1551
I783
sVChainsaws|Chainsaws & Accessories
p1552
I724
sVShower Faucets|Tub & Shower Faucets
p1553
I292
sVThermometers & Weather Stations|Outdoor Decor
p1554
I357
sVDrywall Joint Tape|Drywall
p1555
I190
sVSingle Oven Gas Ranges|Gas Ranges
p1556
I1658
sVDeck & Patio Restoration|Paint\u000a
p1557
I491
sVTies|Staples, Ties & Tubing
p1558
I358
sVFence Gate Accessories|Fencing Parts & Accessories
p1559
I935
sVDouble Electric Wall Ovens|Electric Wall Ovens
p1560
I1815
sVBlank Wall Plates|Wall Plates
p1561
I714
sVHandrails & Guards|Child Safety
p1562
I1608
sVGrid Kits|Ceiling Grids
p1563
I1879
sVBuckets & Mop Pails|Cleaning Tools & Supplies
p1564
I987
sVWater Pitcher Filtration Systems|Water Dispensers & Filters
p1565
I1631
sVScreen Doors|Doors
p1566
I387
sVBell Buttons & Wall Plates|Door Bells
p1567
I642
sVRoof Panels|Roofing
p1568
I1032
sVBarb Fittings|Drip Irrigation Fittings
p1569
I998
sVPorcelain Wall Tile|Porcelain Tile
p1570
I1682
sVCollated Siding Nails|Collated Nails, Screws & Staples
p1571
I1655
sVAcrylic Sheets|Plastic Sheets
p1572
I600
sVOutdoor Power Batteries & Chargers|Replacement Engines & Parts
p1573
I1861
sVStructured Media Accessories|Structured Media
p1574
I1609
sVUSB Wireless Adapters|Computer Networking
p1575
I1750
sVElectric Fireplaces|Fireplaces
p1576
I1056
sVDetail Sanding Sheets|Sanding
p1577
I125
sVTile Spacers|Tile Tools & Accessories
p1578
I400
sVCharcoal & Wood|Accessories
p1579
I6
sVOther Mower Attachments|Riding Mower & Tractor Attachments
p1580
I1822
sVSpecialty Nails|Nails
p1581
I461
sVCaps & Index Buttons|Faucet Parts & Repair
p1582
I842
sVSconces|Sconces & Vanity Lighting
p1583
I501
sVFuel Cells|Air Compressor Parts & Accessories
p1584
I1263
sVScreen Door Closers|Screen & Storm Door Hardware
p1585
I1775
sVSponges & Scouring Pads|Cleaning Tools & Supplies
p1586
I462
sVMetal Fence Posts|Metal Fencing
p1587
I1171
sVDrywall Repair Kits|Drywall
p1588
I455
sVKnee Kickers|Carpet Tools & Accessories
p1589
I1264
sVDog Doors|Pet Doors
p1590
I1002
sVDrip Edge|Roof Flashing
p1591
I951
sVMain Breaker Load Centers|Load Centers
p1592
I1159
sVDouble Handle Faucets|Kitchen Faucets
p1593
I393
sVDoor Frames|Door Accessories
p1594
I1592
sVSafe Accessories|Safes
p1595
I1604
sVOther Grilling Accessories|Cooking Accessories
p1596
I1038
sVChristmas Ribbon|Indoor Christmas Decorations
p1597
I1189
sVScroll Saw Blades|Saw Blades
p1598
I1699
sVGarage Door Openers|Garage Doors, Openers & Accessories
p1599
I1003
sVTile Saws, Cutters & Accessories|Tile Tools & Tile Set
p1600
I277
sVBelt Sanders|Sanders
p1601
I1100
sVRooftop Venting|Ducting & Venting
p1602
I1317
sVMixers|Tile Tools & Accessories
p1603
I1858
sVHand Soap & Sanitizer|Cleaners
p1604
I558
sVWhirlpool Aprons|Whirlpool Parts & Accessories
p1605
I1731
sVPressure Compensating Drippers|Drip Irrigation Emitters
p1606
I1000
sVAV Cables & Connectors|Home Electronics
p1607
I1510
sVChandelier & Candelabra Light Bulbs|Decorative Light Bulbs
p1608
I333
sVAutomatic Drain Valves|Valves
p1609
I1676
sVGarden Fencing|Fencing
p1610
I496
sVSelf Propelled Lawn Mowers|Lawn Mowers
p1611
I527
sVCups|Furniture Accessories
p1612
I472
sVLock Washers|Washer Fasteners
p1613
I516
sVFolding Tables & Chair|Furniture
p1614
I421
sVFlavor Bars|Grill Replacement Parts
p1615
I1162
sVStaples|Staplers & Staples
p1616
I109
sVInsulation|Duct Accessories
p1617
I953
sVBrooms|Cleaning Tools
p1618
I298
sVFiber Cement Siding|Siding
p1619
I1030
sVDoor Lock Accessories|Door Locks & Deadbolts
p1620
I221
sVPunches & Nail Setters|Chisels, Files & Punches
p1621
I241
sVWood Destroying Multi-Insect Control|Wood Destroying Insect Control
p1622
I735
sVSharpening Stones|Hand Saws & Cutting Tools
p1623
I637
sVCarbon Monoxide Alarms|Fire Safety
p1624
I583
sVPond Kits|Ponds & Pond Accessories
p1625
I1371
sVTrailers|Towing, Trailers & Cargo Management
p1626
I1774
sVRock Wool|Insulation
p1627
I1391
sVWind Chimes & Spinners|Outdoor Decor
p1628
I1741
sVRound Toilet Seats|Toilet & Bidet Seats
p1629
I629
sVWiper Blades|Vehicle Maintenance
p1630
I1678
sVRouter Bits|Woodworking Tool Accessories
p1631
I801
sVSpecialty Pliers|Pliers
p1632
I662
sVArtificial Wreaths|Christmas Wreaths
p1633
I852
sVWaterproofing & Sealers|Exterior Paint, Stain & Waterproofing
p1634
I972
sVGarage Door Opener Accessories|Garage Doors, Openers & Accessories
p1635
I1352
sVT-Posts & U-Posts|Fencing
p1636
I1080
sVCaulk & Sealants|Paint\u000a
p1637
I4
sVGrout|Tile Tools & Tile Set
p1638
I141
sVReducers|Transitions & Connectors
p1639
I986
sVLoop|Carpet
p1640
I1469
sVPipe|Copper Pipe & Fittings
p1641
I159
sVWindow Sash Locks|Window Hardware
p1642
I372
sVFrench Doors|Interior & Closet Doors
p1643
I1872
sVOrganic Fruit Seeds|Organic Seeds
p1644
I1696
sVMicrofiber Cloths|Rags & Wipes
p1645
I1767
sVConcrete, Basement & Garage Floor Paint|Paint\u000a
p1646
I610
sVVegetable & Herb Seeds|Seeds & Accessories
p1647
I69
sVElectric Grills|Grills & Grill Accessories
p1648
I1808
sVTow Ropes, Cables & Chains|Towing Accessories
p1649
I705
sVCross|Fittings
p1650
I1403
sVStuds|Framing Lumber & Studs
p1651
I173
sVPlayset Swings|Residential Playset Components
p1652
I1290
sVConcrete Additives|Concrete, Cement & Masonry
p1653
I1131
sVFireplace Accessories|Fireplace & Hearth
p1654
I676
sVTransition Strips|Carpet Tools & Accessories
p1655
I402
sVVelcro|Hook & Loop
p1656
I175
sVStick Vacuums|Vacuums
p1657
I1664
sVWood Fence Pickets|Wood Fencing
p1658
I1047
sVScrew Eyes|Metal Hooks & Eyes
p1659
I442
sVShower Curtain Rings|Shower Curtains, Rods & Accessories
p1660
I862
sVLaundry Storage|Storage & Organization\u000a
p1661
I784
sVPadlocks|Safety & Security
p1662
I236
sVOutdoor Lighting Accessories|Outdoor Lighting
p1663
I396
sVPressure Treated Lumber|Lumber & Composites\u000a
p1664
I918
sVDeer Repellents|Deer Control
p1665
I990
sVAir Purifier|Heating, Cooling & Air Quality
p1666
I899
sVFluid Extractors & Siphons|Automotive Shop Equipment
p1667
I1309
sVDrain Grates|Accessories
p1668
I1102
sVStair Hardware|Fencing Parts & Accessories
p1669
I1166
sVJobsite Radios|Power Tool Accessories
p1670
I1060
sVDrying Sheets|Laundry
p1671
I715
sVChemical Drain Openers|Drain Openers
p1672
I120
sVNatural Gas Water Heaters|Residential Gas
p1673
I1545
sVHousewrap|Insulation
p1674
I885
sVSpeakers|Home Audio
p1675
I1185
sVMetal Fence Pickets|Metal Fencing
p1676
I1817
sVShut-off Valves|Shut-off Valves & Supply Lines
p1677
I1332
sVGrounding Wire|Wire
p1678
I1628
sVAxle Hat Nuts|Nuts
p1679
I1727
sVOne-piece Shower Surrounds|Shower Walls & Surrounds
p1680
I1739
sVDiamond Blades|Saw Blades
p1681
I301
sVUnder Floor Warming|Under Floor Heating
p1682
I1474
sVVacuums|Pool Cleaning Tools
p1683
I1246
sVAngle Grinders|Grinders
p1684
I1258
sVElectric Stoves|Freestanding Stoves
p1685
I1799
sVValve Boxes|Valves
p1686
I1023
sVStep Ladders|Ladders
p1687
I171
sVInterlocking Tile|Garage Flooring
p1688
I1393
sVGlass Cutters|Hand Saws & Cutting Tools
p1689
I1357
sVFoundation Coatings|Concrete, Cement & Masonry
p1690
I194
sVFurniture Accessories|Furniture
p1691
I495
sVGlobe Light Bulbs|Decorative Light Bulbs
p1692
I21
sVSink Installation|Sink Accessories
p1693
I244
sVDoor Seals|Weather Stripping
p1694
I252
sVRegisters & Grilles|HVAC Parts & Accessories
p1695
I433
sVBoat Hardware|Boat Docks & Hardware
p1696
I1201
sVBath Tub & Shower Accessories|Bathroom Accessories & Hardware
p1697
I1374
sVPressure Tanks|Well Pumps & Systems
p1698
I1105
sVWood Paneling|Paneling
p1699
I769
sVArtificial Swag|Christmas Swag
p1700
I1537
sVGopher Lures & Repellents|Gopher Control
p1701
I808
sVDowels|Moulding & Millwork
p1702
I508
sVInspection Cameras|Power Tools
p1703
I1577
sVCFL Light Bulbs|Light Bulbs
p1704
I3
sVPersonal Insect Repellants|Insect & Pest Control
p1705
I561
sVSink Front Trays|Kitchen Storage & Organization
p1706
I1542
sVDrill/Drivers|Drills
p1707
I870
sVTrimmer Combo Kits|Trimmers & Edgers
p1708
I68
sVStationary Band Saws|Saws
p1709
I1571
sVUnder Cabinet Lights|Lighting & Ceiling Fans\u000a
p1710
I549
sVPicture Lights|Accent & Decorative Lighting
p1711
I1711
sVPVC DWV Pipe|PVC Pipe & Fittings
p1712
I1430
sVCarpet Protector|Carpet Tools & Accessories
p1713
I1187
sVTankless Electric|Water Heaters
p1714
I1851
sVFountain Spray Heads|Ponds & Pond Accessories
p1715
I1423
sVLamp Sets|Lamps & Shades
p1716
I1540
sVPath Lights & Yard Stakes|Outdoor Christmas Decorations
p1717
I1192
sVChandeliers|Chandeliers & Pendants
p1718
I1027
sVDrawer & Shelf Liners|Kitchen Storage & Organization
p1719
I337
sVGate Opener Remotes|Gate Openers
p1720
I1638
sVWrenches|Plumbing Tools
p1721
I330
sVTabletop Decor|Home Accents
p1722
I465
sVGazebos & Pergolas|Yard Structures & Shade
p1723
I1523
sVRoofing Accessories|Roofing
p1724
I786
sVHome Alarm Systems|Security Systems
p1725
I1054
sVHandrails|Interior Stair Parts
p1726
I926
sVTemperature Gauges|Grill Replacement Parts
p1727
I1227
sVElevated Toilet Seats|Bathroom Safety & Accessibility
p1728
I1572
sVTexture|Carpet
p1729
I1603
sVMulti-Animal & Rodent Control Repellents|Multi-Animal & Rodent Control
p1730
I694
sVFlashlights|Flashlights & Accessories
p1731
I137
sVAwls|Hand Saws & Cutting Tools
p1732
I1483
sVChristmas Village|Home Accents
p1733
I1472
sVHammer Drills|Concrete Drilling Tools
p1734
I1018
sVPush Lawn Mowers|Lawn Mowers
p1735
I447
sVTV Wall Mounts|AV Accessories
p1736
I958
sVPortable Air Conditioners|Air Conditioners
p1737
I446
sVHard Hats|Safety Gear
p1738
I1533
sVDrum Fans|Portable Fans
p1739
I825
sVMagazines|How-To\u000a
p1740
I1621
sVTop Load Washers|Washers
p1741
I1406
sVUnderlayments|Tools & Maintenance
p1742
I758
sVPool Algaecides|Pool Chemicals
p1743
I1453
sVCartridges|Cartridges & Stems
p1744
I592
sVTV Antennas|AV Accessories
p1745
I967
sVNut Driver Sets|Hand Tool Sets
p1746
I1449
sVFlower Seeds|Seeds & Accessories
p1747
I540
sVSecurity Cameras|Safety & Security
p1748
I1421
sVMortars|Tile Setting
p1749
I395
sVPond Liners|Ponds & Pond Accessories
p1750
I1349
sVIsland & Billiard Lights|Chandeliers & Pendants
p1751
I1461
sVGift Giving|Gift Giving
p1752
I1811
sVFlashing|Accessories
p1753
I1788
sVAppliances|Home & Entertainment
p1754
I1787
sVTimers|Dimmers, Switches & Outlets
p1755
I616
sVNight Lights|Light Bulbs
p1756
I929
sVBrad Nailers|Nail Guns & Collated Tools
p1757
I1360
sVWall Jacks|Wall Plates & Jacks
p1758
I813
sVAccessories|Pool Parts
p1759
I792
sVShrub & Tree Disease Control|Plant Disease Control
p1760
I817
sVPins, Locks & Clips|Hitches & Accessories
p1761
I319
sVBand Saw Blade|Saw Blades
p1762
I553
sVGrills|Bath Ventilation Fans
p1763
I1446
sVSewer & Drain|Pipes & Fittings
p1764
I441
sVChairs|Living Room Furniture
p1765
I1224
sVFireplace Screens|Fireplace & Hearth
p1766
I1535
sVCommercial Doors|Doors
p1767
I1839
sVConcrete Edgers|Concrete Tools
p1768
I300
sVCarriage Bolts|Bolts
p1769
I529
sVInfrared Heaters|Electric Heaters
p1770
I1340
sVRoofing Adhesives|Roof Coatings
p1771
I787
sVDrain Cleaning|Plumbing Tools
p1772
I1068
sVNibblers & Shears|Power Tools
p1773
I1821
sVRain Barrels|Watering & Irrigation
p1774
I1411
sVAir Tool Kits|Air Tools
p1775
I1707
sVAir Tool Fittings|Air Compressor Parts & Accessories
p1776
I551
sVFloral Scissors & Snips|Shears & Pruning Tools
p1777
I420
sVComposite Fence Posts|Composite Fencing
p1778
I1072
sVYard Carts|Wheelbarrows & Yard Carts
p1779
I1355
sVTile Adhesives & Mastics|Tile Setting
p1780
I581
sVDouble Basin|Sinks
p1781
I1805
sVPower Tool Battery Chargers|Power Tool Batteries & Chargers
p1782
I500
sVAir Shears|Air Tools
p1783
I1730
sVBoxes & Brackets|Electrical Boxes, Conduit & Fittings
p1784
I117
sVBrushes|Plumbing Tools
p1785
I118
sVUnder Sink Filter Systems|Water Dispensers & Filters
p1786
I1527
sVFire Pits|Outdoor Heating
p1787
I711
sVFencing Systems|Pet Fencing & Training
p1788
I1400
sVHoes|Gardening Tools
p1789
I25
sVCabinet Latches|Cabinet & Furniture Hardware
p1790
I469
sVPlenums & Air Returns|Ducting & Venting
p1791
I1765
sVGrill Mats & Pads|Accessories
p1792
I1020
sVMulti-Bit Screwdrivers|Screwdrivers
p1793
I1109
sVKeys|Keys & Accessories
p1794
I146
sVPunches & Nail Setter Sets|Hand Tool Sets
p1795
I930
sVFlat Roof Materials|Roofing
p1796
I193
sVChicken Coops|Poultry Supplies
p1797
I1175
sVDeck Railing Accessories|Deck Railings
p1798
I1107
sVChalk Reels & Chalk|Marking & Layout tools
p1799
I1082
sVPedestal Fans|Portable Fans
p1800
I560
sVRack Mounting Equipment|Structured Media
p1801
I1810
sVMailbox & Post Combos|Single Family Mailboxes
p1802
I1372
sVKey Accessories|Keys & Accessories
p1803
I31
sVTool Carts|Tool Storage
p1804
I1350
sVTrims|Recessed Lighting
p1805
I841
sVMirror-framing Kits|Bathroom Mirrors
p1806
I1302
sVSwitches|Dimmers, Switches & Outlets
p1807
I276
sVBulb Planters|Gardening Tools
p1808
I963
sVVertical Blinds|Blinds & Window Treatments
p1809
I391
sVCabinet Hardware Templates|Cabinet Accessories
p1810
I723
sVTraps|Traps & Drains
p1811
I362
sVBrush Combs & Cleaners|Paint Brushes
p1812
I409
sVCombination Packs|Flashlights & Accessories
p1813
I1177
sVCollated Flooring Nails|Collated Nails, Screws & Staples
p1814
I1475
sVInstallation & Supply Kits|Toilet Parts & Repair
p1815
I222
sVNozzles & Wands|Watering & Irrigation
p1816
I35
sVMain Lugs|Load Centers
p1817
I985
sVCargo Mats|Floor & Cargo Mats
p1818
I1346
sVBath Tub Doors|Bathtubs & Whirlpools
p1819
I1277
sVTool Accessories|Hand Tools
p1820
I682
sVCompression Fittings|Drip Irrigation Fittings
p1821
I941
sVHose Timers|Sprinkler Timers
p1822
I28
sVDoors Without Glass|Wood Doors
p1823
I1761
sVSkimmers & Rakes|Pool Cleaning Tools
p1824
I1751
sVElectric Fireplace Logs|Fireplace Logs
p1825
I1578
sVFaucet Repair Kits|Faucet Parts & Repair
p1826
I700
sVMole Repellents|Mole Control
p1827
I1399
sVPins|Powder Actuated Tools & Accessories
p1828
I1307
sVJig Saws|Saws
p1829
I796
sVDrip Filters|Drip Water Source Connections
p1830
I1685
sVDeck Railing Balusters & Spindles|Deck Railings
p1831
I250
sVStrip Lights|Commercial Lighting
p1832
I568
sVKits|Bath Ventilation Fans
p1833
I1496
sVRouters|Computer Networking
p1834
I1564
sVSingle Handle|Bar Faucets
p1835
I661
sVSandstone Tile|Natural Stone Tile
p1836
I1681
sVEthernet Cables|Computer Networking
p1837
I416
sVTracks & Rails|Track Lighting
p1838
I1140
sVTub Spouts|Tub and Shower Parts & Repair
p1839
I619
sVAccents, Borders & Trims|Ceramic Tile
p1840
I279
sVTandem Breakers|Circuit Breakers
p1841
I355
sVStorage & File Cabinets|Home Office Furniture
p1842
I1379
sVElectricians Tool Sets|Hand Tool Sets
p1843
I1247
sVMop Service Basins|Cleaning Tools & Supplies
p1844
I1386
sVAddress Plaques|Signs, Letters & Numbers
p1845
I467
sVAV Splitters & Signal Amplifiers|AV Cables & Connectors
p1846
I631
sVCanopies|Yard Structures & Shade
p1847
I911
sVDampers|Duct Accessories
p1848
I1698
sVGrilling Planks|Cooking Accessories
p1849
I1223
sVFloat Valves|Valves
p1850
I1521
sVGarden Tool Sets|Gardening Tools
p1851
I1490
sVAudio & Video Wall Plates|Wall Plates
p1852
I405
sVBeg Bugs &  Flea Control|Indoor Insect Control
p1853
I115
sVBench Grinders|Grinders
p1854
I1364
sVPop Ups|Traps & Drains
p1855
I239
sVOther Stinging Insect Control|Stinging Insect Control
p1856
I1785
sVTotes, Caddies & Pouches|Electrical Tools
p1857
I66
sVSingle Oven Electric Ranges|Electric Ranges
p1858
I1547
sVTrim Kits|Bathroom Faucets
p1859
I756
sVAir Hammers|Air Tools
p1860
I1814
sVWire Closet Organizers|Closet Organizers
p1861
I523
sVDisc & Orbit Sanders|Sanders
p1862
I725
sVFlat Washers|Washer Fasteners
p1863
I419
sVBath Rugs|Area Rugs & Mats
p1864
I1409
sVWood Fence Panels|Wood Fencing
p1865
I1721
sVSaw Horses|Tool Storage
p1866
I47
sVSecurity Doors|Doors
p1867
I886
sVSheathing Plywood|Plywood
p1868
I520
sVCooking Tools & Utensils|Cooking Accessories
p1869
I1016
sVSingle Basin|Sinks
p1870
I1599
sVCoolers|Camping & Hiking
p1871
I1705
sVWall Plate Accessories|Wall Plates & Jacks
p1872
I437
sVPlayset Accessories|Residential Playset Components
p1873
I1587
sVNipples|Fittings
p1874
I154
sVGas Dryers|Dryers
p1875
I1363
sVGrass Shears|Shears & Pruning Tools
p1876
I1075
sVAir Paint Sprayers|Air Tools
p1877
I1694
sVStraps & Hangers|Duct Accessories
p1878
I1370
sVMouse & Rat Repellents|Mouse & Rat Control
p1879
I716
sVZero Turn Riding Mowers|Riding Lawn Mowers
p1880
I1134
sVPortable Tool Boxes|Tool Storage
p1881
I160
sVWheelbarrows|Wheelbarrows & Yard Carts
p1882
I328
sVCabinet Door Locks|Cabinet Accessories
p1883
I1232
sVCaps, Bases & Accessories|Columns & Accessories
p1884
I1768
sVChristmas Yard Decorations|Outdoor Christmas Decorations
p1885
I989
sVPost Caps|Decking
p1886
I482
sVAssorted Bit Sets|Drill Bits
p1887
I331
sVHousehold Batteries|Safety & Security
p1888
I29
ssS'dfs'
p1889
(dp1890
I0
I759
sI1
I4133
sI2
I2007
sI3
I5647
sI4
I7488
sI5
I240
sI6
I1336
sI7
I2016
sI8
I217
sI9
I78
sI10
I331
sI11
I2200
sI12
I131
sI13
I1670
sI14
I2329
sI15
I3166
sI16
I1937
sI17
I203
sI18
I462
sI19
I3481
sI20
I1825
sI21
I1536
sI22
I2384
sI23
I3044
sI24
I603
sI25
I196
sI26
I612
sI27
I1130
sI28
I266
sI29
I6226
sI30
I6054
sI31
I1335
sI32
I1713
sI33
I1679
sI34
I3122
sI35
I3003
sI36
I423
sI37
I7902
sI38
I5238
sI39
I6558
sI40
I4568
sI41
I2978
sI42
I1950
sI43
I31
sI44
I678
sI45
I1190
sI46
I677
sI47
I280
sI48
I1252
sI49
I827
sI50
I72
sI51
I944
sI52
I370
sI53
I168
sI54
I660
sI55
I252
sI56
I6786
sI57
I368
sI58
I296
sI59
I315
sI60
I1926
sI61
I1319
sI62
I4753
sI63
I1665
sI64
I2155
sI65
I828
sI66
I35
sI67
I502
sI68
I10
sI69
I1206
sI70
I7198
sI71
I1610
sI72
I746
sI73
I3857
sI74
I1662
sI75
I1403
sI76
I517
sI77
I1538
sI78
I586
sI79
I1592
sI80
I3269
sI81
I3033
sI82
I2111
sI83
I232
sI84
I2913
sI85
I63
sI86
I1680
sI87
I747
sI88
I664
sI89
I425
sI90
I1441
sI91
I180
sI92
I110
sI93
I152
sI94
I2489
sI95
I417
sI96
I4868
sI97
I672
sI98
I3763
sI99
I1191
sI100
I3611
sI101
I594
sI102
I355
sI103
I892
sI104
I1660
sI105
I6129
sI106
I238
sI107
I2193
sI108
I4109
sI109
I1313
sI110
I1452
sI111
I1688
sI112
I308
sI113
I452
sI114
I899
sI115
I573
sI116
I603
sI117
I2961
sI118
I168
sI119
I1633
sI120
I2356
sI121
I473
sI122
I216
sI123
I947
sI124
I1178
sI125
I1013
sI126
I1258
sI127
I736
sI128
I619
sI129
I1477
sI130
I2871
sI131
I1000
sI132
I9705
sI133
I3298
sI134
I2578
sI135
I109
sI136
I605
sI137
I1215
sI138
I938
sI139
I682
sI140
I597
sI141
I2218
sI142
I1488
sI143
I713
sI144
I2554
sI145
I3176
sI146
I3456
sI147
I1385
sI148
I138
sI149
I1299
sI150
I2047
sI151
I1251
sI152
I634
sI153
I1105
sI154
I1279
sI155
I924
sI156
I186
sI157
I1750
sI158
I379
sI159
I811
sI160
I548
sI161
I654
sI162
I75
sI163
I1858
sI164
I647
sI165
I195
sI166
I675
sI167
I3360
sI168
I320
sI169
I221
sI170
I99
sI171
I553
sI172
I210
sI173
I1934
sI174
I3424
sI175
I924
sI176
I93
sI177
I4204
sI178
I1151
sI179
I29
sI180
I564
sI181
I1082
sI182
I1705
sI183
I399
sI184
I1064
sI185
I681
sI186
I2468
sI187
I1236
sI188
I1816
sI189
I110
sI190
I1114
sI191
I1576
sI192
I622
sI193
I94
sI194
I467
sI195
I565
sI196
I1689
sI197
I2001
sI198
I458
sI199
I171
sI200
I925
sI201
I981
sI202
I3551
sI203
I3073
sI204
I2807
sI205
I568
sI206
I131
sI207
I900
sI208
I1325
sI209
I2271
sI210
I967
sI211
I603
sI212
I37
sI213
I687
sI214
I599
sI215
I2390
sI216
I182
sI217
I225
sI218
I346
sI219
I639
sI220
I132
sI221
I100
sI222
I341
sI223
I3172
sI224
I828
sI225
I912
sI226
I1098
sI227
I3609
sI228
I538
sI229
I577
sI230
I996
sI231
I690
sI232
I1870
sI233
I1717
sI234
I215
sI235
I175
sI236
I1495
sI237
I2049
sI238
I325
sI239
I570
sI240
I729
sI241
I202
sI242
I1001
sI243
I359
sI244
I332
sI245
I64
sI246
I1917
sI247
I270
sI248
I229
sI249
I959
sI250
I294
sI251
I573
sI252
I219
sI253
I55
sI254
I494
sI255
I1823
sI256
I199
sI257
I587
sI258
I250
sI259
I1001
sI260
I1155
sI261
I2387
sI262
I914
sI263
I1806
sI264
I759
sI265
I647
sI266
I779
sI267
I1175
sI268
I792
sI269
I896
sI270
I534
sI271
I1146
sI272
I771
sI273
I272
sI274
I205
sI275
I1271
sI276
I2710
sI277
I443
sI278
I759
sI279
I442
sI280
I42
sI281
I362
sI282
I227
sI283
I734
sI284
I265
sI285
I2058
sI286
I54
sI287
I795
sI288
I832
sI289
I74
sI290
I3216
sI291
I239
sI292
I203
sI293
I675
sI294
I2215
sI295
I1153
sI296
I267
sI297
I249
sI298
I752
sI299
I43
sI300
I54
sI301
I236
sI302
I1460
sI303
I98
sI304
I880
sI305
I1280
sI306
I1256
sI307
I918
sI308
I1587
sI309
I1705
sI310
I300
sI311
I1420
sI312
I1665
sI313
I101
sI314
I857
sI315
I265
sI316
I113
sI317
I2568
sI318
I221
sI319
I145
sI320
I298
sI321
I921
sI322
I216
sI323
I745
sI324
I820
sI325
I68
sI326
I169
sI327
I1285
sI328
I330
sI329
I328
sI330
I253
sI331
I498
sI332
I1180
sI333
I2306
sI334
I234
sI335
I994
sI336
I1173
sI337
I804
sI338
I926
sI339
I1972
sI340
I1053
sI341
I479
sI342
I42
sI343
I103
sI344
I276
sI345
I1190
sI346
I187
sI347
I337
sI348
I651
sI349
I331
sI350
I777
sI351
I506
sI352
I506
sI353
I372
sI354
I1031
sI355
I109
sI356
I1302
sI357
I424
sI358
I1642
sI359
I957
sI360
I1061
sI361
I901
sI362
I862
sI363
I1249
sI364
I100
sI365
I1536
sI366
I73
sI367
I574
sI368
I398
sI369
I2043
sI370
I289
sI371
I54
sI372
I249
sI373
I474
sI374
I1780
sI375
I343
sI376
I284
sI377
I943
sI378
I43
sI379
I175
sI380
I530
sI381
I600
sI382
I1424
sI383
I2148
sI384
I1540
sI385
I1251
sI386
I953
sI387
I146
sI388
I1136
sI389
I1240
sI390
I615
sI391
I150
sI392
I1323
sI393
I510
sI394
I1417
sI395
I1071
sI396
I862
sI397
I413
sI398
I1330
sI399
I834
sI400
I651
sI401
I233
sI402
I447
sI403
I45
sI404
I530
sI405
I279
sI406
I1372
sI407
I3215
sI408
I255
sI409
I73
sI410
I1227
sI411
I275
sI412
I699
sI413
I405
sI414
I1120
sI415
I43
sI416
I296
sI417
I407
sI418
I228
sI419
I1800
sI420
I754
sI421
I281
sI422
I1328
sI423
I713
sI424
I184
sI425
I261
sI426
I1022
sI427
I242
sI428
I417
sI429
I158
sI430
I610
sI431
I1826
sI432
I402
sI433
I1611
sI434
I617
sI435
I169
sI436
I354
sI437
I92
sI438
I341
sI439
I669
sI440
I131
sI441
I1069
sI442
I1571
sI443
I1219
sI444
I1245
sI445
I1876
sI446
I175
sI447
I210
sI448
I673
sI449
I497
sI450
I671
sI451
I236
sI452
I235
sI453
I277
sI454
I1176
sI455
I1041
sI456
I990
sI457
I209
sI458
I665
sI459
I742
sI460
I885
sI461
I405
sI462
I2495
sI463
I360
sI464
I665
sI465
I169
sI466
I79
sI467
I150
sI468
I1738
sI469
I473
sI470
I725
sI471
I1723
sI472
I493
sI473
I218
sI474
I837
sI475
I434
sI476
I1896
sI477
I154
sI478
I1264
sI479
I9
sI480
I279
sI481
I216
sI482
I367
sI483
I239
sI484
I738
sI485
I405
sI486
I823
sI487
I219
sI488
I132
sI489
I95
sI490
I568
sI491
I395
sI492
I732
sI493
I883
sI494
I67
sI495
I42
sI496
I471
sI497
I68
sI498
I918
sI499
I674
sI500
I291
sI501
I431
sI502
I278
sI503
I835
sI504
I231
sI505
I421
sI506
I1151
sI507
I593
sI508
I1066
sI509
I295
sI510
I1650
sI511
I462
sI512
I13
sI513
I509
sI514
I1297
sI515
I711
sI516
I1001
sI517
I49
sI518
I17
sI519
I136
sI520
I853
sI521
I163
sI522
I1
sI523
I2358
sI524
I104
sI525
I923
sI526
I1243
sI527
I451
sI528
I413
sI529
I923
sI530
I298
sI531
I371
sI532
I2074
sI533
I2092
sI534
I307
sI535
I692
sI536
I428
sI537
I46
sI538
I363
sI539
I57
sI540
I787
sI541
I1892
sI542
I835
sI543
I218
sI544
I129
sI545
I62
sI546
I447
sI547
I88
sI548
I537
sI549
I695
sI550
I113
sI551
I441
sI552
I27
sI553
I45
sI554
I458
sI555
I120
sI556
I874
sI557
I331
sI558
I288
sI559
I140
sI560
I214
sI561
I403
sI562
I1068
sI563
I184
sI564
I366
sI565
I342
sI566
I216
sI567
I545
sI568
I375
sI569
I458
sI570
I278
sI571
I40
sI572
I1133
sI573
I411
sI574
I181
sI575
I265
sI576
I605
sI577
I212
sI578
I326
sI579
I407
sI580
I958
sI581
I1041
sI582
I167
sI583
I692
sI584
I646
sI585
I171
sI586
I136
sI587
I329
sI588
I592
sI589
I1125
sI590
I647
sI591
I259
sI592
I278
sI593
I1042
sI594
I201
sI595
I593
sI596
I38
sI597
I105
sI598
I522
sI599
I275
sI600
I334
sI601
I70
sI602
I379
sI603
I354
sI604
I1020
sI605
I51
sI606
I153
sI607
I192
sI608
I50
sI609
I145
sI610
I367
sI611
I11
sI612
I103
sI613
I309
sI614
I1994
sI615
I811
sI616
I678
sI617
I389
sI618
I1905
sI619
I311
sI620
I174
sI621
I463
sI622
I196
sI623
I806
sI624
I163
sI625
I536
sI626
I348
sI627
I22
sI628
I586
sI629
I1430
sI630
I300
sI631
I252
sI632
I653
sI633
I198
sI634
I644
sI635
I937
sI636
I769
sI637
I69
sI638
I367
sI639
I469
sI640
I265
sI641
I570
sI642
I435
sI643
I83
sI644
I48
sI645
I201
sI646
I867
sI647
I91
sI648
I168
sI649
I88
sI650
I174
sI651
I18
sI652
I176
sI653
I54
sI654
I258
sI655
I614
sI656
I568
sI657
I346
sI658
I29
sI659
I89
sI660
I84
sI661
I42
sI662
I359
sI663
I123
sI664
I736
sI665
I2137
sI666
I53
sI667
I25
sI668
I780
sI669
I478
sI670
I31
sI671
I36
sI672
I1063
sI673
I270
sI674
I744
sI675
I1355
sI676
I43
sI677
I327
sI678
I65
sI679
I424
sI680
I408
sI681
I83
sI682
I160
sI683
I167
sI684
I283
sI685
I63
sI686
I228
sI687
I373
sI688
I43
sI689
I8
sI690
I280
sI691
I131
sI692
I69
sI693
I159
sI694
I613
sI695
I146
sI696
I1139
sI697
I53
sI698
I101
sI699
I577
sI700
I135
sI701
I399
sI702
I467
sI703
I155
sI704
I122
sI705
I7
sI706
I143
sI707
I409
sI708
I949
sI709
I188
sI710
I171
sI711
I200
sI712
I122
sI713
I611
sI714
I935
sI715
I209
sI716
I91
sI717
I152
sI718
I20
sI719
I18
sI720
I65
sI721
I133
sI722
I245
sI723
I82
sI724
I348
sI725
I225
sI726
I462
sI727
I15
sI728
I624
sI729
I96
sI730
I289
sI731
I1078
sI732
I166
sI733
I97
sI734
I40
sI735
I275
sI736
I150
sI737
I129
sI738
I217
sI739
I257
sI740
I149
sI741
I361
sI742
I708
sI743
I336
sI744
I216
sI745
I170
sI746
I36
sI747
I294
sI748
I296
sI749
I94
sI750
I23
sI751
I338
sI752
I111
sI753
I238
sI754
I123
sI755
I542
sI756
I187
sI757
I171
sI758
I629
sI759
I632
sI760
I400
sI761
I84
sI762
I341
sI763
I591
sI764
I189
sI765
I335
sI766
I563
sI767
I361
sI768
I298
sI769
I179
sI770
I455
sI771
I314
sI772
I128
sI773
I375
sI774
I159
sI775
I117
sI776
I176
sI777
I484
sI778
I148
sI779
I12
sI780
I472
sI781
I190
sI782
I195
sI783
I24
sI784
I243
sI785
I102
sI786
I232
sI787
I65
sI788
I46
sI789
I155
sI790
I366
sI791
I77
sI792
I35
sI793
I344
sI794
I41
sI795
I187
sI796
I247
sI797
I326
sI798
I248
sI799
I1106
sI800
I311
sI801
I193
sI802
I40
sI803
I84
sI804
I74
sI805
I157
sI806
I125
sI807
I510
sI808
I71
sI809
I239
sI810
I539
sI811
I7
sI812
I215
sI813
I236
sI814
I191
sI815
I53
sI816
I122
sI817
I191
sI818
I413
sI819
I191
sI820
I324
sI821
I47
sI822
I352
sI823
I134
sI824
I209
sI825
I39
sI826
I329
sI827
I151
sI828
I304
sI829
I75
sI830
I131
sI831
I102
sI832
I17
sI833
I136
sI834
I215
sI835
I284
sI836
I83
sI837
I164
sI838
I290
sI839
I7
sI840
I77
sI841
I448
sI842
I44
sI843
I44
sI844
I81
sI845
I119
sI846
I668
sI847
I282
sI848
I64
sI849
I197
sI850
I399
sI851
I152
sI852
I134
sI853
I365
sI854
I45
sI855
I131
sI856
I181
sI857
I58
sI858
I151
sI859
I62
sI860
I126
sI861
I314
sI862
I162
sI863
I61
sI864
I143
sI865
I18
sI866
I366
sI867
I442
sI868
I109
sI869
I246
sI870
I1045
sI871
I83
sI872
I76
sI873
I472
sI874
I375
sI875
I170
sI876
I198
sI877
I26
sI878
I81
sI879
I661
sI880
I60
sI881
I439
sI882
I121
sI883
I77
sI884
I93
sI885
I53
sI886
I113
sI887
I203
sI888
I176
sI889
I88
sI890
I541
sI891
I87
sI892
I69
sI893
I191
sI894
I83
sI895
I180
sI896
I92
sI897
I30
sI898
I149
sI899
I53
sI900
I23
sI901
I164
sI902
I112
sI903
I109
sI904
I44
sI905
I48
sI906
I174
sI907
I302
sI908
I93
sI909
I122
sI910
I12
sI911
I93
sI912
I180
sI913
I183
sI914
I358
sI915
I300
sI916
I253
sI917
I16
sI918
I120
sI919
I179
sI920
I43
sI921
I557
sI922
I130
sI923
I86
sI924
I718
sI925
I17
sI926
I86
sI927
I202
sI928
I244
sI929
I117
sI930
I176
sI931
I33
sI932
I36
sI933
I44
sI934
I147
sI935
I124
sI936
I221
sI937
I142
sI938
I274
sI939
I150
sI940
I112
sI941
I260
sI942
I93
sI943
I412
sI944
I67
sI945
I229
sI946
I36
sI947
I153
sI948
I17
sI949
I28
sI950
I149
sI951
I190
sI952
I47
sI953
I90
sI954
I48
sI955
I287
sI956
I31
sI957
I421
sI958
I116
sI959
I312
sI960
I593
sI961
I156
sI962
I7
sI963
I60
sI964
I188
sI965
I17
sI966
I313
sI967
I81
sI968
I215
sI969
I36
sI970
I68
sI971
I110
sI972
I261
sI973
I157
sI974
I300
sI975
I19
sI976
I44
sI977
I51
sI978
I99
sI979
I70
sI980
I170
sI981
I498
sI982
I95
sI983
I124
sI984
I34
sI985
I105
sI986
I126
sI987
I175
sI988
I280
sI989
I204
sI990
I50
sI991
I55
sI992
I69
sI993
I96
sI994
I14
sI995
I464
sI996
I34
sI997
I379
sI998
I265
sI999
I65
sI1000
I63
sI1001
I100
sI1002
I101
sI1003
I142
sI1004
I100
sI1005
I17
sI1006
I81
sI1007
I112
sI1008
I39
sI1009
I223
sI1010
I131
sI1011
I32
sI1012
I29
sI1013
I18
sI1014
I70
sI1015
I48
sI1016
I316
sI1017
I24
sI1018
I140
sI1019
I50
sI1020
I61
sI1021
I379
sI1022
I49
sI1023
I153
sI1024
I99
sI1025
I205
sI1026
I169
sI1027
I270
sI1028
I87
sI1029
I197
sI1030
I43
sI1031
I12
sI1032
I164
sI1033
I5
sI1034
I680
sI1035
I130
sI1036
I82
sI1037
I180
sI1038
I548
sI1039
I136
sI1040
I71
sI1041
I176
sI1042
I39
sI1043
I75
sI1044
I122
sI1045
I159
sI1046
I229
sI1047
I220
sI1048
I190
sI1049
I355
sI1050
I243
sI1051
I91
sI1052
I28
sI1053
I130
sI1054
I18
sI1055
I108
sI1056
I21
sI1057
I144
sI1058
I52
sI1059
I83
sI1060
I75
sI1061
I20
sI1062
I93
sI1063
I136
sI1064
I293
sI1065
I278
sI1066
I166
sI1067
I17
sI1068
I19
sI1069
I145
sI1070
I213
sI1071
I40
sI1072
I27
sI1073
I94
sI1074
I22
sI1075
I99
sI1076
I40
sI1077
I61
sI1078
I110
sI1079
I102
sI1080
I514
sI1081
I257
sI1082
I111
sI1083
I27
sI1084
I78
sI1085
I190
sI1086
I104
sI1087
I79
sI1088
I386
sI1089
I102
sI1090
I155
sI1091
I21
sI1092
I111
sI1093
I41
sI1094
I161
sI1095
I297
sI1096
I11
sI1097
I134
sI1098
I167
sI1099
I406
sI1100
I105
sI1101
I159
sI1102
I227
sI1103
I261
sI1104
I56
sI1105
I42
sI1106
I154
sI1107
I79
sI1108
I199
sI1109
I145
sI1110
I132
sI1111
I40
sI1112
I17
sI1113
I18
sI1114
I57
sI1115
I12
sI1116
I124
sI1117
I4
sI1118
I102
sI1119
I508
sI1120
I30
sI1121
I88
sI1122
I17
sI1123
I23
sI1124
I121
sI1125
I67
sI1126
I59
sI1127
I58
sI1128
I65
sI1129
I152
sI1130
I124
sI1131
I58
sI1132
I85
sI1133
I18
sI1134
I13
sI1135
I46
sI1136
I73
sI1137
I37
sI1138
I136
sI1139
I43
sI1140
I57
sI1141
I84
sI1142
I144
sI1143
I34
sI1144
I61
sI1145
I100
sI1146
I87
sI1147
I85
sI1148
I30
sI1149
I5
sI1150
I70
sI1151
I103
sI1152
I123
sI1153
I45
sI1154
I51
sI1155
I34
sI1156
I148
sI1157
I40
sI1158
I40
sI1159
I89
sI1160
I25
sI1161
I95
sI1162
I273
sI1163
I94
sI1164
I195
sI1165
I44
sI1166
I25
sI1167
I133
sI1168
I52
sI1169
I285
sI1170
I88
sI1171
I46
sI1172
I225
sI1173
I39
sI1174
I34
sI1175
I42
sI1176
I98
sI1177
I75
sI1178
I107
sI1179
I47
sI1180
I49
sI1181
I95
sI1182
I16
sI1183
I115
sI1184
I144
sI1185
I21
sI1186
I88
sI1187
I103
sI1188
I4
sI1189
I75
sI1190
I106
sI1191
I15
sI1192
I128
sI1193
I71
sI1194
I23
sI1195
I100
sI1196
I36
sI1197
I75
sI1198
I13
sI1199
I152
sI1200
I125
sI1201
I73
sI1202
I14
sI1203
I16
sI1204
I116
sI1205
I125
sI1206
I35
sI1207
I37
sI1208
I54
sI1209
I146
sI1210
I60
sI1211
I16
sI1212
I47
sI1213
I61
sI1214
I90
sI1215
I31
sI1216
I62
sI1217
I57
sI1218
I199
sI1219
I177
sI1220
I45
sI1221
I175
sI1222
I18
sI1223
I36
sI1224
I25
sI1225
I16
sI1226
I65
sI1227
I37
sI1228
I57
sI1229
I6
sI1230
I2
sI1231
I79
sI1232
I67
sI1233
I83
sI1234
I73
sI1235
I94
sI1236
I82
sI1237
I58
sI1238
I157
sI1239
I2
sI1240
I56
sI1241
I183
sI1242
I20
sI1243
I82
sI1244
I266
sI1245
I21
sI1246
I2
sI1247
I63
sI1248
I68
sI1249
I54
sI1250
I162
sI1251
I17
sI1252
I39
sI1253
I59
sI1254
I48
sI1255
I106
sI1256
I152
sI1257
I81
sI1258
I256
sI1259
I33
sI1260
I36
sI1261
I40
sI1262
I16
sI1263
I60
sI1264
I12
sI1265
I142
sI1266
I36
sI1267
I65
sI1268
I113
sI1269
I89
sI1270
I104
sI1271
I63
sI1272
I119
sI1273
I221
sI1274
I9
sI1275
I133
sI1276
I7
sI1277
I36
sI1278
I55
sI1279
I56
sI1280
I125
sI1281
I53
sI1282
I123
sI1283
I57
sI1284
I101
sI1285
I64
sI1286
I156
sI1287
I90
sI1288
I18
sI1289
I22
sI1290
I71
sI1291
I42
sI1292
I52
sI1293
I190
sI1294
I97
sI1295
I32
sI1296
I22
sI1297
I53
sI1298
I49
sI1299
I39
sI1300
I66
sI1301
I66
sI1302
I266
sI1303
I207
sI1304
I4
sI1305
I167
sI1306
I36
sI1307
I116
sI1308
I28
sI1309
I51
sI1310
I9
sI1311
I84
sI1312
I2
sI1313
I84
sI1314
I86
sI1315
I8
sI1316
I36
sI1317
I54
sI1318
I26
sI1319
I46
sI1320
I87
sI1321
I46
sI1322
I25
sI1323
I36
sI1324
I25
sI1325
I33
sI1326
I34
sI1327
I4
sI1328
I17
sI1329
I37
sI1330
I67
sI1331
I80
sI1332
I119
sI1333
I88
sI1334
I59
sI1335
I78
sI1336
I35
sI1337
I97
sI1338
I24
sI1339
I49
sI1340
I54
sI1341
I68
sI1342
I107
sI1343
I41
sI1344
I6
sI1345
I123
sI1346
I24
sI1347
I65
sI1348
I25
sI1349
I42
sI1350
I6
sI1351
I66
sI1352
I22
sI1353
I48
sI1354
I29
sI1355
I67
sI1356
I51
sI1357
I29
sI1358
I75
sI1359
I32
sI1360
I61
sI1361
I37
sI1362
I33
sI1363
I17
sI1364
I48
sI1365
I37
sI1366
I74
sI1367
I38
sI1368
I65
sI1369
I10
sI1370
I7
sI1371
I6
sI1372
I81
sI1373
I23
sI1374
I45
sI1375
I86
sI1376
I13
sI1377
I14
sI1378
I83
sI1379
I5
sI1380
I28
sI1381
I142
sI1382
I138
sI1383
I33
sI1384
I26
sI1385
I6
sI1386
I19
sI1387
I49
sI1388
I27
sI1389
I65
sI1390
I16
sI1391
I10
sI1392
I31
sI1393
I23
sI1394
I123
sI1395
I36
sI1396
I18
sI1397
I88
sI1398
I177
sI1399
I19
sI1400
I51
sI1401
I148
sI1402
I111
sI1403
I14
sI1404
I115
sI1405
I33
sI1406
I25
sI1407
I45
sI1408
I22
sI1409
I59
sI1410
I19
sI1411
I11
sI1412
I41
sI1413
I55
sI1414
I72
sI1415
I41
sI1416
I22
sI1417
I11
sI1418
I77
sI1419
I24
sI1420
I50
sI1421
I1
sI1422
I40
sI1423
I18
sI1424
I56
sI1425
I48
sI1426
I116
sI1427
I91
sI1428
I98
sI1429
I18
sI1430
I105
sI1431
I5
sI1432
I7
sI1433
I69
sI1434
I13
sI1435
I138
sI1436
I73
sI1437
I27
sI1438
I19
sI1439
I82
sI1440
I42
sI1441
I51
sI1442
I21
sI1443
I27
sI1444
I25
sI1445
I51
sI1446
I55
sI1447
I9
sI1448
I9
sI1449
I55
sI1450
I66
sI1451
I52
sI1452
I7
sI1453
I27
sI1454
I4
sI1455
I31
sI1456
I5
sI1457
I13
sI1458
I33
sI1459
I13
sI1460
I25
sI1461
I33
sI1462
I35
sI1463
I101
sI1464
I35
sI1465
I55
sI1466
I86
sI1467
I19
sI1468
I167
sI1469
I45
sI1470
I11
sI1471
I39
sI1472
I9
sI1473
I7
sI1474
I8
sI1475
I47
sI1476
I12
sI1477
I22
sI1478
I62
sI1479
I261
sI1480
I31
sI1481
I62
sI1482
I28
sI1483
I35
sI1484
I44
sI1485
I12
sI1486
I17
sI1487
I35
sI1488
I6
sI1489
I33
sI1490
I8
sI1491
I9
sI1492
I49
sI1493
I26
sI1494
I10
sI1495
I33
sI1496
I33
sI1497
I33
sI1498
I28
sI1499
I8
sI1500
I3
sI1501
I19
sI1502
I4
sI1503
I48
sI1504
I9
sI1505
I12
sI1506
I22
sI1507
I180
sI1508
I23
sI1509
I9
sI1510
I34
sI1511
I69
sI1512
I14
sI1513
I3
sI1514
I15
sI1515
I21
sI1516
I17
sI1517
I35
sI1518
I23
sI1519
I17
sI1520
I22
sI1521
I50
sI1522
I62
sI1523
I12
sI1524
I3
sI1525
I8
sI1526
I5
sI1527
I59
sI1528
I21
sI1529
I14
sI1530
I1
sI1531
I26
sI1532
I26
sI1533
I24
sI1534
I24
sI1535
I16
sI1536
I7
sI1537
I2
sI1538
I1
sI1539
I28
sI1540
I11
sI1541
I47
sI1542
I16
sI1543
I37
sI1544
I24
sI1545
I7
sI1546
I67
sI1547
I21
sI1548
I10
sI1549
I6
sI1550
I4
sI1551
I6
sI1552
I35
sI1553
I72
sI1554
I68
sI1555
I21
sI1556
I29
sI1557
I48
sI1558
I13
sI1559
I23
sI1560
I12
sI1561
I8
sI1562
I17
sI1563
I28
sI1564
I2
sI1565
I1
sI1566
I14
sI1567
I13
sI1568
I27
sI1569
I43
sI1570
I37
sI1571
I12
sI1572
I14
sI1573
I13
sI1574
I23
sI1575
I8
sI1576
I48
sI1577
I22
sI1578
I6
sI1579
I36
sI1580
I3
sI1581
I18
sI1582
I8
sI1583
I26
sI1584
I9
sI1585
I25
sI1586
I8
sI1587
I21
sI1588
I23
sI1589
I47
sI1590
I23
sI1591
I4
sI1592
I9
sI1593
I23
sI1594
I31
sI1595
I62
sI1596
I16
sI1597
I12
sI1598
I22
sI1599
I39
sI1600
I54
sI1601
I36
sI1602
I21
sI1603
I31
sI1604
I28
sI1605
I9
sI1606
I13
sI1607
I5
sI1608
I21
sI1609
I3
sI1610
I35
sI1611
I14
sI1612
I47
sI1613
I33
sI1614
I12
sI1615
I18
sI1616
I45
sI1617
I89
sI1618
I27
sI1619
I31
sI1620
I20
sI1621
I16
sI1622
I45
sI1623
I14
sI1624
I19
sI1625
I2
sI1626
I10
sI1627
I21
sI1628
I3
sI1629
I4
sI1630
I36
sI1631
I33
sI1632
I11
sI1633
I33
sI1634
I6
sI1635
I9
sI1636
I4
sI1637
I13
sI1638
I8
sI1639
I18
sI1640
I4
sI1641
I9
sI1642
I2
sI1643
I47
sI1644
I12
sI1645
I3
sI1646
I8
sI1647
I31
sI1648
I4
sI1649
I14
sI1650
I3
sI1651
I28
sI1652
I10
sI1653
I25
sI1654
I17
sI1655
I10
sI1656
I19
sI1657
I23
sI1658
I24
sI1659
I31
sI1660
I7
sI1661
I12
sI1662
I13
sI1663
I6
sI1664
I16
sI1665
I10
sI1666
I8
sI1667
I3
sI1668
I6
sI1669
I3
sI1670
I23
sI1671
I8
sI1672
I2
sI1673
I3
sI1674
I10
sI1675
I14
sI1676
I21
sI1677
I11
sI1678
I20
sI1679
I30
sI1680
I30
sI1681
I3
sI1682
I15
sI1683
I1
sI1684
I5
sI1685
I13
sI1686
I4
sI1687
I7
sI1688
I42
sI1689
I33
sI1690
I4
sI1691
I5
sI1692
I9
sI1693
I11
sI1694
I24
sI1695
I10
sI1696
I20
sI1697
I10
sI1698
I26
sI1699
I18
sI1700
I11
sI1701
I7
sI1702
I20
sI1703
I2
sI1704
I1
sI1705
I25
sI1706
I8
sI1707
I17
sI1708
I15
sI1709
I11
sI1710
I12
sI1711
I3
sI1712
I15
sI1713
I6
sI1714
I28
sI1715
I10
sI1716
I7
sI1717
I14
sI1718
I5
sI1719
I4
sI1720
I6
sI1721
I15
sI1722
I3
sI1723
I31
sI1724
I23
sI1725
I7
sI1726
I11
sI1727
I7
sI1728
I17
sI1729
I10
sI1730
I1
sI1731
I1
sI1732
I1
sI1733
I10
sI1734
I18
sI1735
I25
sI1736
I12
sI1737
I1
sI1738
I8
sI1739
I8
sI1740
I6
sI1741
I5
sI1742
I7
sI1743
I6
sI1744
I11
sI1745
I17
sI1746
I3
sI1747
I1
sI1748
I5
sI1749
I1
sI1750
I1
sI1751
I2
sI1752
I17
sI1753
I16
sI1754
I6
sI1755
I14
sI1756
I1
sI1757
I22
sI1758
I2
sI1759
I6
sI1760
I6
sI1761
I4
sI1762
I14
sI1763
I4
sI1764
I10
sI1765
I8
sI1766
I2
sI1767
I2
sI1768
I2
sI1769
I2
sI1770
I5
sI1771
I5
sI1772
I8
sI1773
I8
sI1774
I1
sI1775
I1
sI1776
I3
sI1777
I8
sI1778
I3
sI1779
I11
sI1780
I3
sI1781
I3
sI1782
I18
sI1783
I3
sI1784
I1
sI1785
I7
sI1786
I1
sI1787
I3
sI1788
I2
sI1789
I2
sI1790
I3
sI1791
I7
sI1792
I2
sI1793
I3
sI1794
I4
sI1795
I3
sI1796
I2
sI1797
I6
sI1798
I3
sI1799
I12
sI1800
I2
sI1801
I4
sI1802
I5
sI1803
I2
sI1804
I7
sI1805
I1
sI1806
I3
sI1807
I2
sI1808
I3
sI1809
I1
sI1810
I5
sI1811
I1
sI1812
I4
sI1813
I1
sI1814
I6
sI1815
I9
sI1816
I1
sI1817
I1
sI1818
I5
sI1819
I3
sI1820
I1
sI1821
I6
sI1822
I8
sI1823
I3
sI1824
I2
sI1825
I3
sI1826
I2
sI1827
I8
sI1828
I3
sI1829
I1
sI1830
I3
sI1831
I4
sI1832
I4
sI1833
I2
sI1834
I2
sI1835
I2
sI1836
I2
sI1837
I1
sI1838
I1
sI1839
I3
sI1840
I3
sI1841
I1
sI1842
I2
sI1843
I3
sI1844
I1
sI1845
I2
sI1846
I1
sI1847
I4
sI1848
I1
sI1849
I2
sI1850
I2
sI1851
I3
sI1852
I3
sI1853
I1
sI1854
I2
sI1855
I2
sI1856
I1
sI1857
I1
sI1858
I1
sI1859
I1
sI1860
I1
sI1861
I1
sI1862
I4
sI1863
I1
sI1864
I2
sI1865
I2
sI1866
I1
sI1867
I1
sI1868
I1
sI1869
I1
sI1870
I1
sI1871
I1
sI1872
I1
sI1873
I1
sI1874
I2
sI1875
I1
sI1876
I1
sI1877
I1
sI1878
I1
sI1879
I1
ssS'num_nnz'
p1891
I746674
sS'id2token'
p1892
(dp1893
I0
g95
sI1
g1032
sI2
g634
sI3
g1704
sI4
VCaulk & Sealants|Paint\u000a
p1894
sI5
g688
sI6
g1579
sI7
g192
sI8
g557
sI9
g505
sI10
g291
sI11
g1431
sI12
g492
sI13
g526
sI14
g981
sI15
g1239
sI16
g106
sI17
g943
sI18
g16
sI19
g1539
sI20
g128
sI21
g1692
sI22
g1046
sI23
g228
sI24
g1052
sI25
g1789
sI26
g1261
sI27
g1510
sI28
g1822
sI29
g1888
sI30
g1007
sI31
g1803
sI32
g538
sI33
g385
sI34
g1106
sI35
g1816
sI36
g455
sI37
g177
sI38
g947
sI39
g887
sI40
g219
sI41
g1013
sI42
g331
sI43
g1460
sI44
g1532
sI45
g917
sI46
g1061
sI47
g1866
sI48
g19
sI49
g63
sI50
g617
sI51
g553
sI52
g612
sI53
g1136
sI54
g578
sI55
g408
sI56
g1355
sI57
g640
sI58
g182
sI59
g110
sI60
VStorage Bins, Cubes & Totes|Storage & Organization\u000a
p1895
sI61
g863
sI62
VTarps, Drop Cloths & Plastic Sheeting|Paint\u000a
p1896
sI63
g601
sI64
g23
sI65
g512
sI66
g1857
sI67
g986
sI68
g1708
sI69
g1647
sI70
g915
sI71
g1202
sI72
g111
sI73
g1035
sI74
g592
sI75
g1361
sI76
g207
sI77
g251
sI78
g559
sI79
g680
sI80
g1175
sI81
VPrimers|Paint\u000a
p1897
sI82
g277
sI83
g193
sI84
g1268
sI85
g427
sI86
g1236
sI87
g1504
sI88
g325
sI89
g149
sI90
g953
sI91
g55
sI92
g1518
sI93
g197
sI94
g739
sI95
g1437
sI96
g257
sI97
g845
sI98
g302
sI99
VFurniture Paint, Faux Finishes & Craft Paint|Paint\u000a
p1898
sI100
g548
sI101
g155
sI102
g30
sI103
g1198
sI104
g926
sI105
g1433
sI106
g729
sI107
g1205
sI108
VSpray Paint|Paint\u000a
p1899
sI109
g1616
sI110
g454
sI111
g485
sI112
g1455
sI113
g456
sI114
VAutomotive Paint|Paint\u000a
p1900
sI115
g1853
sI116
g281
sI117
g1784
sI118
g1785
sI119
g430
sI120
g1672
sI121
g1340
sI122
g268
sI123
g590
sI124
g42
sI125
g1577
sI126
g595
sI127
g1509
sI128
g1138
sI129
g1279
sI130
g977
sI131
g1199
sI132
VDuct Tape, Glues & Epoxy|Paint\u000a
p1901
sI133
g1149
sI134
g1016
sI135
g1315
sI136
g142
sI137
g1731
sI138
g1033
sI139
g628
sI140
g909
sI141
g1638
sI142
g1051
sI143
g84
sI144
g58
sI145
g567
sI146
g1794
sI147
g875
sI148
g380
sI149
g1476
sI150
g1020
sI151
g107
sI152
g1549
sI153
g75
sI154
g1874
sI155
g1029
sI156
g655
sI157
g862
sI158
g813
sI159
g1641
sI160
g1881
sI161
g967
sI162
g57
sI163
g1185
sI164
g982
sI165
g825
sI166
g1484
sI167
g1125
sI168
g1073
sI169
g647
sI170
g1419
sI171
g1687
sI172
g1331
sI173
g1651
sI174
g183
sI175
g1656
sI176
g94
sI177
VAppearance Boards|Lumber & Composites\u000a
p1902
sI178
g402
sI179
g432
sI180
g373
sI181
g1161
sI182
g609
sI183
g493
sI184
g318
sI185
g642
sI186
g76
sI187
g1428
sI188
g1220
sI189
g206
sI190
g1555
sI191
g466
sI192
g1479
sI193
g1796
sI194
g1690
sI195
g1295
sI196
g1378
sI197
g1028
sI198
g435
sI199
g369
sI200
g90
sI201
g956
sI202
g1458
sI203
g306
sI204
g734
sI205
g1407
sI206
g623
sI207
g1424
sI208
g1134
sI209
g517
sI210
g1118
sI211
g549
sI212
g659
sI213
g178
sI214
g644
sI215
g1042
sI216
g416
sI217
g49
sI218
g668
sI219
g637
sI220
g1039
sI221
g1620
sI222
g1815
sI223
g676
sI224
g1162
sI225
g218
sI226
g1076
sI227
g1150
sI228
g1082
sI229
g925
sI230
g929
sI231
g672
sI232
g1299
sI233
g1362
sI234
g20
sI235
g1139
sI236
g1662
sI237
g1379
sI238
g585
sI239
g1855
sI240
g472
sI241
g1621
sI242
g1260
sI243
g1012
sI244
g1693
sI245
g1014
sI246
g374
sI247
g1446
sI248
g36
sI249
g1494
sI250
g1831
sI251
g396
sI252
g1694
sI253
g154
sI254
g1294
sI255
g819
sI256
g788
sI257
g1284
sI258
g208
sI259
g1119
sI260
g1323
sI261
VMoving Boxes & Shipping Supplies|Storage & Organization\u000a
p1903
sI262
g916
sI263
g1217
sI264
g1537
sI265
g310
sI266
g67
sI267
g1282
sI268
g1204
sI269
g1116
sI270
g1192
sI271
g1535
sI272
g1343
sI273
g998
sI274
g1404
sI275
VStops, Drains & Drain Plugs|Plumbing\u000a
p1904
sI276
g1807
sI277
g1600
sI278
g366
sI279
g1840
sI280
g1269
sI281
g663
sI282
g307
sI283
g697
sI284
g632
sI285
g463
sI286
g414
sI287
g695
sI288
g878
sI289
g823
sI290
g874
sI291
g21
sI292
g1553
sI293
g1157
sI294
g444
sI295
g450
sI296
g462
sI297
g1203
sI298
g1618
sI299
g1322
sI300
g1768
sI301
g1681
sI302
g1038
sI303
g77
sI304
g1376
sI305
g1072
sI306
g619
sI307
g980
sI308
g650
sI309
g239
sI310
g189
sI311
g1115
sI312
g98
sI313
g1111
sI314
g248
sI315
g853
sI316
g417
sI317
g137
sI318
g723
sI319
g1761
sI320
g1388
sI321
g1375
sI322
g1507
sI323
g1086
sI324
g334
sI325
g394
sI326
g1208
sI327
g826
sI328
g1882
sI329
g468
sI330
g1721
sI331
g1887
sI332
g431
sI333
g1608
sI334
g1500
sI335
g1022
sI336
g399
sI337
g1719
sI338
g1513
sI339
g800
sI340
g1079
sI341
g1488
sI342
g1347
sI343
g1517
sI344
g830
sI345
g133
sI346
g378
sI347
g1002
sI348
g296
sI349
g755
sI350
g381
sI351
g73
sI352
g714
sI353
g523
sI354
g384
sI355
g1841
sI356
g261
sI357
g1554
sI358
g1558
sI359
g1195
sI360
g1395
sI361
g897
sI362
g1811
sI363
g727
sI364
g950
sI365
g1245
sI366
g918
sI367
g1113
sI368
g1041
sI369
g1330
sI370
g960
sI371
g344
sI372
g1642
sI373
g1219
sI374
g598
sI375
g1241
sI376
g1408
sI377
g822
sI378
g542
sI379
g1196
sI380
g1300
sI381
g74
sI382
g932
sI383
g15
sI384
g686
sI385
g575
sI386
VPipe Insulation|Plumbing\u000a
p1905
sI387
g1566
sI388
VShims & Wood Shingles|Lumber & Composites\u000a
p1906
sI389
g474
sI390
g301
sI391
g1809
sI392
g569
sI393
g1593
sI394
g39
sI395
g1749
sI396
g1663
sI397
g457
sI398
g1053
sI399
g1467
sI400
g1578
sI401
g1534
sI402
g1655
sI403
g799
sI404
g1262
sI405
g1852
sI406
g172
sI407
g730
sI408
g586
sI409
g1812
sI410
g173
sI411
g555
sI412
g326
sI413
g134
sI414
g433
sI415
g1302
sI416
g1837
sI417
g635
sI418
g413
sI419
g1863
sI420
g1777
sI421
g1614
sI422
g1475
sI423
g180
sI424
g1354
sI425
g439
sI426
g1335
sI427
g1369
sI428
g292
sI429
g382
sI430
g415
sI431
g747
sI432
g112
sI433
g1695
sI434
g1472
sI435
g1453
sI436
g1385
sI437
g1872
sI438
g129
sI439
g1008
sI440
g631
sI441
g1764
sI442
g1659
sI443
g740
sI444
g570
sI445
g314
sI446
g1737
sI447
g1735
sI448
g1015
sI449
g336
sI450
g230
sI451
g1152
sI452
g1273
sI453
g81
sI454
g545
sI455
g1588
sI456
g580
sI457
g1070
sI458
g1342
sI459
g1515
sI460
g1044
sI461
g1581
sI462
g1586
sI463
g908
sI464
g767
sI465
g1722
sI466
g881
sI467
g1845
sI468
g1514
sI469
g1790
sI470
g741
sI471
g500
sI472
g1612
sI473
g196
sI474
VGarbage Disposals|Appliances\u000a
p1907
sI475
g1040
sI476
VHome Storage Hooks|Storage & Organization\u000a
p1908
sI477
g938
sI478
g162
sI479
g494
sI480
g317
sI481
g840
sI482
g1886
sI483
g1270
sI484
g364
sI485
g941
sI486
g234
sI487
g508
sI488
g24
sI489
g407
sI490
g1265
sI491
VDeck & Patio Restoration|Paint\u000a
p1909
sI492
g14
sI493
g1350
sI494
g256
sI495
g1691
sI496
g1610
sI497
g104
sI498
g1411
sI499
g754
sI500
g1782
sI501
g1583
sI502
g534
sI503
g965
sI504
g1308
sI505
g300
sI506
g976
sI507
g119
sI508
g1702
sI509
g752
sI510
g247
sI511
g276
sI512
g87
sI513
g1089
sI514
g1394
sI515
g438
sI516
g1613
sI517
g760
sI518
g627
sI519
g190
sI520
g1868
sI521
g45
sI522
g1232
sI523
g1861
sI524
g51
sI525
g1339
sI526
g204
sI527
g1611
sI528
g99
sI529
g1769
sI530
g232
sI531
g288
sI532
g899
sI533
g100
sI534
g856
sI535
g603
sI536
g321
sI537
g803
sI538
g1448
sI539
g1459
sI540
g1747
sI541
g533
sI542
g1240
sI543
g1291
sI544
VCubbies & Cube Storage|Storage & Organization\u000a
p1910
sI545
g694
sI546
g1333
sI547
g1358
sI548
g66
sI549
VUnder Cabinet Lights|Lighting & Ceiling Fans\u000a
p1911
sI550
g124
sI551
g1776
sI552
g425
sI553
g1762
sI554
g1464
sI555
g574
sI556
g1019
sI557
g692
sI558
g1604
sI559
VMini Refrigerators|Appliances\u000a
p1912
sI560
g1800
sI561
g1705
sI562
g1491
sI563
g703
sI564
g1209
sI565
g156
sI566
g1435
sI567
g164
sI568
g1832
sI569
g1228
sI570
g661
sI571
g253
sI572
g490
sI573
g376
sI574
g324
sI575
g704
sI576
g27
sI577
g464
sI578
g576
sI579
g226
sI580
g985
sI581
g1780
sI582
g724
sI583
g1624
sI584
g420
sI585
g225
sI586
g873
sI587
g812
sI588
g1026
sI589
g1126
sI590
g535
sI591
g249
sI592
g1744
sI593
g1135
sI594
g1036
sI595
g498
sI596
g443
sI597
g854
sI598
g368
sI599
g1170
sI600
g1572
sI601
g775
sI602
g1483
sI603
g1277
sI604
g719
sI605
g1034
sI606
g1133
sI607
g482
sI608
g458
sI609
g422
sI610
VConcrete, Basement & Garage Floor Paint|Paint\u000a
p1913
sI611
g983
sI612
g1235
sI613
g1523
sI614
g91
sI615
g1177
sI616
g1755
sI617
g626
sI618
g311
sI619
g1839
sI620
g62
sI621
g377
sI622
g1011
sI623
g338
sI624
g979
sI625
g579
sI626
g424
sI627
g497
sI628
g1159
sI629
g1629
sI630
g212
sI631
g1846
sI632
g649
sI633
g1528
sI634
g742
sI635
g615
sI636
g948
sI637
g1623
sI638
g1181
sI639
g971
sI640
g216
sI641
g516
sI642
g1567
sI643
g906
sI644
g872
sI645
g816
sI646
g423
sI647
g483
sI648
g901
sI649
g1258
sI650
g687
sI651
g573
sI652
g1108
sI653
g1121
sI654
g720
sI655
g476
sI656
g852
sI657
g242
sI658
g1495
sI659
g1174
sI660
g1519
sI661
g1835
sI662
g1632
sI663
g375
sI664
g1469
sI665
g905
sI666
g907
sI667
g1188
sI668
g1478
sI669
g160
sI670
g768
sI671
g540
sI672
g722
sI673
g1248
sI674
g245
sI675
g275
sI676
g1654
sI677
g1094
sI678
g132
sI679
g1466
sI680
g1275
sI681
g547
sI682
g1820
sI683
g72
sI684
g447
sI685
g1310
sI686
g1084
sI687
g924
sI688
g1320
sI689
g1030
sI690
g392
sI691
g1234
sI692
g70
sI693
g608
sI694
g1730
sI695
g1524
sI696
g282
sI697
g745
sI698
g892
sI699
g1137
sI700
g1826
sI701
g1151
sI702
g1501
sI703
g731
sI704
g561
sI705
g1649
sI706
g682
sI707
g136
sI708
g1289
sI709
g896
sI710
g1227
sI711
g1787
sI712
g889
sI713
g127
sI714
g1561
sI715
g1671
sI716
g1879
sI717
g560
sI718
g868
sI719
g888
sI720
g648
sI721
g1144
sI722
g332
sI723
g1810
sI724
g1552
sI725
g1862
sI726
g758
sI727
g1413
sI728
g706
sI729
g1120
sI730
g851
sI731
g974
sI732
g551
sI733
g611
sI734
g673
sI735
g1622
sI736
g279
sI737
g966
sI738
g811
sI739
g159
sI740
g92
sI741
g322
sI742
g522
sI743
g839
sI744
g461
sI745
g746
sI746
g82
sI747
g787
sI748
g1127
sI749
g847
sI750
g31
sI751
g54
sI752
g1536
sI753
g537
sI754
g1334
sI755
g122
sI756
g1859
sI757
g815
sI758
g1742
sI759
g1048
sI760
g1285
sI761
g928
sI762
g410
sI763
g876
sI764
g1096
sI765
g1382
sI766
g388
sI767
g728
sI768
g1415
sI769
g1699
sI770
g975
sI771
g1328
sI772
g1050
sI773
g320
sI774
g1129
sI775
g499
sI776
g835
sI777
g1193
sI778
g440
sI779
g1230
sI780
g1147
sI781
g278
sI782
g838
sI783
g1551
sI784
VLaundry Storage|Storage & Organization\u000a
p1914
sI785
g356
sI786
g1724
sI787
g1771
sI788
g176
sI789
g698
sI790
g859
sI791
g1449
sI792
g1759
sI793
g1461
sI794
g832
sI795
g1372
sI796
g1829
sI797
g521
sI798
g790
sI799
g1429
sI800
g629
sI801
g1631
sI802
g274
sI803
g1529
sI804
g1211
sI805
g858
sI806
g1005
sI807
g335
sI808
g1701
sI809
g834
sI810
g1148
sI811
g1098
sI812
g708
sI813
g1758
sI814
g891
sI815
g562
sI816
g1099
sI817
g1760
sI818
g1105
sI819
g1253
sI820
g199
sI821
g1271
sI822
g725
sI823
g108
sI824
g354
sI825
g1739
sI826
g1021
sI827
g1337
sI828
g713
sI829
g1283
sI830
g824
sI831
g1493
sI832
g712
sI833
g898
sI834
g333
sI835
g616
sI836
g937
sI837
g32
sI838
g864
sI839
g564
sI840
g691
sI841
g1805
sI842
g1582
sI843
g804
sI844
g1531
sI845
g952
sI846
g1093
sI847
g546
sI848
g894
sI849
g620
sI850
g78
sI851
g1293
sI852
g1633
sI853
g18
sI854
g684
sI855
g379
sI856
g496
sI857
g1213
sI858
g903
sI859
g1160
sI860
g531
sI861
g418
sI862
g1660
sI863
g289
sI864
g1286
sI865
g1521
sI866
g1527
sI867
g1145
sI868
g312
sI869
g972
sI870
g1707
sI871
g884
sI872
g539
sI873
g360
sI874
g771
sI875
g1365
sI876
g449
sI877
g846
sI878
g957
sI879
g1064
sI880
g1060
sI881
g914
sI882
g200
sI883
g1281
sI884
g793
sI885
g1674
sI886
g1867
sI887
g658
sI888
g1017
sI889
g1303
sI890
g1452
sI891
g959
sI892
g711
sI893
g231
sI894
g1058
sI895
g514
sI896
g669
sI897
g606
sI898
g867
sI899
g1666
sI900
g913
sI901
g64
sI902
g1156
sI903
g978
sI904
g945
sI905
g780
sI906
g794
sI907
g597
sI908
g1244
sI909
g791
sI910
g844
sI911
g1847
sI912
g1214
sI913
g1462
sI914
g577
sI915
g513
sI916
g478
sI917
g783
sI918
VPressure Treated Lumber|Lumber & Composites\u000a
p1915
sI919
g481
sI920
g702
sI921
g1251
sI922
g1278
sI923
g870
sI924
g1206
sI925
g709
sI926
g1726
sI927
g161
sI928
g1141
sI929
g1756
sI930
g1795
sI931
g403
sI932
g437
sI933
g536
sI934
g465
sI935
g1559
sI936
g931
sI937
g340
sI938
g1068
sI939
g1179
sI940
g1416
sI941
g1821
sI942
g594
sI943
g272
sI944
g818
sI945
g934
sI946
g588
sI947
g1399
sI948
g693
sI949
VCraft Storage|Storage & Organization\u000a
p1916
sI950
g552
sI951
g1591
sI952
g1487
sI953
g1617
sI954
g40
sI955
g936
sI956
g187
sI957
g519
sI958
g1736
sI959
g153
sI960
g1107
sI961
g944
sI962
g961
sI963
g1808
sI964
g361
sI965
g654
sI966
g1183
sI967
g1745
sI968
g386
sI969
g1087
sI970
g330
sI971
g1055
sI972
g1634
sI973
g1540
sI974
g710
sI975
g362
sI976
g22
sI977
g299
sI978
g1077
sI979
g1225
sI980
g1257
sI981
g211
sI982
g1249
sI983
g1246
sI984
g504
sI985
g1817
sI986
g1639
sI987
g1564
sI988
g772
sI989
g1885
sI990
g1665
sI991
g345
sI992
g118
sI993
g1069
sI994
g358
sI995
g269
sI996
g809
sI997
g1186
sI998
g1569
sI999
g287
sI1000
g1606
sI1001
g1503
sI1002
g1590
sI1003
g1599
sI1004
g1439
sI1005
g1001
sI1006
g1311
sI1007
g1169
sI1008
g1546
sI1009
g1043
sI1010
g1533
sI1011
g93
sI1012
g489
sI1013
g1102
sI1014
g1292
sI1015
g1095
sI1016
g1869
sI1017
g1316
sI1018
g1734
sI1019
g860
sI1020
g1792
sI1021
g1542
sI1022
VUtility Sink Faucets|Plumbing\u000a
p1917
sI1023
g1686
sI1024
g1092
sI1025
g773
sI1026
g1131
sI1027
g1718
sI1028
g700
sI1029
g607
sI1030
g1619
sI1031
g1417
sI1032
g1568
sI1033
g79
sI1034
g532
sI1035
g341
sI1036
g849
sI1037
g1027
sI1038
g1596
sI1039
g738
sI1040
g1427
sI1041
g71
sI1042
g337
sI1043
g1274
sI1044
g520
sI1045
g210
sI1046
g964
sI1047
g1658
sI1048
g1482
sI1049
g285
sI1050
g946
sI1051
g1474
sI1052
g1146
sI1053
g550
sI1054
g1725
sI1055
g26
sI1056
g1576
sI1057
g53
sI1058
g401
sI1059
g1492
sI1060
g1670
sI1061
g398
sI1062
g1130
sI1063
g1221
sI1064
g1480
sI1065
g621
sI1066
g1543
sI1067
g38
sI1068
g1772
sI1069
g743
sI1070
g664
sI1071
g1403
sI1072
g1778
sI1073
g1405
sI1074
g475
sI1075
g1876
sI1076
g515
sI1077
g1090
sI1078
g1266
sI1079
g1471
sI1080
g1636
sI1081
g1085
sI1082
g1799
sI1083
g963
sI1084
g1325
sI1085
g1229
sI1086
g726
sI1087
g1306
sI1088
g1054
sI1089
g203
sI1090
g409
sI1091
g1210
sI1092
g696
sI1093
g1473
sI1094
g954
sI1095
g105
sI1096
g1168
sI1097
g121
sI1098
g33
sI1099
g171
sI1100
g1601
sI1101
g1389
sI1102
g1668
sI1103
g1104
sI1104
g1441
sI1105
g1698
sI1106
g185
sI1107
g1798
sI1108
g1348
sI1109
g1793
sI1110
g441
sI1111
g1360
sI1112
g434
sI1113
g1288
sI1114
g221
sI1115
g1352
sI1116
g1071
sI1117
g829
sI1118
g1393
sI1119
g571
sI1120
g46
sI1121
g843
sI1122
g1522
sI1123
g305
sI1124
g1080
sI1125
g996
sI1126
g737
sI1127
g1180
sI1128
g761
sI1129
g541
sI1130
g37
sI1131
g1653
sI1132
g243
sI1133
g1165
sI1134
g1880
sI1135
g707
sI1136
g653
sI1137
g1397
sI1138
g17
sI1139
g198
sI1140
g1838
sI1141
g61
sI1142
g1541
sI1143
g716
sI1144
g491
sI1145
g227
sI1146
g348
sI1147
g166
sI1148
g582
sI1149
g955
sI1150
g778
sI1151
g1272
sI1152
g303
sI1153
g88
sI1154
g1490
sI1155
g587
sI1156
g389
sI1157
g715
sI1158
g1332
sI1159
g1592
sI1160
g150
sI1161
g260
sI1162
g1615
sI1163
g363
sI1164
g97
sI1165
g47
sI1166
g1669
sI1167
g126
sI1168
g486
sI1169
g1406
sI1170
g591
sI1171
g1587
sI1172
g681
sI1173
g1485
sI1174
g1512
sI1175
g1797
sI1176
g1432
sI1177
g1813
sI1178
g992
sI1179
g848
sI1180
g313
sI1181
g1184
sI1182
g759
sI1183
g973
sI1184
g930
sI1185
g1675
sI1186
g395
sI1187
g1713
sI1188
g1314
sI1189
g1597
sI1190
g286
sI1191
g393
sI1192
g1717
sI1193
g869
sI1194
g1187
sI1195
g487
sI1196
g1317
sI1197
g350
sI1198
g1296
sI1199
g29
sI1200
g167
sI1201
g1696
sI1202
g670
sI1203
g1207
sI1204
g1190
sI1205
g201
sI1206
g148
sI1207
g202
sI1208
g157
sI1209
g721
sI1210
g879
sI1211
g1496
sI1212
g837
sI1213
g1545
sI1214
g781
sI1215
g1410
sI1216
g11
sI1217
g1486
sI1218
g1063
sI1219
g1066
sI1220
g890
sI1221
g1224
sI1222
g900
sI1223
g1849
sI1224
g1765
sI1225
g923
sI1226
g877
sI1227
g1727
sI1228
g1167
sI1229
g1047
sI1230
g495
sI1231
g271
sI1232
g1883
sI1233
g735
sI1234
g213
sI1235
g429
sI1236
g1132
sI1237
g999
sI1238
g527
sI1239
g1298
sI1240
g639
sI1241
g1238
sI1242
g717
sI1243
g1451
sI1244
g641
sI1245
g469
sI1246
g1683
sI1247
g1843
sI1248
g1155
sI1249
g699
sI1250
g235
sI1251
g144
sI1252
g421
sI1253
g470
sI1254
g1412
sI1255
g1247
sI1256
g9
sI1257
g645
sI1258
g1684
sI1259
g1444
sI1260
g1078
sI1261
g1280
sI1262
g919
sI1263
g1584
sI1264
g1589
sI1265
g625
sI1266
g678
sI1267
g473
sI1268
g1166
sI1269
g467
sI1270
g1497
sI1271
g240
sI1272
g412
sI1273
g280
sI1274
g238
sI1275
g1364
sI1276
g143
sI1277
g1819
sI1278
g801
sI1279
g1233
sI1280
g501
sI1281
g1153
sI1282
g1457
sI1283
g1312
sI1284
g1097
sI1285
g733
sI1286
g1223
sI1287
g1307
sI1288
g912
sI1289
g59
sI1290
g1652
sI1291
g436
sI1292
g857
sI1293
g789
sI1294
g1544
sI1295
g1463
sI1296
g174
sI1297
g610
sI1298
g293
sI1299
g258
sI1300
g264
sI1301
g1222
sI1302
g1806
sI1303
g1197
sI1304
g942
sI1305
g477
sI1306
g1356
sI1307
g1828
sI1308
g1550
sI1309
g1667
sI1310
g1103
sI1311
g1430
sI1312
g1114
sI1313
g367
sI1314
g1489
sI1315
g451
sI1316
g1045
sI1317
g1602
sI1318
g736
sI1319
g125
sI1320
g131
sI1321
g866
sI1322
g922
sI1323
g1353
sI1324
g1081
sI1325
g556
sI1326
g1023
sI1327
g525
sI1328
g910
sI1329
g400
sI1330
g56
sI1331
g1124
sI1332
g1677
sI1333
g411
sI1334
g13
sI1335
g442
sI1336
g25
sI1337
g168
sI1338
g1447
sI1339
g1436
sI1340
g1770
sI1341
g68
sI1342
g44
sI1343
g290
sI1344
VMarine, Pond & Pool Paint|Paint\u000a
p1918
sI1345
g116
sI1346
g1818
sI1347
g1371
sI1348
g1426
sI1349
g1750
sI1350
g1804
sI1351
g1381
sI1352
g1635
sI1353
g705
sI1354
g770
sI1355
g1779
sI1356
g1305
sI1357
g1689
sI1358
g921
sI1359
g188
sI1360
g1757
sI1361
g471
sI1362
g146
sI1363
g1875
sI1364
g1854
sI1365
g1326
sI1366
g1250
sI1367
g792
sI1368
g254
sI1369
g1370
sI1370
g1878
sI1371
g1625
sI1372
g1802
sI1373
g263
sI1374
g1697
sI1375
g479
sI1376
g1178
sI1377
g1391
sI1378
g1336
sI1379
g1842
sI1380
g528
sI1381
g1499
sI1382
g596
sI1383
g689
sI1384
g138
sI1385
g871
sI1386
g1844
sI1387
g984
sI1388
g117
sI1389
g1173
sI1390
g370
sI1391
g1627
sI1392
g1123
sI1393
g1688
sI1394
g195
sI1395
g1231
sI1396
g543
sI1397
g808
sI1398
g666
sI1399
g1827
sI1400
g1788
sI1401
g749
sI1402
g220
sI1403
g1650
sI1404
g327
sI1405
g262
sI1406
g1741
sI1407
g1421
sI1408
g796
sI1409
g1864
sI1410
g351
sI1411
g1774
sI1412
g284
sI1413
g1481
sI1414
g614
sI1415
g821
sI1416
g605
sI1417
g662
sI1418
g52
sI1419
g831
sI1420
g618
sI1421
g1748
sI1422
g1172
sI1423
g1715
sI1424
g797
sI1425
g1525
sI1426
g215
sI1427
g1158
sI1428
g1163
sI1429
g774
sI1430
g1712
sI1431
g828
sI1432
g1366
sI1433
g842
sI1434
g1368
sI1435
g1218
sI1436
g209
sI1437
g1143
sI1438
g1498
sI1439
g895
sI1440
g1101
sI1441
g1074
sI1442
g250
sI1443
g397
sI1444
g252
sI1445
g371
sI1446
g1763
sI1447
g152
sI1448
g1290
sI1449
g1746
sI1450
g1520
sI1451
g186
sI1452
g624
sI1453
g1743
sI1454
g572
sI1455
g1318
sI1456
g1445
sI1457
g827
sI1458
g951
sI1459
g880
sI1460
g1009
sI1461
g1751
sI1462
g1477
sI1463
g347
sI1464
g1470
sI1465
g390
sI1466
g604
sI1467
g1164
sI1468
g994
sI1469
g1640
sI1470
g1434
sI1471
g342
sI1472
g1733
sI1473
g113
sI1474
g1682
sI1475
g1814
sI1476
g405
sI1477
g244
sI1478
g453
sI1479
g163
sI1480
g426
sI1481
g237
sI1482
g1226
sI1483
g1732
sI1484
g674
sI1485
g339
sI1486
g383
sI1487
g748
sI1488
g1003
sI1489
g810
sI1490
g1851
sI1491
g147
sI1492
g1117
sI1493
g1067
sI1494
g638
sI1495
g459
sI1496
g1833
sI1497
g593
sI1498
g96
sI1499
g141
sI1500
g1420
sI1501
g602
sI1502
g1065
sI1503
g387
sI1504
g139
sI1505
g1255
sI1506
g1004
sI1507
g170
sI1508
g1263
sI1509
g1212
sI1510
g1607
sI1511
g1256
sI1512
g372
sI1513
g656
sI1514
g1346
sI1515
g885
sI1516
g165
sI1517
g1468
sI1518
g718
sI1519
g633
sI1520
g886
sI1521
g1850
sI1522
g179
sI1523
g1723
sI1524
g1422
sI1525
g1425
sI1526
g194
sI1527
g1786
sI1528
g1006
sI1529
g1377
sI1530
g630
sI1531
g683
sI1532
g524
sI1533
g1738
sI1534
g1182
sI1535
g1766
sI1536
g1401
sI1537
g1700
sI1538
g1018
sI1539
g35
sI1540
g1716
sI1541
g83
sI1542
g1706
sI1543
g1301
sI1544
g927
sI1545
g1673
sI1546
g205
sI1547
g1858
sI1548
g304
sI1549
g103
sI1550
g246
sI1551
g1142
sI1552
g502
sI1553
g902
sI1554
g798
sI1555
g1297
sI1556
g786
sI1557
g1191
sI1558
g675
sI1559
g507
sI1560
g391
sI1561
g1349
sI1562
g529
sI1563
g657
sI1564
g1834
sI1565
g130
sI1566
g939
sI1567
g958
sI1568
g1252
sI1569
g41
sI1570
g85
sI1571
g1709
sI1572
g1728
sI1573
g1423
sI1574
g581
sI1575
g1267
sI1576
g123
sI1577
g1703
sI1578
g1825
sI1579
g65
sI1580
g329
sI1581
g1409
sI1582
g353
sI1583
g255
sI1584
g1508
sI1585
g1171
sI1586
g679
sI1587
g1873
sI1588
g1154
sI1589
g1374
sI1590
g1140
sI1591
g217
sI1592
g1594
sI1593
g1037
sI1594
g1057
sI1595
g861
sI1596
g1516
sI1597
g184
sI1598
g1506
sI1599
g1870
sI1600
g1456
sI1601
g970
sI1602
g817
sI1603
g1729
sI1604
g1595
sI1605
g1344
sI1606
g1359
sI1607
g1402
sI1608
g1562
sI1609
g1574
sI1610
g990
sI1611
g181
sI1612
g48
sI1613
g665
sI1614
g1345
sI1615
g850
sI1616
g1438
sI1617
g1237
sI1618
g836
sI1619
VRubberized Coatings|Paint\u000a
p1919
sI1620
g1450
sI1621
VMagazines|How-To\u000a
p1920
sI1622
g295
sI1623
g1383
sI1624
g115
sI1625
g777
sI1626
g530
sI1627
g933
sI1628
g1678
sI1629
g355
sI1630
g169
sI1631
g1565
sI1632
g1243
sI1633
g750
sI1634
g744
sI1635
g1049
sI1636
g756
sI1637
g1396
sI1638
g1720
sI1639
g568
sI1640
g667
sI1641
g1059
sI1642
g1000
sI1643
g1031
sI1644
g865
sI1645
g503
sI1646
g365
sI1647
g224
sI1648
g1112
sI1649
g1341
sI1650
g1386
sI1651
g10
sI1652
g911
sI1653
g1367
sI1654
g445
sI1655
g1571
sI1656
g460
sI1657
g1443
sI1658
g1556
sI1659
g1088
sI1660
g1264
sI1661
g833
sI1662
g766
sI1663
g583
sI1664
g1657
sI1665
g406
sI1666
g1324
sI1667
g236
sI1668
g1259
sI1669
g1189
sI1670
g762
sI1671
g995
sI1672
g776
sI1673
g651
sI1674
g677
sI1675
g989
sI1676
g1609
sI1677
g1418
sI1678
g1630
sI1679
g1024
sI1680
g43
sI1681
g1836
sI1682
g1570
sI1683
g805
sI1684
g297
sI1685
g1830
sI1686
g671
sI1687
g558
sI1688
g1276
sI1689
g265
sI1690
g316
sI1691
g652
sI1692
g102
sI1693
g883
sI1694
g1877
sI1695
g484
sI1696
g1644
sI1697
g1122
sI1698
g1848
sI1699
g1598
sI1700
g563
sI1701
g511
sI1702
g1380
sI1703
g315
sI1704
g1547
sI1705
g1871
sI1706
g1465
sI1707
g1775
sI1708
g135
sI1709
g89
sI1710
g920
sI1711
g1711
sI1712
g1511
sI1713
g613
sI1714
g480
sI1715
g763
sI1716
g968
sI1717
g1110
sI1718
g69
sI1719
g352
sI1720
g1440
sI1721
g1865
sI1722
g949
sI1723
g34
sI1724
g319
sI1725
g1304
sI1726
g175
sI1727
g1679
sI1728
g1215
sI1729
g1390
sI1730
g1783
sI1731
g1605
sI1732
g1384
sI1733
g12
sI1734
g488
sI1735
g969
sI1736
g1109
sI1737
g554
sI1738
g1194
sI1739
g1680
sI1740
g446
sI1741
g1628
sI1742
g660
sI1743
g298
sI1744
g1387
sI1745
g223
sI1746
g841
sI1747
g1526
sI1748
g120
sI1749
g1548
sI1750
g1575
sI1751
g1824
sI1752
g584
sI1753
g114
sI1754
g802
sI1755
g855
sI1756
g259
sI1757
g308
sI1758
g701
sI1759
g60
sI1760
g1201
sI1761
g1823
sI1762
g1128
sI1763
g806
sI1764
g1091
sI1765
g1791
sI1766
g751
sI1767
g1645
sI1768
g1884
sI1769
g158
sI1770
g1200
sI1771
g323
sI1772
g1075
sI1773
g643
sI1774
g1626
sI1775
g1585
sI1776
g1327
sI1777
g1442
sI1778
g309
sI1779
g191
sI1780
g1363
sI1781
g566
sI1782
g1176
sI1783
g145
sI1784
g962
sI1785
g1856
sI1786
g565
sI1787
g1754
sI1788
g1753
sI1789
g509
sI1790
g101
sI1791
g991
sI1792
g1242
sI1793
g359
sI1794
g795
sI1795
g784
sI1796
g1338
sI1797
g1392
sI1798
g346
sI1799
g1685
sI1800
g214
sI1801
g229
sI1802
g404
sI1803
g904
sI1804
g1502
sI1805
g1781
sI1806
g599
sI1807
g765
sI1808
g1648
sI1809
g1329
sI1810
g1801
sI1811
g1752
sI1812
g151
sI1813
g935
sI1814
g1860
sI1815
g1560
sI1816
g1454
sI1817
g1676
sI1818
g510
sI1819
g109
sI1820
g1351
sI1821
g1773
sI1822
g1580
sI1823
g448
sI1824
g1398
sI1825
g1530
sI1826
g1100
sI1827
g1083
sI1828
g732
sI1829
g636
sI1830
g357
sI1831
g1319
sI1832
g807
sI1833
g518
sI1834
g241
sI1835
g1414
sI1836
g646
sI1837
g419
sI1838
g769
sI1839
g1767
sI1840
g785
sI1841
g1010
sI1842
g273
sI1843
g753
sI1844
g267
sI1845
g80
sI1846
g764
sI1847
g779
sI1848
g690
sI1849
g814
sI1850
g1309
sI1851
g1714
sI1852
g544
sI1853
g622
sI1854
g589
sI1855
g988
sI1856
g782
sI1857
g1321
sI1858
g1603
sI1859
g1216
sI1860
g328
sI1861
g1573
sI1862
g452
sI1863
g600
sI1864
g506
sI1865
g1313
sI1866
g140
sI1867
g1373
sI1868
g685
sI1869
g1056
sI1870
g283
sI1871
g28
sI1872
g1643
sI1873
g294
sI1874
g882
sI1875
VOffice Storage & Organization|Storage & Organization\u000a
p1921
sI1876
g1357
sI1877
g1505
sI1878
g993
sI1879
g1563
ssS'num_pos'
p1922
I1188185
sb.