((lp0
cnumpy.core.multiarray
scalar
p1
(cnumpy
dtype
p2
(S'S18'
p3
I0
I1
tp4
Rp5
(I3
S'|'
p6
NNNI18
I1
I0
tp7
bS'Framing a New Wall'
p8
tp9
Rp10
ag1
(g2
(S'S24'
p11
I0
I1
tp12
Rp13
(I3
S'|'
p14
NNNI24
I1
I0
tp15
bS'Installing Wall Cabinets'
p16
tp17
Rp18
ag1
(g2
(S'S20'
p19
I0
I1
tp20
Rp21
(I3
S'|'
p22
NNNI20
I1
I0
tp23
bS'Assembling the Swing'
p24
tp25
Rp26
ag1
(g2
(S'S26'
p27
I0
I1
tp28
Rp29
(I3
S'|'
p30
NNNI26
I1
I0
tp31
bS'Installing a Security Lock'
p32
tp33
Rp34
ag1
(g2
(S'S41'
p35
I0
I1
tp36
Rp37
(I3
S'|'
p38
NNNI41
I1
I0
tp39
bS'Installing Hard-Wired Smoke and CO Alarms'
p40
tp41
Rp42
ag1
(g2
(S'S23'
p43
I0
I1
tp44
Rp45
(I3
S'|'
p46
NNNI23
I1
I0
tp47
bS'Installing a Shower Pan'
p48
tp49
Rp50
ag1
(g2
(S'S14'
p51
I0
I1
tp52
Rp53
(I3
S'|'
p54
NNNI14
I1
I0
tp55
bS'Staking a Tree'
p56
tp57
Rp58
ag1
(g2
(S'S19'
p59
I0
I1
tp60
Rp61
(I3
S'|'
p62
NNNI19
I1
I0
tp63
bS'Refinishing a Floor'
p64
tp65
Rp66
ag1
(g2
(S'S24'
p67
I0
I1
tp68
Rp69
(I3
S'|'
p70
NNNI24
I1
I0
tp71
bS'Installing a Paver Patio'
p72
tp73
Rp74
ag1
(g2
(S'S25'
p75
I0
I1
tp76
Rp77
(I3
S'|'
p78
NNNI25
I1
I0
tp79
bS'Laying Out Straight Edges'
p80
tp81
Rp82
ag1
(g2
(S'S15'
p83
I0
I1
tp84
Rp85
(I3
S'|'
p86
NNNI15
I1
I0
tp87
bS'Removing Stains'
p88
tp89
Rp90
ag1
(g2
(S'S32'
p91
I0
I1
tp92
Rp93
(I3
S'|'
p94
NNNI32
I1
I0
tp95
bS'Framing a Pre-hung Interior Door'
p96
tp97
Rp98
ag1
(g2
(S'S23'
p99
I0
I1
tp100
Rp101
(I3
S'|'
p102
NNNI23
I1
I0
tp103
bS'Replacing a Sewage Pump'
p104
tp105
Rp106
ag1
(g2
(S'S18'
p107
I0
I1
tp108
Rp109
(I3
S'|'
p110
NNNI18
I1
I0
tp111
bS'Renewing Your Deck'
p112
tp113
Rp114
ag1
(g2
(S'S16'
p115
I0
I1
tp116
Rp117
(I3
S'|'
p118
NNNI16
I1
I0
tp119
bS'Staining Windows'
p120
tp121
Rp122
ag1
(g2
(S'S20'
p123
I0
I1
tp124
Rp125
(I3
S'|'
p126
NNNI20
I1
I0
tp127
bS'Priming Is Essential'
p128
tp129
Rp130
ag1
(g2
(S'S25'
p131
I0
I1
tp132
Rp133
(I3
S'|'
p134
NNNI25
I1
I0
tp135
bS'Painting an Interior Door'
p136
tp137
Rp138
ag1
(g2
(S'S28'
p139
I0
I1
tp140
Rp141
(I3
S'|'
p142
NNNI28
I1
I0
tp143
bS'Installing a GFCI Receptacle'
p144
tp145
Rp146
ag1
(g2
(S'S31'
p147
I0
I1
tp148
Rp149
(I3
S'|'
p150
NNNI31
I1
I0
tp151
bS'Installing a Garage Door Opener'
p152
tp153
Rp154
ag1
(g2
(S'S23'
p155
I0
I1
tp156
Rp157
(I3
S'|'
p158
NNNI23
I1
I0
tp159
bS'How To Build a Fire Pit'
p160
tp161
Rp162
ag1
(g2
(S'S42'
p163
I0
I1
tp164
Rp165
(I3
S'|'
p166
NNNI42
I1
I0
tp167
bS'Stopping Squeaks in Your Floors and Stairs'
p168
tp169
Rp170
ag1
(g2
(S'S26'
p171
I0
I1
tp172
Rp173
(I3
S'|'
p174
NNNI26
I1
I0
tp175
bS'How To Install an Intercom'
p176
tp177
Rp178
ag1
(g2
(S'S21'
p179
I0
I1
tp180
Rp181
(I3
S'|'
p182
NNNI21
I1
I0
tp183
bS'Overseeding Your Lawn'
p184
tp185
Rp186
ag1
(g2
(S'S32'
p187
I0
I1
tp188
Rp189
(I3
S'|'
p190
NNNI32
I1
I0
tp191
bS'Weatherproofing Other Door Types'
p192
tp193
Rp194
ag1
(g2
(S'S21'
p195
I0
I1
tp196
Rp197
(I3
S'|'
p198
NNNI21
I1
I0
tp199
bS'Removing Old Cabinets'
p200
tp201
Rp202
ag1
(g2
(S'S32'
p203
I0
I1
tp204
Rp205
(I3
S'|'
p206
NNNI32
I1
I0
tp207
bS'Building Your Own Fence Sections'
p208
tp209
Rp210
ag1
(g2
(S'S29'
p211
I0
I1
tp212
Rp213
(I3
S'|'
p214
NNNI29
I1
I0
tp215
bS'Storing Summer-Blooming Bulbs'
p216
tp217
Rp218
ag1
(g2
(S'S31'
p219
I0
I1
tp220
Rp221
(I3
S'|'
p222
NNNI31
I1
I0
tp223
bS'Planting Summer-Flowering Bulbs'
p224
tp225
Rp226
ag1
(g2
(S'S31'
p227
I0
I1
tp228
Rp229
(I3
S'|'
p230
NNNI31
I1
I0
tp231
bS'Troubleshooting Your Thermostat'
p232
tp233
Rp234
ag1
(g2
(S'S33'
p235
I0
I1
tp236
Rp237
(I3
S'|'
p238
NNNI33
I1
I0
tp239
bS'Patching Large Holes in Wallboard'
p240
tp241
Rp242
ag1
(g2
(S'S15'
p243
I0
I1
tp244
Rp245
(I3
S'|'
p246
NNNI15
I1
I0
tp247
bS'Removing Mildew'
p248
tp249
Rp250
ag1
(g2
(S'S22'
p251
I0
I1
tp252
Rp253
(I3
S'|'
p254
NNNI22
I1
I0
tp255
bS'Installing a Spa Panel'
p256
tp257
Rp258
ag1
(g2
(S'S33'
p259
I0
I1
tp260
Rp261
(I3
S'|'
p262
NNNI33
I1
I0
tp263
bS'Picnic Table with Built-in Cooler'
p264
tp265
Rp266
ag1
(g2
(S'S42'
p267
I0
I1
tp268
Rp269
(I3
S'|'
p270
NNNI42
I1
I0
tp271
bS'How To Install a Two Handle Kitchen Faucet'
p272
tp273
Rp274
ag1
(g2
(S'S23'
p275
I0
I1
tp276
Rp277
(I3
S'|'
p278
NNNI23
I1
I0
tp279
bS'Christmas Ornament Tree'
p280
tp281
Rp282
ag1
(g2
(S'S14'
p283
I0
I1
tp284
Rp285
(I3
S'|'
p286
NNNI14
I1
I0
tp287
bS'Removing Paint'
p288
tp289
Rp290
ag1
(g2
(S'S25'
p291
I0
I1
tp292
Rp293
(I3
S'|'
p294
NNNI25
I1
I0
tp295
bS'Shower Faucet Replacement'
p296
tp297
Rp298
ag1
(g2
(S'S34'
p299
I0
I1
tp300
Rp301
(I3
S'|'
p302
NNNI34
I1
I0
tp303
bS'Aligning the Bolt and Strike Plate'
p304
tp305
Rp306
ag1
(g2
(S'S17'
p307
I0
I1
tp308
Rp309
(I3
S'|'
p310
NNNI17
I1
I0
tp311
bS'Patching a Screen'
p312
tp313
Rp314
ag1
(g2
(S'S23'
p315
I0
I1
tp316
Rp317
(I3
S'|'
p318
NNNI23
I1
I0
tp319
bS'Affordable Bath Updates'
p320
tp321
Rp322
ag1
(g2
(S'S20'
p323
I0
I1
tp324
Rp325
(I3
S'|'
p326
NNNI20
I1
I0
tp327
bS'Laying Out the Posts'
p328
tp329
Rp330
ag1
(g2
(S'S19'
p331
I0
I1
tp332
Rp333
(I3
S'|'
p334
NNNI19
I1
I0
tp335
bS'Stripping Furniture'
p336
tp337
Rp338
ag1
(g2
(S'S44'
p339
I0
I1
tp340
Rp341
(I3
S'|'
p342
NNNI44
I1
I0
tp343
bS'Preparing the Arm Assemblies and Seat Slates'
p344
tp345
Rp346
ag1
(g2
(S'S36'
p347
I0
I1
tp348
Rp349
(I3
S'|'
p350
NNNI36
I1
I0
tp351
bS'Replacing a Screen in a Wooden Frame'
p352
tp353
Rp354
ag1
(g2
(S'S32'
p355
I0
I1
tp356
Rp357
(I3
S'|'
p358
NNNI32
I1
I0
tp359
bS'Installing Cabinet Drawer Fronts'
p360
tp361
Rp362
ag1
(g2
(S'S35'
p363
I0
I1
tp364
Rp365
(I3
S'|'
p366
NNNI35
I1
I0
tp367
bS'Replacing a Water Heater Thermostat'
p368
tp369
Rp370
ag1
(g2
(S'S30'
p371
I0
I1
tp372
Rp373
(I3
S'|'
p374
NNNI30
I1
I0
tp375
bS'How To Install an AFCI Breaker'
p376
tp377
Rp378
ag1
(g2
(S'S32'
p379
I0
I1
tp380
Rp381
(I3
S'|'
p382
NNNI32
I1
I0
tp383
bS'Repairing Cartridge Sink Faucets'
p384
tp385
Rp386
ag1
(g2
(S'S46'
p387
I0
I1
tp388
Rp389
(I3
S'|'
p390
NNNI46
I1
I0
tp391
bS'Installing Audio and Video Cables Behind Walls'
p392
tp393
Rp394
ag1
(g2
(S'S25'
p395
I0
I1
tp396
Rp397
(I3
S'|'
p398
NNNI25
I1
I0
tp399
bS'Glass Window Installation'
p400
tp401
Rp402
ag1
(g2
(S'S34'
p403
I0
I1
tp404
Rp405
(I3
S'|'
p406
NNNI34
I1
I0
tp407
bS'Installing Precast Concrete Edging'
p408
tp409
Rp410
ag1
(g2
(S'S23'
p411
I0
I1
tp412
Rp413
(I3
S'|'
p414
NNNI23
I1
I0
tp415
bS'Installing a Storm Door'
p416
tp417
Rp418
ag1
(g2
(S'S33'
p419
I0
I1
tp420
Rp421
(I3
S'|'
p422
NNNI33
I1
I0
tp423
bS'Getting Ready to Install Cabinets'
p424
tp425
Rp426
ag1
(g2
(S'S40'
p427
I0
I1
tp428
Rp429
(I3
S'|'
p430
NNNI40
I1
I0
tp431
bS'Building Your Own Portable Grill Station'
p432
tp433
Rp434
ag1
(g2
(S'S42'
p435
I0
I1
tp436
Rp437
(I3
S'|'
p438
NNNI42
I1
I0
tp439
bS'Cutting and Connecting Rigid Plastic Pipes'
p440
tp441
Rp442
ag1
(g2
(S'S19'
p443
I0
I1
tp444
Rp445
(I3
S'|'
p446
NNNI19
I1
I0
tp447
bS'Dividing Perennials'
p448
tp449
Rp450
ag1
(g2
(S'S17'
p451
I0
I1
tp452
Rp453
(I3
S'|'
p454
NNNI17
I1
I0
tp455
bS'Feeding Your Lawn'
p456
tp457
Rp458
ag1
(g2
(S'S25'
p459
I0
I1
tp460
Rp461
(I3
S'|'
p462
NNNI25
I1
I0
tp463
bS'Replacing a Stair Railing'
p464
tp465
Rp466
ag1
(g2
(S'S42'
p467
I0
I1
tp468
Rp469
(I3
S'|'
p470
NNNI42
I1
I0
tp471
bS'How To Install Electrical Conduit Outdoors'
p472
tp473
Rp474
ag1
(g2
(S'S23'
p475
I0
I1
tp476
Rp477
(I3
S'|'
p478
NNNI23
I1
I0
tp479
bS'Removing a Ceramic Tile'
p480
tp481
Rp482
ag1
(g2
(S'S38'
p483
I0
I1
tp484
Rp485
(I3
S'|'
p486
NNNI38
I1
I0
tp487
bS'Cutting a Cope Joint on Crown Moulding'
p488
tp489
Rp490
ag1
(g2
(S'S15'
p491
I0
I1
tp492
Rp493
(I3
S'|'
p494
NNNI15
I1
I0
tp495
bS'Pruning a Hedge'
p496
tp497
Rp498
ag1
(g2
(S'S30'
p499
I0
I1
tp500
Rp501
(I3
S'|'
p502
NNNI30
I1
I0
tp503
bS'Replacing a Single Pole Switch'
p504
tp505
Rp506
ag1
(g2
(S'S27'
p507
I0
I1
tp508
Rp509
(I3
S'|'
p510
NNNI27
I1
I0
tp511
bS'Replacing a Worn Valve Seat'
p512
tp513
Rp514
ag1
(g2
(S'S31'
p515
I0
I1
tp516
Rp517
(I3
S'|'
p518
NNNI31
I1
I0
tp519
bS'How To Maintain Your Lawn Mower'
p520
tp521
Rp522
ag1
(g2
(S'S25'
p523
I0
I1
tp524
Rp525
(I3
S'|'
p526
NNNI25
I1
I0
tp527
bS'Building a Low-Level Deck'
p528
tp529
Rp530
ag1
(g2
(S'S39'
p531
I0
I1
tp532
Rp533
(I3
S'|'
p534
NNNI39
I1
I0
tp535
bS'How To Make a Holiday Wreath Chandelier'
p536
tp537
Rp538
ag1
(g2
(S'S35'
p539
I0
I1
tp540
Rp541
(I3
S'|'
p542
NNNI35
I1
I0
tp543
bS'How To Choose a Bathroom Vanity Top'
p544
tp545
Rp546
ag1
(g2
(S'S24'
p547
I0
I1
tp548
Rp549
(I3
S'|'
p550
NNNI24
I1
I0
tp551
bS'Finishing Inside Corners'
p552
tp553
Rp554
ag1
(g2
(S'S47'
p555
I0
I1
tp556
Rp557
(I3
S'|'
p558
NNNI47
I1
I0
tp559
bS'Preparing Your Subfloor for a Tile Installation'
p560
tp561
Rp562
ag1
(g2
(S'S37'
p563
I0
I1
tp564
Rp565
(I3
S'|'
p566
NNNI37
I1
I0
tp567
bS'How To Install a Home Security System'
p568
tp569
Rp570
ag1
(g2
(S'S34'
p571
I0
I1
tp572
Rp573
(I3
S'|'
p574
NNNI34
I1
I0
tp575
bS'Adding Mulch Helps Your Plants Pop'
p576
tp577
Rp578
ag1
(g2
(S'S17'
p579
I0
I1
tp580
Rp581
(I3
S'|'
p582
NNNI17
I1
I0
tp583
bS'Preparing the Bed'
p584
tp585
Rp586
ag1
(g2
(S'S29'
p587
I0
I1
tp588
Rp589
(I3
S'|'
p590
NNNI29
I1
I0
tp591
bS'Holiday Landscape Centerpiece'
p592
tp593
Rp594
ag1
(g2
(S'S39'
p595
I0
I1
tp596
Rp597
(I3
S'|'
p598
NNNI39
I1
I0
tp599
bS'Replacing a Screen in an Aluminum Frame'
p600
tp601
Rp602
ag1
(g2
(S'S27'
p603
I0
I1
tp604
Rp605
(I3
S'|'
p606
NNNI27
I1
I0
tp607
bS'Installing a New Showerhead'
p608
tp609
Rp610
ag1
(g2
(S'S34'
p611
I0
I1
tp612
Rp613
(I3
S'|'
p614
NNNI34
I1
I0
tp615
bS'Pruning a Hybrid Tea or Shrub Rose'
p616
tp617
Rp618
ag1
(g2
(S'S26'
p619
I0
I1
tp620
Rp621
(I3
S'|'
p622
NNNI26
I1
I0
tp623
bS'Installing Plastic  Edging'
p624
tp625
Rp626
ag1
(g2
(S'S42'
p627
I0
I1
tp628
Rp629
(I3
S'|'
p630
NNNI42
I1
I0
tp631
bS'How to Make an Herb Tower Container Garden'
p632
tp633
Rp634
ag1
(g2
(S'S37'
p635
I0
I1
tp636
Rp637
(I3
S'|'
p638
NNNI37
I1
I0
tp639
bS'How To Crimp a Connector onto a Cable'
p640
tp641
Rp642
ag1
(g2
(S'S17'
p643
I0
I1
tp644
Rp645
(I3
S'|'
p646
NNNI17
I1
I0
tp647
bS'Interior Shutters'
p648
tp649
Rp650
ag1
(g2
(S'S36'
p651
I0
I1
tp652
Rp653
(I3
S'|'
p654
NNNI36
I1
I0
tp655
bS'Installing Split-Jamb Interior Doors'
p656
tp657
Rp658
ag1
(g2
(S'S35'
p659
I0
I1
tp660
Rp661
(I3
S'|'
p662
NNNI35
I1
I0
tp663
bS'Installing a Drip Irrigation System'
p664
tp665
Rp666
ag1
(g2
(S'S36'
p667
I0
I1
tp668
Rp669
(I3
S'|'
p670
NNNI36
I1
I0
tp671
bS'Connecting Faucets with Supply Tubes'
p672
tp673
Rp674
ag1
(g2
(S'S22'
p675
I0
I1
tp676
Rp677
(I3
S'|'
p678
NNNI22
I1
I0
tp679
bS'Laying Out Garden Beds'
p680
tp681
Rp682
ag1
(g2
(S'S35'
p683
I0
I1
tp684
Rp685
(I3
S'|'
p686
NNNI35
I1
I0
tp687
bS'Installing a Plunger Valve Ballcock'
p688
tp689
Rp690
ag1
(g2
(S'S34'
p691
I0
I1
tp692
Rp693
(I3
S'|'
p694
NNNI34
I1
I0
tp695
bS'Installing Landscape Timber Edging'
p696
tp697
Rp698
ag1
(g2
(S'S16'
p699
I0
I1
tp700
Rp701
(I3
S'|'
p702
NNNI16
I1
I0
tp703
bS'Planting Flowers'
p704
tp705
Rp706
ag1
(g2
(S'S32'
p707
I0
I1
tp708
Rp709
(I3
S'|'
p710
NNNI32
I1
I0
tp711
bS'Installing an Evaporative Cooler'
p712
tp713
Rp714
ag1
(g2
(S'S30'
p715
I0
I1
tp716
Rp717
(I3
S'|'
p718
NNNI30
I1
I0
tp719
bS'Hanging and Arranging Pictures'
p720
tp721
Rp722
ag1
(g2
(S'S37'
p723
I0
I1
tp724
Rp725
(I3
S'|'
p726
NNNI37
I1
I0
tp727
bS'How To Make a Monogram Garland Wreath'
p728
tp729
Rp730
ag1
(g2
(S'S21'
p731
I0
I1
tp732
Rp733
(I3
S'|'
p734
NNNI21
I1
I0
tp735
bS'Creating a Flower Bed'
p736
tp737
Rp738
ag1
(g2
(S'S25'
p739
I0
I1
tp740
Rp741
(I3
S'|'
p742
NNNI25
I1
I0
tp743
bS'Patching a Lawn with Seed'
p744
tp745
Rp746
ag1
(g2
(S'S45'
p747
I0
I1
tp748
Rp749
(I3
S'|'
p750
NNNI45
I1
I0
tp751
bS'How To Install a Single Handle Kitchen Faucet'
p752
tp753
Rp754
ag1
(g2
(S'S31'
p755
I0
I1
tp756
Rp757
(I3
S'|'
p758
NNNI31
I1
I0
tp759
bS'Installing Shower Walls-Glue-Up'
p760
tp761
Rp762
ag1
(g2
(S'S16'
p763
I0
I1
tp764
Rp765
(I3
S'|'
p766
NNNI16
I1
I0
tp767
bS'Planting a Shrub'
p768
tp769
Rp770
ag1
(g2
(S'S48'
p771
I0
I1
tp772
Rp773
(I3
S'|'
p774
NNNI48
I1
I0
tp775
bS'Installing a New Kitchen Faucet and Side Sprayer'
p776
tp777
Rp778
ag1
(g2
(S'S13'
p779
I0
I1
tp780
Rp781
(I3
S'|'
p782
NNNI13
I1
I0
tp783
bS'Painting Trim'
p784
tp785
Rp786
ag1
(g2
(S'S32'
p787
I0
I1
tp788
Rp789
(I3
S'|'
p790
NNNI32
I1
I0
tp791
bS'Water Heater Installation Basics'
p792
tp793
Rp794
ag1
(g2
(S'S24'
p795
I0
I1
tp796
Rp797
(I3
S'|'
p798
NNNI24
I1
I0
tp799
bS'Replacing a Deck Railing'
p800
tp801
Rp802
ag1
(g2
(S'S23'
p803
I0
I1
tp804
Rp805
(I3
S'|'
p806
NNNI23
I1
I0
tp807
bS'Mitering Border Corners'
p808
tp809
Rp810
ag1
(g2
(S'S23'
p811
I0
I1
tp812
Rp813
(I3
S'|'
p814
NNNI23
I1
I0
tp815
bS'Installing a Thermostat'
p816
tp817
Rp818
ag1
(g2
(S'S23'
p819
I0
I1
tp820
Rp821
(I3
S'|'
p822
NNNI23
I1
I0
tp823
bS'Installing a Dryer Vent'
p824
tp825
Rp826
ag1
(g2
(S'S19'
p827
I0
I1
tp828
Rp829
(I3
S'|'
p830
NNNI19
I1
I0
tp831
bS'Cutting New Borders'
p832
tp833
Rp834
ag1
(g2
(S'S39'
p835
I0
I1
tp836
Rp837
(I3
S'|'
p838
NNNI39
I1
I0
tp839
bS'How To Create a Three Season Garden Bed'
p840
tp841
Rp842
ag1
(g2
(S'S20'
p843
I0
I1
tp844
Rp845
(I3
S'|'
p846
NNNI20
I1
I0
tp847
bS'Replacing a Doorbell'
p848
tp849
Rp850
ag1
(g2
(S'S34'
p851
I0
I1
tp852
Rp853
(I3
S'|'
p854
NNNI34
I1
I0
tp855
bS'Weatherproofing Other Window Types'
p856
tp857
Rp858
ag1
(g2
(S'S28'
p859
I0
I1
tp860
Rp861
(I3
S'|'
p862
NNNI28
I1
I0
tp863
bS'Building a Ground-Level Deck'
p864
tp865
Rp866
ag1
(g2
(S'S22'
p867
I0
I1
tp868
Rp869
(I3
S'|'
p870
NNNI22
I1
I0
tp871
bS'Installing Wood Edging'
p872
tp873
Rp874
ag1
(g2
(S'S19'
p875
I0
I1
tp876
Rp877
(I3
S'|'
p878
NNNI19
I1
I0
tp879
bS'Secure Your Windows'
p880
tp881
Rp882
ag1
(g2
(S'S43'
p883
I0
I1
tp884
Rp885
(I3
S'|'
p886
NNNI43
I1
I0
tp887
bS'Installing a New Flush Valve in Your Toilet'
p888
tp889
Rp890
ag1
(g2
(S'S32'
p891
I0
I1
tp892
Rp893
(I3
S'|'
p894
NNNI32
I1
I0
tp895
bS'Repairing Leaky Downspout Joints'
p896
tp897
Rp898
ag1
(g2
(S'S24'
p899
I0
I1
tp900
Rp901
(I3
S'|'
p902
NNNI24
I1
I0
tp903
bS'Build an Outdoor Kitchen'
p904
tp905
Rp906
ag1
(g2
(S'S25'
p907
I0
I1
tp908
Rp909
(I3
S'|'
p910
NNNI25
I1
I0
tp911
bS'Painting Vertical Stripes'
p912
tp913
Rp914
ag1
(g2
(S'S28'
p915
I0
I1
tp916
Rp917
(I3
S'|'
p918
NNNI28
I1
I0
tp919
bS'Installing Horizontal Blinds'
p920
tp921
Rp922
ag1
(g2
(S'S38'
p923
I0
I1
tp924
Rp925
(I3
S'|'
p926
NNNI38
I1
I0
tp927
bS'Installing a Gas Tankless Water Heater'
p928
tp929
Rp930
ag1
(g2
(S'S22'
p931
I0
I1
tp932
Rp933
(I3
S'|'
p934
NNNI22
I1
I0
tp935
bS'Laying Out Floor Tiles'
p936
tp937
Rp938
ag1
(g2
(S'S30'
p939
I0
I1
tp940
Rp941
(I3
S'|'
p942
NNNI30
I1
I0
tp943
bS'Replacing a Tile in Your Floor'
p944
tp945
Rp946
ag1
(g2
(S'S39'
p947
I0
I1
tp948
Rp949
(I3
S'|'
p950
NNNI39
I1
I0
tp951
bS'Making Minor Adjustments to Your Toilet'
p952
tp953
Rp954
ag1
(g2
(S'S27'
p955
I0
I1
tp956
Rp957
(I3
S'|'
p958
NNNI27
I1
I0
tp959
bS'Pruning Large Tree Branches'
p960
tp961
Rp962
ag1
(g2
(S'S25'
p963
I0
I1
tp964
Rp965
(I3
S'|'
p966
NNNI25
I1
I0
tp967
bS'Installing Track Lighting'
p968
tp969
Rp970
ag1
(g2
(S'S31'
p971
I0
I1
tp972
Rp973
(I3
S'|'
p974
NNNI31
I1
I0
tp975
bS'Installing a Cement Backerboard'
p976
tp977
Rp978
ag1
(g2
(S'S27'
p979
I0
I1
tp980
Rp981
(I3
S'|'
p982
NNNI27
I1
I0
tp983
bS'How To Weatherize Your Home'
p984
tp985
Rp986
ag1
(g2
(S'S15'
p987
I0
I1
tp988
Rp989
(I3
S'|'
p990
NNNI15
I1
I0
tp991
bS'Removing Carpet'
p992
tp993
Rp994
ag1
(g2
(S'S22'
p995
I0
I1
tp996
Rp997
(I3
S'|'
p998
NNNI22
I1
I0
tp999
bS'Installing an Icemaker'
p1000
tp1001
Rp1002
ag1
(g2
(S'S33'
p1003
I0
I1
tp1004
Rp1005
(I3
S'|'
p1006
NNNI33
I1
I0
tp1007
bS'Lawn Watering Tips and Techniques'
p1008
tp1009
Rp1010
ag1
(g2
(S'S25'
p1011
I0
I1
tp1012
Rp1013
(I3
S'|'
p1014
NNNI25
I1
I0
tp1015
bS'Running a New Supply Line'
p1016
tp1017
Rp1018
ag1
(g2
(S'S35'
p1019
I0
I1
tp1020
Rp1021
(I3
S'|'
p1022
NNNI35
I1
I0
tp1023
bS'How To Make a Christmas Centerpiece'
p1024
tp1025
Rp1026
ag1
(g2
(S'S45'
p1027
I0
I1
tp1028
Rp1029
(I3
S'|'
p1030
NNNI45
I1
I0
tp1031
bS'Extending Power to Outlets with Metal Raceway'
p1032
tp1033
Rp1034
ag1
(g2
(S'S20'
p1035
I0
I1
tp1036
Rp1037
(I3
S'|'
p1038
NNNI20
I1
I0
tp1039
bS'Build a Flower Tower'
p1040
tp1041
Rp1042
ag1
(g2
(S'S32'
p1043
I0
I1
tp1044
Rp1045
(I3
S'|'
p1046
NNNI32
I1
I0
tp1047
bS'How To Install a Tile Backsplash'
p1048
tp1049
Rp1050
ag1
(g2
(S'S28'
p1051
I0
I1
tp1052
Rp1053
(I3
S'|'
p1054
NNNI28
I1
I0
tp1055
bS'Installing Flat Brick Edging'
p1056
tp1057
Rp1058
ag1
(g2
(S'S24'
p1059
I0
I1
tp1060
Rp1061
(I3
S'|'
p1062
NNNI24
I1
I0
tp1063
bS'Replacing the Dishwasher'
p1064
tp1065
Rp1066
ag1
(g2
(S'S25'
p1067
I0
I1
tp1068
Rp1069
(I3
S'|'
p1070
NNNI25
I1
I0
tp1071
bS'Laying Out Square Corners'
p1072
tp1073
Rp1074
ag1
(g2
(S'S28'
p1075
I0
I1
tp1076
Rp1077
(I3
S'|'
p1078
NNNI28
I1
I0
tp1079
bS'Installing a Shower Surround'
p1080
tp1081
Rp1082
ag1
(g2
(S'S21'
p1083
I0
I1
tp1084
Rp1085
(I3
S'|'
p1086
NNNI21
I1
I0
tp1087
bS'Changing a Dryer Cord'
p1088
tp1089
Rp1090
ag1
(g2
(S'S28'
p1091
I0
I1
tp1092
Rp1093
(I3
S'|'
p1094
NNNI28
I1
I0
tp1095
bS'Maintaining Your Storm Doors'
p1096
tp1097
Rp1098
ag1
(g2
(S'S19'
p1099
I0
I1
tp1100
Rp1101
(I3
S'|'
p1102
NNNI19
I1
I0
tp1103
bS'Installing a Toilet'
p1104
tp1105
Rp1106
ag1
(g2
(S'S28'
p1107
I0
I1
tp1108
Rp1109
(I3
S'|'
p1110
NNNI28
I1
I0
tp1111
bS'Protecting a Rose for Winter'
p1112
tp1113
Rp1114
ag1
(g2
(S'S36'
p1115
I0
I1
tp1116
Rp1117
(I3
S'|'
p1118
NNNI36
I1
I0
tp1119
bS'Countertop Care and Maintenance Tips'
p1120
tp1121
Rp1122
ag1
(g2
(S'S29'
p1123
I0
I1
tp1124
Rp1125
(I3
S'|'
p1126
NNNI29
I1
I0
tp1127
bS'Installing a Chain-Link Fence'
p1128
tp1129
Rp1130
ag1
(g2
(S'S31'
p1131
I0
I1
tp1132
Rp1133
(I3
S'|'
p1134
NNNI31
I1
I0
tp1135
bS'Preparing Perennials for Winter'
p1136
tp1137
Rp1138
ag1
(g2
(S'S22'
p1139
I0
I1
tp1140
Rp1141
(I3
S'|'
p1142
NNNI22
I1
I0
tp1143
bS'Painting Window Frames'
p1144
tp1145
Rp1146
ag1
(g2
(S'S30'
p1147
I0
I1
tp1148
Rp1149
(I3
S'|'
p1150
NNNI30
I1
I0
tp1151
bS'Affordable Kitchen Decor Ideas'
p1152
tp1153
Rp1154
ag1
(g2
(S'S22'
p1155
I0
I1
tp1156
Rp1157
(I3
S'|'
p1158
NNNI22
I1
I0
tp1159
bS'Installing a Tub Spout'
p1160
tp1161
Rp1162
ag1
(g2
(S'S28'
p1163
I0
I1
tp1164
Rp1165
(I3
S'|'
p1166
NNNI28
I1
I0
tp1167
bS'Adding a Telephone Extension'
p1168
tp1169
Rp1170
ag1
(g2
(S'S21'
p1171
I0
I1
tp1172
Rp1173
(I3
S'|'
p1174
NNNI21
I1
I0
tp1175
bS'Installing a Roof Fan'
p1176
tp1177
Rp1178
ag1
(g2
(S'S26'
p1179
I0
I1
tp1180
Rp1181
(I3
S'|'
p1182
NNNI26
I1
I0
tp1183
bS'Create a Wildflower Garden'
p1184
tp1185
Rp1186
ag1
(g2
(S'S26'
p1187
I0
I1
tp1188
Rp1189
(I3
S'|'
p1190
NNNI26
I1
I0
tp1191
bS'Pruning Needled Evergreens'
p1192
tp1193
Rp1194
ag1
(g2
(S'S29'
p1195
I0
I1
tp1196
Rp1197
(I3
S'|'
p1198
NNNI29
I1
I0
tp1199
bS'Repairing Compression Faucets'
p1200
tp1201
Rp1202
ag1
(g2
(S'S16'
p1203
I0
I1
tp1204
Rp1205
(I3
S'|'
p1206
NNNI16
I1
I0
tp1207
bS'Using a Heat Gun'
p1208
tp1209
Rp1210
ag1
(g2
(S'S20'
p1211
I0
I1
tp1212
Rp1213
(I3
S'|'
p1214
NNNI20
I1
I0
tp1215
bS'Replacing Door Pulls'
p1216
tp1217
Rp1218
ag1
(g2
(S'S51'
p1219
I0
I1
tp1220
Rp1221
(I3
S'|'
p1222
NNNI51
I1
I0
tp1223
bS'Installing Recessed Lighting in an Existing Ceiling'
p1224
tp1225
Rp1226
ag1
(g2
(S'S12'
p1227
I0
I1
tp1228
Rp1229
(I3
S'|'
p1230
NNNI12
I1
I0
tp1231
bS'Sponging Off'
p1232
tp1233
Rp1234
ag1
(g2
(S'S36'
p1235
I0
I1
tp1236
Rp1237
(I3
S'|'
p1238
NNNI36
I1
I0
tp1239
bS'Roll-up Garage Door Maintenance Tips'
p1240
tp1241
Rp1242
ag1
(g2
(S'S22'
p1243
I0
I1
tp1244
Rp1245
(I3
S'|'
p1246
NNNI22
I1
I0
tp1247
bS'Minor Sidewalk Repairs'
p1248
tp1249
Rp1250
ag1
(g2
(S'S38'
p1251
I0
I1
tp1252
Rp1253
(I3
S'|'
p1254
NNNI38
I1
I0
tp1255
bS'Add a Wall Switch to a Ceiling Fixture'
p1256
tp1257
Rp1258
ag1
(g2
(S'S28'
p1259
I0
I1
tp1260
Rp1261
(I3
S'|'
p1262
NNNI28
I1
I0
tp1263
bS'Building a Wooden Raised Bed'
p1264
tp1265
Rp1266
ag1
(g2
(S'S24'
p1267
I0
I1
tp1268
Rp1269
(I3
S'|'
p1270
NNNI24
I1
I0
tp1271
bS'Repairing Concrete Steps'
p1272
tp1273
Rp1274
ag1
(g2
(S'S21'
p1275
I0
I1
tp1276
Rp1277
(I3
S'|'
p1278
NNNI21
I1
I0
tp1279
bS'Building a Wire Fence'
p1280
tp1281
Rp1282
ag1
(g2
(S'S32'
p1283
I0
I1
tp1284
Rp1285
(I3
S'|'
p1286
NNNI32
I1
I0
tp1287
bS'How To Decorate a Christmas Tree'
p1288
tp1289
Rp1290
ag1
(g2
(S'S29'
p1291
I0
I1
tp1292
Rp1293
(I3
S'|'
p1294
NNNI29
I1
I0
tp1295
bS'Removing an Old Tub or Shower'
p1296
tp1297
Rp1298
ag1
(g2
(S'S19'
p1299
I0
I1
tp1300
Rp1301
(I3
S'|'
p1302
NNNI19
I1
I0
tp1303
bS'Setting Floor Tiles'
p1304
tp1305
Rp1306
ag1
(g2
(S'S25'
p1307
I0
I1
tp1308
Rp1309
(I3
S'|'
p1310
NNNI25
I1
I0
tp1311
bS'Painting Exterior Windows'
p1312
tp1313
Rp1314
ag1
(g2
(S'S24'
p1315
I0
I1
tp1316
Rp1317
(I3
S'|'
p1318
NNNI24
I1
I0
tp1319
bS'Faux Painting - Sponging'
p1320
tp1321
Rp1322
ag1
(g2
(S'S17'
p1323
I0
I1
tp1324
Rp1325
(I3
S'|'
p1326
NNNI17
I1
I0
tp1327
bS'Removing a Toilet'
p1328
tp1329
Rp1330
ag1
(g2
(S'S27'
p1331
I0
I1
tp1332
Rp1333
(I3
S'|'
p1334
NNNI27
I1
I0
tp1335
bS'Unclogging Jammed Disposers'
p1336
tp1337
Rp1338
ag1
(g2
(S'S30'
p1339
I0
I1
tp1340
Rp1341
(I3
S'|'
p1342
NNNI30
I1
I0
tp1343
bS'Removing an Old Kitchen Faucet'
p1344
tp1345
Rp1346
ag1
(g2
(S'S35'
p1347
I0
I1
tp1348
Rp1349
(I3
S'|'
p1350
NNNI35
I1
I0
tp1351
bS'Building a Single-Level Raised Deck'
p1352
tp1353
Rp1354
ag1
(g2
(S'S31'
p1355
I0
I1
tp1356
Rp1357
(I3
S'|'
p1358
NNNI31
I1
I0
tp1359
bS'Installing Low-Voltage Lighting'
p1360
tp1361
Rp1362
ag1
(g2
(S'S23'
p1363
I0
I1
tp1364
Rp1365
(I3
S'|'
p1366
NNNI23
I1
I0
tp1367
bS'Painting Exterior Walls'
p1368
tp1369
Rp1370
ag1
(g2
(S'S34'
p1371
I0
I1
tp1372
Rp1373
(I3
S'|'
p1374
NNNI34
I1
I0
tp1375
bS'How To Build a Post-and-Rail Fence'
p1376
tp1377
Rp1378
ag1
(g2
(S'S20'
p1379
I0
I1
tp1380
Rp1381
(I3
S'|'
p1382
NNNI20
I1
I0
tp1383
bS'Pumpkin Carving Tips'
p1384
tp1385
Rp1386
ag1
(g2
(S'S20'
p1387
I0
I1
tp1388
Rp1389
(I3
S'|'
p1390
NNNI20
I1
I0
tp1391
bS'Installing Door Trim'
p1392
tp1393
Rp1394
ag1
(g2
(S'S23'
p1395
I0
I1
tp1396
Rp1397
(I3
S'|'
p1398
NNNI23
I1
I0
tp1399
bS'Setting Posts on a Pier'
p1400
tp1401
Rp1402
ag1
(g2
(S'S38'
p1403
I0
I1
tp1404
Rp1405
(I3
S'|'
p1406
NNNI38
I1
I0
tp1407
bS'How To Make a Terra Cotta Pot Fountain'
p1408
tp1409
Rp1410
ag1
(g2
(S'S35'
p1411
I0
I1
tp1412
Rp1413
(I3
S'|'
p1414
NNNI35
I1
I0
tp1415
bS'Replacing a Screen in a Metal Frame'
p1416
tp1417
Rp1418
ag1
(g2
(S'S27'
p1419
I0
I1
tp1420
Rp1421
(I3
S'|'
p1422
NNNI27
I1
I0
tp1423
bS'Installing Remodeling Boxes'
p1424
tp1425
Rp1426
ag1
(g2
(S'S27'
p1427
I0
I1
tp1428
Rp1429
(I3
S'|'
p1430
NNNI27
I1
I0
tp1431
bS'Painting Soffits and Fascia'
p1432
tp1433
Rp1434
ag1
(g2
(S'S31'
p1435
I0
I1
tp1436
Rp1437
(I3
S'|'
p1438
NNNI31
I1
I0
tp1439
bS'Weatherproofing Your Entry Door'
p1440
tp1441
Rp1442
ag1
(g2
(S'S26'
p1443
I0
I1
tp1444
Rp1445
(I3
S'|'
p1446
NNNI26
I1
I0
tp1447
bS'Installing a Dimmer Switch'
p1448
tp1449
Rp1450
ag1
(g2
(S'S18'
p1451
I0
I1
tp1452
Rp1453
(I3
S'|'
p1454
NNNI18
I1
I0
tp1455
bS'Caring for Annuals'
p1456
tp1457
Rp1458
ag1
(g2
(S'S28'
p1459
I0
I1
tp1460
Rp1461
(I3
S'|'
p1462
NNNI28
I1
I0
tp1463
bS'Mortising a Door Latch Three'
p1464
tp1465
Rp1466
ag1
(g2
(S'S42'
p1467
I0
I1
tp1468
Rp1469
(I3
S'|'
p1470
NNNI42
I1
I0
tp1471
bS'Keeping Your Weed Trimmer in Tip-Top Shape'
p1472
tp1473
Rp1474
ag1
(g2
(S'S22'
p1475
I0
I1
tp1476
Rp1477
(I3
S'|'
p1478
NNNI22
I1
I0
tp1479
bS'Installing a Gable Fan'
p1480
tp1481
Rp1482
ag1
(g2
(S'S38'
p1483
I0
I1
tp1484
Rp1485
(I3
S'|'
p1486
NNNI38
I1
I0
tp1487
bS'How To Install Solid Hardwood Flooring'
p1488
tp1489
Rp1490
ag1
(g2
(S'S21'
p1491
I0
I1
tp1492
Rp1493
(I3
S'|'
p1494
NNNI21
I1
I0
tp1495
bS'Maintaining Your Deck'
p1496
tp1497
Rp1498
ag1
(g2
(S'S27'
p1499
I0
I1
tp1500
Rp1501
(I3
S'|'
p1502
NNNI27
I1
I0
tp1503
bS'Repairing Decking or Joists'
p1504
tp1505
Rp1506
ag1
(g2
(S'S16'
p1507
I0
I1
tp1508
Rp1509
(I3
S'|'
p1510
NNNI16
I1
I0
tp1511
bS'Replacing a Step'
p1512
tp1513
Rp1514
ag1
(g2
(S'S35'
p1515
I0
I1
tp1516
Rp1517
(I3
S'|'
p1518
NNNI35
I1
I0
tp1519
bS'Installing an Underground Pet Fence'
p1520
tp1521
Rp1522
ag1
(g2
(S'S17'
p1523
I0
I1
tp1524
Rp1525
(I3
S'|'
p1526
NNNI17
I1
I0
tp1527
bS'Painting Ceilings'
p1528
tp1529
Rp1530
ag1
(g2
(S'S30'
p1531
I0
I1
tp1532
Rp1533
(I3
S'|'
p1534
NNNI30
I1
I0
tp1535
bS'How To Make a Star Card Holder'
p1536
tp1537
Rp1538
ag1
(g2
(S'S23'
p1539
I0
I1
tp1540
Rp1541
(I3
S'|'
p1542
NNNI23
I1
I0
tp1543
bS'Installing a Dishwasher'
p1544
tp1545
Rp1546
ag1
(g2
(S'S23'
p1547
I0
I1
tp1548
Rp1549
(I3
S'|'
p1550
NNNI23
I1
I0
tp1551
bS'Resurfacing Valve Seats'
p1552
tp1553
Rp1554
ag1
(g2
(S'S15'
p1555
I0
I1
tp1556
Rp1557
(I3
S'|'
p1558
NNNI15
I1
I0
tp1559
bS'Hanging Borders'
p1560
tp1561
Rp1562
ag1
(g2
(S'S39'
p1563
I0
I1
tp1564
Rp1565
(I3
S'|'
p1566
NNNI39
I1
I0
tp1567
bS'Freshen Up with a Laundry Room Makeover'
p1568
tp1569
Rp1570
ag1
(g2
(S'S35'
p1571
I0
I1
tp1572
Rp1573
(I3
S'|'
p1574
NNNI35
I1
I0
tp1575
bS'Clearing Sink Drains with a Plunger'
p1576
tp1577
Rp1578
ag1
(g2
(S'S18'
p1579
I0
I1
tp1580
Rp1581
(I3
S'|'
p1582
NNNI18
I1
I0
tp1583
bS'Installing Drywall'
p1584
tp1585
Rp1586
ag1
(g2
(S'S36'
p1587
I0
I1
tp1588
Rp1589
(I3
S'|'
p1590
NNNI36
I1
I0
tp1591
bS'Installing a Tamper-Resistant Outlet'
p1592
tp1593
Rp1594
ag1
(g2
(S'S27'
p1595
I0
I1
tp1596
Rp1597
(I3
S'|'
p1598
NNNI27
I1
I0
tp1599
bS'Hanging Ornament Chandelier'
p1600
tp1601
Rp1602
ag1
(g2
(S'S14'
p1603
I0
I1
tp1604
Rp1605
(I3
S'|'
p1606
NNNI14
I1
I0
tp1607
bS'Trapeze Lights'
p1608
tp1609
Rp1610
ag1
(g2
(S'S28'
p1611
I0
I1
tp1612
Rp1613
(I3
S'|'
p1614
NNNI28
I1
I0
tp1615
bS'Add Value to Your Home Decor'
p1616
tp1617
Rp1618
ag1
(g2
(S'S42'
p1619
I0
I1
tp1620
Rp1621
(I3
S'|'
p1622
NNNI42
I1
I0
tp1623
bS'Installing a New Fill Valve in Your Toilet'
p1624
tp1625
Rp1626
ag1
(g2
(S'S30'
p1627
I0
I1
tp1628
Rp1629
(I3
S'|'
p1630
NNNI30
I1
I0
tp1631
bS'Repairing Ceramic Disk Faucets'
p1632
tp1633
Rp1634
ag1
(g2
(S'S46'
p1635
I0
I1
tp1636
Rp1637
(I3
S'|'
p1638
NNNI46
I1
I0
tp1639
bS'Update Your Outdoor Furniture with Spray Paint'
p1640
tp1641
Rp1642
ag1
(g2
(S'S42'
p1643
I0
I1
tp1644
Rp1645
(I3
S'|'
p1646
NNNI42
I1
I0
tp1647
bS'Window Installation and Window Replacement'
p1648
tp1649
Rp1650
ag1
(g2
(S'S31'
p1651
I0
I1
tp1652
Rp1653
(I3
S'|'
p1654
NNNI31
I1
I0
tp1655
bS'How To Make an Illuminated Star'
p1656
tp1657
Rp1658
ag1
(g2
(S'S27'
p1659
I0
I1
tp1660
Rp1661
(I3
S'|'
p1662
NNNI27
I1
I0
tp1663
bS'Stripping and Splicing Wire'
p1664
tp1665
Rp1666
ag1
(g2
(S'S26'
p1667
I0
I1
tp1668
Rp1669
(I3
S'|'
p1670
NNNI26
I1
I0
tp1671
bS'Installing a Pedestal Sink'
p1672
tp1673
Rp1674
ag1
(g2
(S'S20'
p1675
I0
I1
tp1676
Rp1677
(I3
S'|'
p1678
NNNI20
I1
I0
tp1679
bS'Laying Tacked Carpet'
p1680
tp1681
Rp1682
ag1
(g2
(S'S25'
p1683
I0
I1
tp1684
Rp1685
(I3
S'|'
p1686
NNNI25
I1
I0
tp1687
bS'Container Planting Basics'
p1688
tp1689
Rp1690
ag1
(g2
(S'S46'
p1691
I0
I1
tp1692
Rp1693
(I3
S'|'
p1694
NNNI46
I1
I0
tp1695
bS'Adjusting a Toilet Tank Handle and Water Level'
p1696
tp1697
Rp1698
ag1
(g2
(S'S26'
p1699
I0
I1
tp1700
Rp1701
(I3
S'|'
p1702
NNNI26
I1
I0
tp1703
bS'Installing a Cable TV Jack'
p1704
tp1705
Rp1706
ag1
(g2
(S'S40'
p1707
I0
I1
tp1708
Rp1709
(I3
S'|'
p1710
NNNI40
I1
I0
tp1711
bS'Assembling and Hanging a Chain-Link Gate'
p1712
tp1713
Rp1714
ag1
(g2
(S'S35'
p1715
I0
I1
tp1716
Rp1717
(I3
S'|'
p1718
NNNI35
I1
I0
tp1719
bS'How To Plant Spring-Flowering Bulbs'
p1720
tp1721
Rp1722
ag1
(g2
(S'S24'
p1723
I0
I1
tp1724
Rp1725
(I3
S'|'
p1726
NNNI24
I1
I0
tp1727
bS'Installing Cabinet Doors'
p1728
tp1729
Rp1730
ag1
(g2
(S'S35'
p1731
I0
I1
tp1732
Rp1733
(I3
S'|'
p1734
NNNI35
I1
I0
tp1735
bS'Installing an Electric Water Heater'
p1736
tp1737
Rp1738
ag1
(g2
(S'S35'
p1739
I0
I1
tp1740
Rp1741
(I3
S'|'
p1742
NNNI35
I1
I0
tp1743
bS'Installing a Window Air-Conditioner'
p1744
tp1745
Rp1746
ag1
(g2
(S'S34'
p1747
I0
I1
tp1748
Rp1749
(I3
S'|'
p1750
NNNI34
I1
I0
tp1751
bS'How To Install a Widespread Faucet'
p1752
tp1753
Rp1754
ag1
(g2
(S'S26'
p1755
I0
I1
tp1756
Rp1757
(I3
S'|'
p1758
NNNI26
I1
I0
tp1759
bS'Maintaining a Water Heater'
p1760
tp1761
Rp1762
ag1
(g2
(S'S37'
p1763
I0
I1
tp1764
Rp1765
(I3
S'|'
p1766
NNNI37
I1
I0
tp1767
bS'How To Make a Holiday Advent Calendar'
p1768
tp1769
Rp1770
ag1
(g2
(S'S25'
p1771
I0
I1
tp1772
Rp1773
(I3
S'|'
p1774
NNNI25
I1
I0
tp1775
bS'Installing a Parquet Tile'
p1776
tp1777
Rp1778
ag1
(g2
(S'S29'
p1779
I0
I1
tp1780
Rp1781
(I3
S'|'
p1782
NNNI29
I1
I0
tp1783
bS'Starting a New Lawn from Seed'
p1784
tp1785
Rp1786
ag1
(g2
(S'S21'
p1787
I0
I1
tp1788
Rp1789
(I3
S'|'
p1790
NNNI21
I1
I0
tp1791
bS'Replacing a Sump Pump'
p1792
tp1793
Rp1794
ag1
(g2
(S'S37'
p1795
I0
I1
tp1796
Rp1797
(I3
S'|'
p1798
NNNI37
I1
I0
tp1799
bS'Installing a Wall Mount Light Fixture'
p1800
tp1801
Rp1802
ag1
(g2
(S'S38'
p1803
I0
I1
tp1804
Rp1805
(I3
S'|'
p1806
NNNI38
I1
I0
tp1807
bS'How To Make a Holiday Ornament Garland'
p1808
tp1809
Rp1810
ag1
(g2
(S'S22'
p1811
I0
I1
tp1812
Rp1813
(I3
S'|'
p1814
NNNI22
I1
I0
tp1815
bS'Patching Peeling Paint'
p1816
tp1817
Rp1818
ag1
(g2
(S'S34'
p1819
I0
I1
tp1820
Rp1821
(I3
S'|'
p1822
NNNI34
I1
I0
tp1823
bS'Hillside Fencing and Stepped Rails'
p1824
tp1825
Rp1826
ag1
(g2
(S'S37'
p1827
I0
I1
tp1828
Rp1829
(I3
S'|'
p1830
NNNI37
I1
I0
tp1831
bS'Installing Unfinished Hardwood Stairs'
p1832
tp1833
Rp1834
ag1
(g2
(S'S23'
p1835
I0
I1
tp1836
Rp1837
(I3
S'|'
p1838
NNNI23
I1
I0
tp1839
bS'Building a Picnic Table'
p1840
tp1841
Rp1842
ag1
(g2
(S'S25'
p1843
I0
I1
tp1844
Rp1845
(I3
S'|'
p1846
NNNI25
I1
I0
tp1847
bS'Setting Posts Below Grade'
p1848
tp1849
Rp1850
ag1
(g2
(S'S22'
p1851
I0
I1
tp1852
Rp1853
(I3
S'|'
p1854
NNNI22
I1
I0
tp1855
bS'Testing a Light Socket'
p1856
tp1857
Rp1858
ag1
(g2
(S'S24'
p1859
I0
I1
tp1860
Rp1861
(I3
S'|'
p1862
NNNI24
I1
I0
tp1863
bS'Installing Base Cabinets'
p1864
tp1865
Rp1866
ag1
(g2
(S'S29'
p1867
I0
I1
tp1868
Rp1869
(I3
S'|'
p1870
NNNI29
I1
I0
tp1871
bS'Installing Landscape Lighting'
p1872
tp1873
Rp1874
ag1
(g2
(S'S27'
p1875
I0
I1
tp1876
Rp1877
(I3
S'|'
p1878
NNNI27
I1
I0
tp1879
bS'Repairing Ball-Type Faucets'
p1880
tp1881
Rp1882
ag1
(g2
(S'S32'
p1883
I0
I1
tp1884
Rp1885
(I3
S'|'
p1886
NNNI32
I1
I0
tp1887
bS'Installing a Laminate Countertop'
p1888
tp1889
Rp1890
ag1
(g2
(S'S38'
p1891
I0
I1
tp1892
Rp1893
(I3
S'|'
p1894
NNNI38
I1
I0
tp1895
bS"Chalkboard Paint for Your Child's Room"
p1896
tp1897
Rp1898
ag1
(g2
(S'S64'
p1899
I0
I1
tp1900
Rp1901
(I3
S'|'
p1902
NNNI64
I1
I0
tp1903
bS'Installing New Bathtub and Shower Wall Panels \xe2\x80\x93 Direct-to-Stud'
p1904
tp1905
Rp1906
ag1
(g2
(S'S47'
p1907
I0
I1
tp1908
Rp1909
(I3
S'|'
p1910
NNNI47
I1
I0
tp1911
bS'How To Install a 60 Watt Solar Power Backup Kit'
p1912
tp1913
Rp1914
ag1
(g2
(S'S31'
p1915
I0
I1
tp1916
Rp1917
(I3
S'|'
p1918
NNNI31
I1
I0
tp1919
bS'Preparing Woodwork for Painting'
p1920
tp1921
Rp1922
a(lp1923
g1
(g2
(S'S21'
p1924
I0
I1
tp1925
Rp1926
(I3
S'|'
p1927
NNNI21
I1
I0
tp1928
bS'Installing a Bath Fan'
p1929
tp1930
Rp1931
ag1
(g2
(S'S24'
p1932
I0
I1
tp1933
Rp1934
(I3
S'|'
p1935
NNNI24
I1
I0
tp1936
bS'Adding an Outdoor Outlet'
p1937
tp1938
Rp1939
ag1
(g2
(S'S13'
p1940
I0
I1
tp1941
Rp1942
(I3
S'|'
p1943
NNNI13
I1
I0
tp1944
bS'Tiling a Wall'
p1945
tp1946
Rp1947
ag1
(g2
(S'S24'
p1948
I0
I1
tp1949
Rp1950
(I3
S'|'
p1951
NNNI24
I1
I0
tp1952
bS'Installing Gutter Liners'
p1953
tp1954
Rp1955
ag1
(g2
(S'S24'
p1956
I0
I1
tp1957
Rp1958
(I3
S'|'
p1959
NNNI24
I1
I0
tp1960
bS'Unclogging Shower Drains'
p1961
tp1962
Rp1963
ag1
(g2
(S'S20'
p1964
I0
I1
tp1965
Rp1966
(I3
S'|'
p1967
NNNI20
I1
I0
tp1968
bS'Composting Made Easy'
p1969
tp1970
Rp1971
ag1
(g2
(S'S27'
p1972
I0
I1
tp1973
Rp1974
(I3
S'|'
p1975
NNNI27
I1
I0
tp1976
bS'Installing an Interior Door'
p1977
tp1978
Rp1979
ag1
(g2
(S'S47'
p1980
I0
I1
tp1981
Rp1982
(I3
S'|'
p1983
NNNI47
I1
I0
tp1984
bS'How To Install Ceramic and Porcelain Floor Tile'
p1985
tp1986
Rp1987
ag1
(g2
(S'S30'
p1988
I0
I1
tp1989
Rp1990
(I3
S'|'
p1991
NNNI30
I1
I0
tp1992
bS'Cementing PVC Conduit Together'
p1993
tp1994
Rp1995
ag1
(g2
(S'S36'
p1996
I0
I1
tp1997
Rp1998
(I3
S'|'
p1999
NNNI36
I1
I0
tp2000
bS'Affordable Exterior Painting Updates'
p2001
tp2002
Rp2003
ag1
(g2
(S'S37'
p2004
I0
I1
tp2005
Rp2006
(I3
S'|'
p2007
NNNI37
I1
I0
tp2008
bS'How To Make a Raised Bed Salsa Garden'
p2009
tp2010
Rp2011
ag1
(g2
(S'S31'
p2012
I0
I1
tp2013
Rp2014
(I3
S'|'
p2015
NNNI31
I1
I0
tp2016
bS'Installing a Bypass Shower Door'
p2017
tp2018
Rp2019
ag1
(g2
(S'S23'
p2020
I0
I1
tp2021
Rp2022
(I3
S'|'
p2023
NNNI23
I1
I0
tp2024
bS'Installing a Range Hood'
p2025
tp2026
Rp2027
ag1
(g2
(S'S27'
p2028
I0
I1
tp2029
Rp2030
(I3
S'|'
p2031
NNNI27
I1
I0
tp2032
bS'How To Make a Burlap Wreath'
p2033
tp2034
Rp2035
ag1
(g2
(S'S46'
p2036
I0
I1
tp2037
Rp2038
(I3
S'|'
p2039
NNNI46
I1
I0
tp2040
bS'Extending Power to Fixtures With Metal Raceway'
p2041
tp2042
Rp2043
ag1
(g2
(S'S36'
p2044
I0
I1
tp2045
Rp2046
(I3
S'|'
p2047
NNNI36
I1
I0
tp2048
bS'How To Install a Surveillance System'
p2049
tp2050
Rp2051
ag1
(g2
(S'S26'
p2052
I0
I1
tp2053
Rp2054
(I3
S'|'
p2055
NNNI26
I1
I0
tp2056
bS'Paint Storage and Disposal'
p2057
tp2058
Rp2059
ag1
(g2
(S'S36'
p2060
I0
I1
tp2061
Rp2062
(I3
S'|'
p2063
NNNI36
I1
I0
tp2064
bS'Installing an On-Demand Water Heater'
p2065
tp2066
Rp2067
ag1
(g2
(S'S26'
p2068
I0
I1
tp2069
Rp2070
(I3
S'|'
p2071
NNNI26
I1
I0
tp2072
bS'Affordable Kitchen Updates'
p2073
tp2074
Rp2075
ag1
(g2
(S'S22'
p2076
I0
I1
tp2077
Rp2078
(I3
S'|'
p2079
NNNI22
I1
I0
tp2080
bS'Resetting Popped Nails'
p2081
tp2082
Rp2083
ag1
(g2
(S'S27'
p2084
I0
I1
tp2085
Rp2086
(I3
S'|'
p2087
NNNI27
I1
I0
tp2088
bS'Installing Bathroom Mirrors'
p2089
tp2090
Rp2091
ag1
(g2
(S'S38'
p2092
I0
I1
tp2093
Rp2094
(I3
S'|'
p2095
NNNI38
I1
I0
tp2096
bS'Installing an Beaded-Board Wainscoting'
p2097
tp2098
Rp2099
ag1
(g2
(S'S22'
p2100
I0
I1
tp2101
Rp2102
(I3
S'|'
p2103
NNNI22
I1
I0
tp2104
bS'Cutting Outside Miters'
p2105
tp2106
Rp2107
ag1
(g2
(S'S16'
p2108
I0
I1
tp2109
Rp2110
(I3
S'|'
p2111
NNNI16
I1
I0
tp2112
bS'How To Fertilize'
p2113
tp2114
Rp2115
ag1
(g2
(S'S31'
p2116
I0
I1
tp2117
Rp2118
(I3
S'|'
p2119
NNNI31
I1
I0
tp2120
bS'Maintaining Garage Door Openers'
p2121
tp2122
Rp2123
ag1
(g2
(S'S30'
p2124
I0
I1
tp2125
Rp2126
(I3
S'|'
p2127
NNNI30
I1
I0
tp2128
bS'Installing a Center-Set Faucet'
p2129
tp2130
Rp2131
ag1
(g2
(S'S43'
p2132
I0
I1
tp2133
Rp2134
(I3
S'|'
p2135
NNNI43
I1
I0
tp2136
bS'Replacing a Single Pole Switch with a Timer'
p2137
tp2138
Rp2139
ag1
(g2
(S'S29'
p2140
I0
I1
tp2141
Rp2142
(I3
S'|'
p2143
NNNI29
I1
I0
tp2144
bS'How To Install Crown Moulding'
p2145
tp2146
Rp2147
ag1
(g2
(S'S21'
p2148
I0
I1
tp2149
Rp2150
(I3
S'|'
p2151
NNNI21
I1
I0
tp2152
bS'Installing a Flue Hat'
p2153
tp2154
Rp2155
ag1
(g2
(S'S37'
p2156
I0
I1
tp2157
Rp2158
(I3
S'|'
p2159
NNNI37
I1
I0
tp2160
bS'Installing a Whole-House Water Filter'
p2161
tp2162
Rp2163
ag1
(g2
(S'S42'
p2164
I0
I1
tp2165
Rp2166
(I3
S'|'
p2167
NNNI42
I1
I0
tp2168
bS'Repairing and Maintaining Fences and Gates'
p2169
tp2170
Rp2171
ag1
(g2
(S'S26'
p2172
I0
I1
tp2173
Rp2174
(I3
S'|'
p2175
NNNI26
I1
I0
tp2176
bS'Building a Multilevel Deck'
p2177
tp2178
Rp2179
ag1
(g2
(S'S27'
p2180
I0
I1
tp2181
Rp2182
(I3
S'|'
p2183
NNNI27
I1
I0
tp2184
bS'Installing Coaxial TV Cable'
p2185
tp2186
Rp2187
ag1
(g2
(S'S28'
p2188
I0
I1
tp2189
Rp2190
(I3
S'|'
p2191
NNNI28
I1
I0
tp2192
bS'How To Install a Bath Vanity'
p2193
tp2194
Rp2195
ag1
(g2
(S'S37'
p2196
I0
I1
tp2197
Rp2198
(I3
S'|'
p2199
NNNI37
I1
I0
tp2200
bS'Affordable Front Entrance Decor Ideas'
p2201
tp2202
Rp2203
ag1
(g2
(S'S25'
p2204
I0
I1
tp2205
Rp2206
(I3
S'|'
p2207
NNNI25
I1
I0
tp2208
bS'Installing Shutoff Valves'
p2209
tp2210
Rp2211
ag1
(g2
(S'S16'
p2212
I0
I1
tp2213
Rp2214
(I3
S'|'
p2215
NNNI16
I1
I0
tp2216
bS'Replacing Hinges'
p2217
tp2218
Rp2219
ag1
(g2
(S'S27'
p2220
I0
I1
tp2221
Rp2222
(I3
S'|'
p2223
NNNI27
I1
I0
tp2224
bS'Installing Wood Fence Rails'
p2225
tp2226
Rp2227
ag1
(g2
(S'S24'
p2228
I0
I1
tp2229
Rp2230
(I3
S'|'
p2231
NNNI24
I1
I0
tp2232
bS'Unclogging Toilet Drains'
p2233
tp2234
Rp2235
ag1
(g2
(S'S23'
p2236
I0
I1
tp2237
Rp2238
(I3
S'|'
p2239
NNNI23
I1
I0
tp2240
bS'Treat Stains and Mildew'
p2241
tp2242
Rp2243
ag1
(g2
(S'S46'
p2244
I0
I1
tp2245
Rp2246
(I3
S'|'
p2247
NNNI46
I1
I0
tp2248
bS'Repairing a Multi-Handle Tub and Shower Faucet'
p2249
tp2250
Rp2251
ag1
(g2
(S'S25'
p2252
I0
I1
tp2253
Rp2254
(I3
S'|'
p2255
NNNI25
I1
I0
tp2256
bS'Finishing Outside Corners'
p2257
tp2258
Rp2259
ag1
(g2
(S'S30'
p2260
I0
I1
tp2261
Rp2262
(I3
S'|'
p2263
NNNI30
I1
I0
tp2264
bS'Wall-Mounting a Flat Screen TV'
p2265
tp2266
Rp2267
ag1
(g2
(S'S35'
p2268
I0
I1
tp2269
Rp2270
(I3
S'|'
p2271
NNNI35
I1
I0
tp2272
bS'Refinishing a Pressure-Treated Deck'
p2273
tp2274
Rp2275
ag1
(g2
(S'S33'
p2276
I0
I1
tp2277
Rp2278
(I3
S'|'
p2279
NNNI33
I1
I0
tp2280
bS'Installing Self-Stick Vinyl Tiles'
p2281
tp2282
Rp2283
ag1
(g2
(S'S38'
p2284
I0
I1
tp2285
Rp2286
(I3
S'|'
p2287
NNNI38
I1
I0
tp2288
bS'Unique Ways to Decorate with Ornaments'
p2289
tp2290
Rp2291
ag1
(g2
(S'S28'
p2292
I0
I1
tp2293
Rp2294
(I3
S'|'
p2295
NNNI28
I1
I0
tp2296
bS'Installing a Hanging Fixture'
p2297
tp2298
Rp2299
ag1
(g2
(S'S24'
p2300
I0
I1
tp2301
Rp2302
(I3
S'|'
p2303
NNNI24
I1
I0
tp2304
bS'Installing an Entry Door'
p2305
tp2306
Rp2307
ag1
(g2
(S'S29'
p2308
I0
I1
tp2309
Rp2310
(I3
S'|'
p2311
NNNI29
I1
I0
tp2312
bS'Installing a Gas Water Heater'
p2313
tp2314
Rp2315
ag1
(g2
(S'S34'
p2316
I0
I1
tp2317
Rp2318
(I3
S'|'
p2319
NNNI34
I1
I0
tp2320
bS'Installing a Hand-Held Shower Unit'
p2321
tp2322
Rp2323
ag1
(g2
(S'S25'
p2324
I0
I1
tp2325
Rp2326
(I3
S'|'
p2327
NNNI25
I1
I0
tp2328
bS'Installing a Drop-in Sink'
p2329
tp2330
Rp2331
ag1
(g2
(S'S24'
p2332
I0
I1
tp2333
Rp2334
(I3
S'|'
p2335
NNNI24
I1
I0
tp2336
bS'Sharpening a Mower Blade'
p2337
tp2338
Rp2339
ag1
(g2
(S'S23'
p2340
I0
I1
tp2341
Rp2342
(I3
S'|'
p2343
NNNI23
I1
I0
tp2344
bS'Starting Lawns from Sod'
p2345
tp2346
Rp2347
ag1
(g2
(S'S27'
p2348
I0
I1
tp2349
Rp2350
(I3
S'|'
p2351
NNNI27
I1
I0
tp2352
bS'Installing Bath Accessories'
p2353
tp2354
Rp2355
ag1
(g2
(S'S18'
p2356
I0
I1
tp2357
Rp2358
(I3
S'|'
p2359
NNNI18
I1
I0
tp2360
bS'Cleaning Brickwork'
p2361
tp2362
Rp2363
ag1
(g2
(S'S27'
p2364
I0
I1
tp2365
Rp2366
(I3
S'|'
p2367
NNNI27
I1
I0
tp2368
bS'How To Paint Interior Walls'
p2369
tp2370
Rp2371
ag1
(g2
(S'S23'
p2372
I0
I1
tp2373
Rp2374
(I3
S'|'
p2375
NNNI23
I1
I0
tp2376
bS'Freeing a Sticking Door'
p2377
tp2378
Rp2379
ag1
(g2
(S'S49'
p2380
I0
I1
tp2381
Rp2382
(I3
S'|'
p2383
NNNI49
I1
I0
tp2384
bS'Emergency Quick Fixes for Frozen or Leaking Pipes'
p2385
tp2386
Rp2387
ag1
(g2
(S'S34'
p2388
I0
I1
tp2389
Rp2390
(I3
S'|'
p2391
NNNI34
I1
I0
tp2392
bS'Repair and Replace a Sink Strainer'
p2393
tp2394
Rp2395
ag1
(g2
(S'S29'
p2396
I0
I1
tp2397
Rp2398
(I3
S'|'
p2399
NNNI29
I1
I0
tp2400
bS'Installing a Garbage Disposer'
p2401
tp2402
Rp2403
ag1
(g2
(S'S24'
p2404
I0
I1
tp2405
Rp2406
(I3
S'|'
p2407
NNNI24
I1
I0
tp2408
bS'Removing a Wood Flooring'
p2409
tp2410
Rp2411
ag1
(g2
(S'S32'
p2412
I0
I1
tp2413
Rp2414
(I3
S'|'
p2415
NNNI32
I1
I0
tp2416
bS'Installing Sawtooth Brick Edging'
p2417
tp2418
Rp2419
ag1
(g2
(S'S24'
p2420
I0
I1
tp2421
Rp2422
(I3
S'|'
p2423
NNNI24
I1
I0
tp2424
bS'Installing a New Circuit'
p2425
tp2426
Rp2427
ag1
(g2
(S'S26'
p2428
I0
I1
tp2429
Rp2430
(I3
S'|'
p2431
NNNI26
I1
I0
tp2432
bS'Affordable Cabinet Updates'
p2433
tp2434
Rp2435
ag1
(g2
(S'S54'
p2436
I0
I1
tp2437
Rp2438
(I3
S'|'
p2439
NNNI54
I1
I0
tp2440
bS'Craft Board for an Advent Calendar or Star Card Holder'
p2441
tp2442
Rp2443
ag1
(g2
(S'S42'
p2444
I0
I1
tp2445
Rp2446
(I3
S'|'
p2447
NNNI42
I1
I0
tp2448
bS'Get Ready for Spring with Lawn Maintenance'
p2449
tp2450
Rp2451
ag1
(g2
(S'S20'
p2452
I0
I1
tp2453
Rp2454
(I3
S'|'
p2455
NNNI20
I1
I0
tp2456
bS'Grouting Tile Floors'
p2457
tp2458
Rp2459
ag1
(g2
(S'S18'
p2460
I0
I1
tp2461
Rp2462
(I3
S'|'
p2463
NNNI18
I1
I0
tp2464
bS'Removing Wallpaper'
p2465
tp2466
Rp2467
ag1
(g2
(S'S36'
p2468
I0
I1
tp2469
Rp2470
(I3
S'|'
p2471
NNNI36
I1
I0
tp2472
bS'Running Electrical Wire Behind Walls'
p2473
tp2474
Rp2475
ag1
(g2
(S'S48'
p2476
I0
I1
tp2477
Rp2478
(I3
S'|'
p2479
NNNI48
I1
I0
tp2480
bS'How To Install a Kitchen Faucet and Side Sprayer'
p2481
tp2482
Rp2483
ag1
(g2
(S'S25'
p2484
I0
I1
tp2485
Rp2486
(I3
S'|'
p2487
NNNI25
I1
I0
tp2488
bS'Planting a Bare-Root Rose'
p2489
tp2490
Rp2491
ag1
(g2
(S'S30'
p2492
I0
I1
tp2493
Rp2494
(I3
S'|'
p2495
NNNI30
I1
I0
tp2496
bS'Installing a Pivot Shower Door'
p2497
tp2498
Rp2499
ag1
(g2
(S'S34'
p2500
I0
I1
tp2501
Rp2502
(I3
S'|'
p2503
NNNI34
I1
I0
tp2504
bS'How To Decorate a Wood Floor Inlay'
p2505
tp2506
Rp2507
ag1
(g2
(S'S34'
p2508
I0
I1
tp2509
Rp2510
(I3
S'|'
p2511
NNNI34
I1
I0
tp2512
bS'Removing and Replacing a Threshold'
p2513
tp2514
Rp2515
ag1
(g2
(S'S25'
p2516
I0
I1
tp2517
Rp2518
(I3
S'|'
p2519
NNNI25
I1
I0
tp2520
bS'Installing a Pop-Up Drain'
p2521
tp2522
Rp2523
ag1
(g2
(S'S31'
p2524
I0
I1
tp2525
Rp2526
(I3
S'|'
p2527
NNNI31
I1
I0
tp2528
bS'22 Paint Hacks, Tips and Tricks'
p2529
tp2530
Rp2531
ag1
(g2
(S'S30'
p2532
I0
I1
tp2533
Rp2534
(I3
S'|'
p2535
NNNI30
I1
I0
tp2536
bS'Tools for Laying Tile Flooring'
p2537
tp2538
Rp2539
ag1
(g2
(S'S24'
p2540
I0
I1
tp2541
Rp2542
(I3
S'|'
p2543
NNNI24
I1
I0
tp2544
bS'Installing a Ceiling Fan'
p2545
tp2546
Rp2547
ag1
(g2
(S'S27'
p2548
I0
I1
tp2549
Rp2550
(I3
S'|'
p2551
NNNI27
I1
I0
tp2552
bS'Installing a Water Purifier'
p2553
tp2554
Rp2555
atp2556
.