(dp0
cnumpy.core.multiarray
scalar
p1
(cnumpy
dtype
p2
(S'S29'
p3
I0
I1
tp4
Rp5
(I3
S'|'
p6
NNNI29
I1
I0
tp7
bS'Storing Summer-Blooming Bulbs'
p8
tp9
Rp10
I121
sg1
(g2
(S'S47'
p11
I0
I1
tp12
Rp13
(I3
S'|'
p14
NNNI47
I1
I0
tp15
bS'How To Install Ceramic and Porcelain Floor Tile'
p16
tp17
Rp18
I81
sg1
(g2
(S'S28'
p19
I0
I1
tp20
Rp21
(I3
S'|'
p22
NNNI28
I1
I0
tp23
bS'Installing Horizontal Blinds'
p24
tp25
Rp26
I79
sg1
(g2
(S'S51'
p27
I0
I1
tp28
Rp29
(I3
S'|'
p30
NNNI51
I1
I0
tp31
bS'Installing Recessed Lighting in an Existing Ceiling'
p32
tp33
Rp34
I180
sg1
(g2
(S'S29'
p35
I0
I1
tp36
Rp37
(I3
S'|'
p38
NNNI29
I1
I0
tp39
bS'Installing Landscape Lighting'
p40
tp41
Rp42
I200
sg1
(g2
(S'S36'
p43
I0
I1
tp44
Rp45
(I3
S'|'
p46
NNNI36
I1
I0
tp47
bS'Installing a Tamper-Resistant Outlet'
p48
tp49
Rp50
I94
sg1
(g2
(S'S37'
p51
I0
I1
tp52
Rp53
(I3
S'|'
p54
NNNI37
I1
I0
tp55
bS'Affordable Front Entrance Decor Ideas'
p56
tp57
Rp58
I214
sg1
(g2
(S'S29'
p59
I0
I1
tp60
Rp61
(I3
S'|'
p62
NNNI29
I1
I0
tp63
bS'Installing a Gas Water Heater'
p64
tp65
Rp66
I133
sg1
(g2
(S'S17'
p67
I0
I1
tp68
Rp69
(I3
S'|'
p70
NNNI17
I1
I0
tp71
bS'Interior Shutters'
p72
tp73
Rp74
I151
sg1
(g2
(S'S26'
p75
I0
I1
tp76
Rp77
(I3
S'|'
p78
NNNI26
I1
I0
tp79
bS'Installing a Cable TV Jack'
p80
tp81
Rp82
I110
sg1
(g2
(S'S22'
p83
I0
I1
tp84
Rp85
(I3
S'|'
p86
NNNI22
I1
I0
tp87
bS'Laying Out Garden Beds'
p88
tp89
Rp90
I227
sg1
(g2
(S'S23'
p91
I0
I1
tp92
Rp93
(I3
S'|'
p94
NNNI23
I1
I0
tp95
bS'Installing a Storm Door'
p96
tp97
Rp98
I186
sg1
(g2
(S'S38'
p99
I0
I1
tp100
Rp101
(I3
S'|'
p102
NNNI38
I1
I0
tp103
bS"Chalkboard Paint for Your Child's Room"
p104
tp105
Rp106
I77
sg1
(g2
(S'S31'
p107
I0
I1
tp108
Rp109
(I3
S'|'
p110
NNNI31
I1
I0
tp111
bS'Troubleshooting Your Thermostat'
p112
tp113
Rp114
I183
sg1
(g2
(S'S39'
p115
I0
I1
tp116
Rp117
(I3
S'|'
p118
NNNI39
I1
I0
tp119
bS'Freshen Up with a Laundry Room Makeover'
p120
tp121
Rp122
I59
sg1
(g2
(S'S25'
p123
I0
I1
tp124
Rp125
(I3
S'|'
p126
NNNI25
I1
I0
tp127
bS'Planting a Bare-Root Rose'
p128
tp129
Rp130
I6
sg1
(g2
(S'S22'
p131
I0
I1
tp132
Rp133
(I3
S'|'
p134
NNNI22
I1
I0
tp135
bS'Installing a Spa Panel'
p136
tp137
Rp138
I34
sg1
(g2
(S'S30'
p139
I0
I1
tp140
Rp141
(I3
S'|'
p142
NNNI30
I1
I0
tp143
bS'Installing a Center-Set Faucet'
p144
tp145
Rp146
I185
sg1
(g2
(S'S25'
p147
I0
I1
tp148
Rp149
(I3
S'|'
p150
NNNI25
I1
I0
tp151
bS'Running a New Supply Line'
p152
tp153
Rp154
I72
sg1
(g2
(S'S13'
p155
I0
I1
tp156
Rp157
(I3
S'|'
p158
NNNI13
I1
I0
tp159
bS'Painting Trim'
p160
tp161
Rp162
I18
sg1
(g2
(S'S23'
p163
I0
I1
tp164
Rp165
(I3
S'|'
p166
NNNI23
I1
I0
tp167
bS'Replacing a Sewage Pump'
p168
tp169
Rp170
I88
sg1
(g2
(S'S34'
p171
I0
I1
tp172
Rp173
(I3
S'|'
p174
NNNI34
I1
I0
tp175
bS'Hillside Fencing and Stepped Rails'
p176
tp177
Rp178
I20
sg1
(g2
(S'S41'
p179
I0
I1
tp180
Rp181
(I3
S'|'
p182
NNNI41
I1
I0
tp183
bS'Installing Hard-Wired Smoke and CO Alarms'
p184
tp185
Rp186
I23
sg1
(g2
(S'S22'
p187
I0
I1
tp188
Rp189
(I3
S'|'
p190
NNNI22
I1
I0
tp191
bS'Testing a Light Socket'
p192
tp193
Rp194
I40
sg1
(g2
(S'S37'
p195
I0
I1
tp196
Rp197
(I3
S'|'
p198
NNNI37
I1
I0
tp199
bS'Installing Unfinished Hardwood Stairs'
p200
tp201
Rp202
I120
sg1
(g2
(S'S15'
p203
I0
I1
tp204
Rp205
(I3
S'|'
p206
NNNI15
I1
I0
tp207
bS'Removing Mildew'
p208
tp209
Rp210
I218
sg1
(g2
(S'S27'
p211
I0
I1
tp212
Rp213
(I3
S'|'
p214
NNNI27
I1
I0
tp215
bS'Repairing Ball-Type Faucets'
p216
tp217
Rp218
I229
sg1
(g2
(S'S36'
p219
I0
I1
tp220
Rp221
(I3
S'|'
p222
NNNI36
I1
I0
tp223
bS'Replacing a Screen in a Wooden Frame'
p224
tp225
Rp226
I126
sg1
(g2
(S'S26'
p227
I0
I1
tp228
Rp229
(I3
S'|'
p230
NNNI26
I1
I0
tp231
bS'Installing Plastic  Edging'
p232
tp233
Rp234
I87
sg1
(g2
(S'S42'
p235
I0
I1
tp236
Rp237
(I3
S'|'
p238
NNNI42
I1
I0
tp239
bS'How To Install Electrical Conduit Outdoors'
p240
tp241
Rp242
I161
sg1
(g2
(S'S43'
p243
I0
I1
tp244
Rp245
(I3
S'|'
p246
NNNI43
I1
I0
tp247
bS'Installing a New Flush Valve in Your Toilet'
p248
tp249
Rp250
I13
sg1
(g2
(S'S24'
p251
I0
I1
tp252
Rp253
(I3
S'|'
p254
NNNI24
I1
I0
tp255
bS'Replacing a Deck Railing'
p256
tp257
Rp258
I196
sg1
(g2
(S'S16'
p259
I0
I1
tp260
Rp261
(I3
S'|'
p262
NNNI16
I1
I0
tp263
bS'Staining Windows'
p264
tp265
Rp266
I95
sg1
(g2
(S'S18'
p267
I0
I1
tp268
Rp269
(I3
S'|'
p270
NNNI18
I1
I0
tp271
bS'Cleaning Brickwork'
p272
tp273
Rp274
I129
sg1
(g2
(S'S30'
p275
I0
I1
tp276
Rp277
(I3
S'|'
p278
NNNI30
I1
I0
tp279
bS'How To Install an AFCI Breaker'
p280
tp281
Rp282
I63
sg1
(g2
(S'S33'
p283
I0
I1
tp284
Rp285
(I3
S'|'
p286
NNNI33
I1
I0
tp287
bS'Lawn Watering Tips and Techniques'
p288
tp289
Rp290
I206
sg1
(g2
(S'S30'
p291
I0
I1
tp292
Rp293
(I3
S'|'
p294
NNNI30
I1
I0
tp295
bS'Replacing a Single Pole Switch'
p296
tp297
Rp298
I149
sg1
(g2
(S'S27'
p299
I0
I1
tp300
Rp301
(I3
S'|'
p302
NNNI27
I1
I0
tp303
bS'Installing a Water Purifier'
p304
tp305
Rp306
I26
sg1
(g2
(S'S18'
p307
I0
I1
tp308
Rp309
(I3
S'|'
p310
NNNI18
I1
I0
tp311
bS'Caring for Annuals'
p312
tp313
Rp314
I159
sg1
(g2
(S'S42'
p315
I0
I1
tp316
Rp317
(I3
S'|'
p318
NNNI42
I1
I0
tp319
bS'How to Make an Herb Tower Container Garden'
p320
tp321
Rp322
I171
sg1
(g2
(S'S29'
p323
I0
I1
tp324
Rp325
(I3
S'|'
p326
NNNI29
I1
I0
tp327
bS'Installing a Garbage Disposer'
p328
tp329
Rp330
I62
sg1
(g2
(S'S35'
p331
I0
I1
tp332
Rp333
(I3
S'|'
p334
NNNI35
I1
I0
tp335
bS'How To Choose a Bathroom Vanity Top'
p336
tp337
Rp338
I188
sg1
(g2
(S'S25'
p339
I0
I1
tp340
Rp341
(I3
S'|'
p342
NNNI25
I1
I0
tp343
bS'Installing Track Lighting'
p344
tp345
Rp346
I236
sg1
(g2
(S'S35'
p347
I0
I1
tp348
Rp349
(I3
S'|'
p350
NNNI35
I1
I0
tp351
bS'Clearing Sink Drains with a Plunger'
p352
tp353
Rp354
I9
sg1
(g2
(S'S34'
p355
I0
I1
tp356
Rp357
(I3
S'|'
p358
NNNI34
I1
I0
tp359
bS'How To Install a Widespread Faucet'
p360
tp361
Rp362
I125
sg1
(g2
(S'S38'
p363
I0
I1
tp364
Rp365
(I3
S'|'
p366
NNNI38
I1
I0
tp367
bS'Installing a Gas Tankless Water Heater'
p368
tp369
Rp370
I61
sg1
(g2
(S'S19'
p371
I0
I1
tp372
Rp373
(I3
S'|'
p374
NNNI19
I1
I0
tp375
bS'Secure Your Windows'
p376
tp377
Rp378
I152
sg1
(g2
(S'S37'
p379
I0
I1
tp380
Rp381
(I3
S'|'
p382
NNNI37
I1
I0
tp383
bS'How To Crimp a Connector onto a Cable'
p384
tp385
Rp386
I65
sg1
(g2
(S'S37'
p387
I0
I1
tp388
Rp389
(I3
S'|'
p390
NNNI37
I1
I0
tp391
bS'How To Make a Holiday Advent Calendar'
p392
tp393
Rp394
I153
sg1
(g2
(S'S31'
p395
I0
I1
tp396
Rp397
(I3
S'|'
p398
NNNI31
I1
I0
tp399
bS'Maintaining Garage Door Openers'
p400
tp401
Rp402
I221
sg1
(g2
(S'S13'
p403
I0
I1
tp404
Rp405
(I3
S'|'
p406
NNNI13
I1
I0
tp407
bS'Tiling a Wall'
p408
tp409
Rp410
I4
sg1
(g2
(S'S33'
p411
I0
I1
tp412
Rp413
(I3
S'|'
p414
NNNI33
I1
I0
tp415
bS'Patching Large Holes in Wallboard'
p416
tp417
Rp418
I64
sg1
(g2
(S'S27'
p419
I0
I1
tp420
Rp421
(I3
S'|'
p422
NNNI27
I1
I0
tp423
bS'How To Paint Interior Walls'
p424
tp425
Rp426
I177
sg1
(g2
(S'S45'
p427
I0
I1
tp428
Rp429
(I3
S'|'
p430
NNNI45
I1
I0
tp431
bS'How To Install a Single Handle Kitchen Faucet'
p432
tp433
Rp434
I100
sg1
(g2
(S'S18'
p435
I0
I1
tp436
Rp437
(I3
S'|'
p438
NNNI18
I1
I0
tp439
bS'Framing a New Wall'
p440
tp441
Rp442
I191
sg1
(g2
(S'S26'
p443
I0
I1
tp444
Rp445
(I3
S'|'
p446
NNNI26
I1
I0
tp447
bS'Affordable Cabinet Updates'
p448
tp449
Rp450
I168
sg1
(g2
(S'S26'
p451
I0
I1
tp452
Rp453
(I3
S'|'
p454
NNNI26
I1
I0
tp455
bS'Maintaining a Water Heater'
p456
tp457
Rp458
I5
sg1
(g2
(S'S24'
p459
I0
I1
tp460
Rp461
(I3
S'|'
p462
NNNI24
I1
I0
tp463
bS'Unclogging Toilet Drains'
p464
tp465
Rp466
I141
sg1
(g2
(S'S25'
p467
I0
I1
tp468
Rp469
(I3
S'|'
p470
NNNI25
I1
I0
tp471
bS'Laying Out Straight Edges'
p472
tp473
Rp474
I109
sg1
(g2
(S'S27'
p475
I0
I1
tp476
Rp477
(I3
S'|'
p478
NNNI27
I1
I0
tp479
bS'Unclogging Jammed Disposers'
p480
tp481
Rp482
I70
sg1
(g2
(S'S31'
p483
I0
I1
tp484
Rp485
(I3
S'|'
p486
NNNI31
I1
I0
tp487
bS'Installing a Bypass Shower Door'
p488
tp489
Rp490
I66
sg1
(g2
(S'S36'
p491
I0
I1
tp492
Rp493
(I3
S'|'
p494
NNNI36
I1
I0
tp495
bS'Running Electrical Wire Behind Walls'
p496
tp497
Rp498
I144
sg1
(g2
(S'S21'
p499
I0
I1
tp500
Rp501
(I3
S'|'
p502
NNNI21
I1
I0
tp503
bS'Installing a Roof Fan'
p504
tp505
Rp506
I41
sg1
(g2
(S'S32'
p507
I0
I1
tp508
Rp509
(I3
S'|'
p510
NNNI32
I1
I0
tp511
bS'Installing Cabinet Drawer Fronts'
p512
tp513
Rp514
I39
sg1
(g2
(S'S25'
p515
I0
I1
tp516
Rp517
(I3
S'|'
p518
NNNI25
I1
I0
tp519
bS'Painting Exterior Windows'
p520
tp521
Rp522
I138
sg1
(g2
(S'S34'
p523
I0
I1
tp524
Rp525
(I3
S'|'
p526
NNNI34
I1
I0
tp527
bS'Pruning a Hybrid Tea or Shrub Rose'
p528
tp529
Rp530
I157
sg1
(g2
(S'S28'
p531
I0
I1
tp532
Rp533
(I3
S'|'
p534
NNNI28
I1
I0
tp535
bS'Installing a Hanging Fixture'
p536
tp537
Rp538
I142
sg1
(g2
(S'S34'
p539
I0
I1
tp540
Rp541
(I3
S'|'
p542
NNNI34
I1
I0
tp543
bS'Installing Precast Concrete Edging'
p544
tp545
Rp546
I148
sg1
(g2
(S'S28'
p547
I0
I1
tp548
Rp549
(I3
S'|'
p550
NNNI28
I1
I0
tp551
bS'Mortising a Door Latch Three'
p552
tp553
Rp554
I16
sg1
(g2
(S'S31'
p555
I0
I1
tp556
Rp557
(I3
S'|'
p558
NNNI31
I1
I0
tp559
bS'How To Make an Illuminated Star'
p560
tp561
Rp562
I222
sg1
(g2
(S'S35'
p563
I0
I1
tp564
Rp565
(I3
S'|'
p566
NNNI35
I1
I0
tp567
bS'Installing an Underground Pet Fence'
p568
tp569
Rp570
I101
sg1
(g2
(S'S30'
p571
I0
I1
tp572
Rp573
(I3
S'|'
p574
NNNI30
I1
I0
tp575
bS'Tools for Laying Tile Flooring'
p576
tp577
Rp578
I167
sg1
(g2
(S'S23'
p579
I0
I1
tp580
Rp581
(I3
S'|'
p582
NNNI23
I1
I0
tp583
bS'Christmas Ornament Tree'
p584
tp585
Rp586
I178
sg1
(g2
(S'S36'
p587
I0
I1
tp588
Rp589
(I3
S'|'
p590
NNNI36
I1
I0
tp591
bS'Connecting Faucets with Supply Tubes'
p592
tp593
Rp594
I202
sg1
(g2
(S'S54'
p595
I0
I1
tp596
Rp597
(I3
S'|'
p598
NNNI54
I1
I0
tp599
bS'Craft Board for an Advent Calendar or Star Card Holder'
p600
tp601
Rp602
I50
sg1
(g2
(S'S26'
p603
I0
I1
tp604
Rp605
(I3
S'|'
p606
NNNI26
I1
I0
tp607
bS'Building a Multilevel Deck'
p608
tp609
Rp610
I234
sg1
(g2
(S'S28'
p611
I0
I1
tp612
Rp613
(I3
S'|'
p614
NNNI28
I1
I0
tp615
bS'Maintaining Your Storm Doors'
p616
tp617
Rp618
I115
sg1
(g2
(S'S29'
p619
I0
I1
tp620
Rp621
(I3
S'|'
p622
NNNI29
I1
I0
tp623
bS'Installing a Chain-Link Fence'
p624
tp625
Rp626
I160
sg1
(g2
(S'S14'
p627
I0
I1
tp628
Rp629
(I3
S'|'
p630
NNNI14
I1
I0
tp631
bS'Staking a Tree'
p632
tp633
Rp634
I158
sg1
(g2
(S'S46'
p635
I0
I1
tp636
Rp637
(I3
S'|'
p638
NNNI46
I1
I0
tp639
bS'Update Your Outdoor Furniture with Spray Paint'
p640
tp641
Rp642
I29
sg1
(g2
(S'S26'
p643
I0
I1
tp644
Rp645
(I3
S'|'
p646
NNNI26
I1
I0
tp647
bS'Affordable Kitchen Updates'
p648
tp649
Rp650
I127
sg1
(g2
(S'S21'
p651
I0
I1
tp652
Rp653
(I3
S'|'
p654
NNNI21
I1
I0
tp655
bS'Installing a Bath Fan'
p656
tp657
Rp658
I209
sg1
(g2
(S'S30'
p659
I0
I1
tp660
Rp661
(I3
S'|'
p662
NNNI30
I1
I0
tp663
bS'Replacing a Tile in Your Floor'
p664
tp665
Rp666
I1
sg1
(g2
(S'S20'
p667
I0
I1
tp668
Rp669
(I3
S'|'
p670
NNNI20
I1
I0
tp671
bS'Grouting Tile Floors'
p672
tp673
Rp674
I22
sg1
(g2
(S'S24'
p675
I0
I1
tp676
Rp677
(I3
S'|'
p678
NNNI24
I1
I0
tp679
bS'Installing a New Circuit'
p680
tp681
Rp682
I230
sg1
(g2
(S'S31'
p683
I0
I1
tp684
Rp685
(I3
S'|'
p686
NNNI31
I1
I0
tp687
bS'Preparing Woodwork for Painting'
p688
tp689
Rp690
I71
sg1
(g2
(S'S22'
p691
I0
I1
tp692
Rp693
(I3
S'|'
p694
NNNI22
I1
I0
tp695
bS'Patching Peeling Paint'
p696
tp697
Rp698
I12
sg1
(g2
(S'S27'
p699
I0
I1
tp700
Rp701
(I3
S'|'
p702
NNNI27
I1
I0
tp703
bS'Installing a New Showerhead'
p704
tp705
Rp706
I15
sg1
(g2
(S'S36'
p707
I0
I1
tp708
Rp709
(I3
S'|'
p710
NNNI36
I1
I0
tp711
bS'Roll-up Garage Door Maintenance Tips'
p712
tp713
Rp714
I38
sg1
(g2
(S'S34'
p715
I0
I1
tp716
Rp717
(I3
S'|'
p718
NNNI34
I1
I0
tp719
bS'Installing Landscape Timber Edging'
p720
tp721
Rp722
I219
sg1
(g2
(S'S46'
p723
I0
I1
tp724
Rp725
(I3
S'|'
p726
NNNI46
I1
I0
tp727
bS'Installing Audio and Video Cables Behind Walls'
p728
tp729
Rp730
I139
sg1
(g2
(S'S29'
p731
I0
I1
tp732
Rp733
(I3
S'|'
p734
NNNI29
I1
I0
tp735
bS'Holiday Landscape Centerpiece'
p736
tp737
Rp738
I102
sg1
(g2
(S'S16'
p739
I0
I1
tp740
Rp741
(I3
S'|'
p742
NNNI16
I1
I0
tp743
bS'Replacing a Step'
p744
tp745
Rp746
I69
sg1
(g2
(S'S36'
p747
I0
I1
tp748
Rp749
(I3
S'|'
p750
NNNI36
I1
I0
tp751
bS'Affordable Exterior Painting Updates'
p752
tp753
Rp754
I21
sg1
(g2
(S'S38'
p755
I0
I1
tp756
Rp757
(I3
S'|'
p758
NNNI38
I1
I0
tp759
bS'How To Make a Holiday Ornament Garland'
p760
tp761
Rp762
I19
sg1
(g2
(S'S26'
p763
I0
I1
tp764
Rp765
(I3
S'|'
p766
NNNI26
I1
I0
tp767
bS'How To Install an Intercom'
p768
tp769
Rp770
I140
sg1
(g2
(S'S32'
p771
I0
I1
tp772
Rp773
(I3
S'|'
p774
NNNI32
I1
I0
tp775
bS'Water Heater Installation Basics'
p776
tp777
Rp778
I47
sg1
(g2
(S'S32'
p779
I0
I1
tp780
Rp781
(I3
S'|'
p782
NNNI32
I1
I0
tp783
bS'Installing a Laminate Countertop'
p784
tp785
Rp786
I232
sg1
(g2
(S'S37'
p787
I0
I1
tp788
Rp789
(I3
S'|'
p790
NNNI37
I1
I0
tp791
bS'Installing a Wall Mount Light Fixture'
p792
tp793
Rp794
I51
sg1
(g2
(S'S18'
p795
I0
I1
tp796
Rp797
(I3
S'|'
p798
NNNI18
I1
I0
tp799
bS'Renewing Your Deck'
p800
tp801
Rp802
I30
sg1
(g2
(S'S35'
p803
I0
I1
tp804
Rp805
(I3
S'|'
p806
NNNI35
I1
I0
tp807
bS'Replacing a Water Heater Thermostat'
p808
tp809
Rp810
I55
sg1
(g2
(S'S36'
p811
I0
I1
tp812
Rp813
(I3
S'|'
p814
NNNI36
I1
I0
tp815
bS'Installing Split-Jamb Interior Doors'
p816
tp817
Rp818
I228
sg1
(g2
(S'S32'
p819
I0
I1
tp820
Rp821
(I3
S'|'
p822
NNNI32
I1
I0
tp823
bS'How To Install a Tile Backsplash'
p824
tp825
Rp826
I216
sg1
(g2
(S'S39'
p827
I0
I1
tp828
Rp829
(I3
S'|'
p830
NNNI39
I1
I0
tp831
bS'Making Minor Adjustments to Your Toilet'
p832
tp833
Rp834
I114
sg1
(g2
(S'S25'
p835
I0
I1
tp836
Rp837
(I3
S'|'
p838
NNNI25
I1
I0
tp839
bS'Installing a Drop-in Sink'
p840
tp841
Rp842
I194
sg1
(g2
(S'S20'
p843
I0
I1
tp844
Rp845
(I3
S'|'
p846
NNNI20
I1
I0
tp847
bS'Laying Out the Posts'
p848
tp849
Rp850
I134
sg1
(g2
(S'S25'
p851
I0
I1
tp852
Rp853
(I3
S'|'
p854
NNNI25
I1
I0
tp855
bS'Patching a Lawn with Seed'
p856
tp857
Rp858
I112
sg1
(g2
(S'S16'
p859
I0
I1
tp860
Rp861
(I3
S'|'
p862
NNNI16
I1
I0
tp863
bS'Using a Heat Gun'
p864
tp865
Rp866
I128
sg1
(g2
(S'S20'
p867
I0
I1
tp868
Rp869
(I3
S'|'
p870
NNNI20
I1
I0
tp871
bS'Composting Made Easy'
p872
tp873
Rp874
I122
sg1
(g2
(S'S36'
p875
I0
I1
tp876
Rp877
(I3
S'|'
p878
NNNI36
I1
I0
tp879
bS'Countertop Care and Maintenance Tips'
p880
tp881
Rp882
I187
sg1
(g2
(S'S29'
p883
I0
I1
tp884
Rp885
(I3
S'|'
p886
NNNI29
I1
I0
tp887
bS'Repairing Compression Faucets'
p888
tp889
Rp890
I80
sg1
(g2
(S'S42'
p891
I0
I1
tp892
Rp893
(I3
S'|'
p894
NNNI42
I1
I0
tp895
bS'Window Installation and Window Replacement'
p896
tp897
Rp898
I96
sg1
(g2
(S'S35'
p899
I0
I1
tp900
Rp901
(I3
S'|'
p902
NNNI35
I1
I0
tp903
bS'Installing a Window Air-Conditioner'
p904
tp905
Rp906
I106
sg1
(g2
(S'S23'
p907
I0
I1
tp908
Rp909
(I3
S'|'
p910
NNNI23
I1
I0
tp911
bS'Installing a Thermostat'
p912
tp913
Rp914
I162
sg1
(g2
(S'S23'
p915
I0
I1
tp916
Rp917
(I3
S'|'
p918
NNNI23
I1
I0
tp919
bS'Installing a Dishwasher'
p920
tp921
Rp922
I225
sg1
(g2
(S'S29'
p923
I0
I1
tp924
Rp925
(I3
S'|'
p926
NNNI29
I1
I0
tp927
bS'Removing an Old Tub or Shower'
p928
tp929
Rp930
I193
sg1
(g2
(S'S38'
p931
I0
I1
tp932
Rp933
(I3
S'|'
p934
NNNI38
I1
I0
tp935
bS'Add a Wall Switch to a Ceiling Fixture'
p936
tp937
Rp938
I33
sg1
(g2
(S'S42'
p939
I0
I1
tp940
Rp941
(I3
S'|'
p942
NNNI42
I1
I0
tp943
bS'Stopping Squeaks in Your Floors and Stairs'
p944
tp945
Rp946
I52
sg1
(g2
(S'S20'
p947
I0
I1
tp948
Rp949
(I3
S'|'
p950
NNNI20
I1
I0
tp951
bS'Replacing Door Pulls'
p952
tp953
Rp954
I74
sg1
(g2
(S'S21'
p955
I0
I1
tp956
Rp957
(I3
S'|'
p958
NNNI21
I1
I0
tp959
bS'Removing Old Cabinets'
p960
tp961
Rp962
I123
sg1
(g2
(S'S25'
p963
I0
I1
tp964
Rp965
(I3
S'|'
p966
NNNI25
I1
I0
tp967
bS'Glass Window Installation'
p968
tp969
Rp970
I213
sg1
(g2
(S'S38'
p971
I0
I1
tp972
Rp973
(I3
S'|'
p974
NNNI38
I1
I0
tp975
bS'How To Make a Terra Cotta Pot Fountain'
p976
tp977
Rp978
I165
sg1
(g2
(S'S35'
p979
I0
I1
tp980
Rp981
(I3
S'|'
p982
NNNI35
I1
I0
tp983
bS'Installing a Drip Irrigation System'
p984
tp985
Rp986
I45
sg1
(g2
(S'S46'
p987
I0
I1
tp988
Rp989
(I3
S'|'
p990
NNNI46
I1
I0
tp991
bS'Extending Power to Fixtures With Metal Raceway'
p992
tp993
Rp994
I57
sg1
(g2
(S'S33'
p995
I0
I1
tp996
Rp997
(I3
S'|'
p998
NNNI33
I1
I0
tp999
bS'Picnic Table with Built-in Cooler'
p1000
tp1001
Rp1002
I198
sg1
(g2
(S'S31'
p1003
I0
I1
tp1004
Rp1005
(I3
S'|'
p1006
NNNI31
I1
I0
tp1007
bS'22 Paint Hacks, Tips and Tricks'
p1008
tp1009
Rp1010
I85
sg1
(g2
(S'S17'
p1011
I0
I1
tp1012
Rp1013
(I3
S'|'
p1014
NNNI17
I1
I0
tp1015
bS'Feeding Your Lawn'
p1016
tp1017
Rp1018
I25
sg1
(g2
(S'S20'
p1019
I0
I1
tp1020
Rp1021
(I3
S'|'
p1022
NNNI20
I1
I0
tp1023
bS'Replacing a Doorbell'
p1024
tp1025
Rp1026
I92
sg1
(g2
(S'S21'
p1027
I0
I1
tp1028
Rp1029
(I3
S'|'
p1030
NNNI21
I1
I0
tp1031
bS'Changing a Dryer Cord'
p1032
tp1033
Rp1034
I93
sg1
(g2
(S'S15'
p1035
I0
I1
tp1036
Rp1037
(I3
S'|'
p1038
NNNI15
I1
I0
tp1039
bS'Pruning a Hedge'
p1040
tp1041
Rp1042
I199
sg1
(g2
(S'S34'
p1043
I0
I1
tp1044
Rp1045
(I3
S'|'
p1046
NNNI34
I1
I0
tp1047
bS'Removing and Replacing a Threshold'
p1048
tp1049
Rp1050
I0
sg1
(g2
(S'S19'
p1051
I0
I1
tp1052
Rp1053
(I3
S'|'
p1054
NNNI19
I1
I0
tp1055
bS'Cutting New Borders'
p1056
tp1057
Rp1058
I235
sg1
(g2
(S'S23'
p1059
I0
I1
tp1060
Rp1061
(I3
S'|'
p1062
NNNI23
I1
I0
tp1063
bS'How To Build a Fire Pit'
p1064
tp1065
Rp1066
I76
sg1
(g2
(S'S32'
p1067
I0
I1
tp1068
Rp1069
(I3
S'|'
p1070
NNNI32
I1
I0
tp1071
bS'Installing an Evaporative Cooler'
p1072
tp1073
Rp1074
I203
sg1
(g2
(S'S37'
p1075
I0
I1
tp1076
Rp1077
(I3
S'|'
p1078
NNNI37
I1
I0
tp1079
bS'How To Install a Home Security System'
p1080
tp1081
Rp1082
I201
sg1
(g2
(S'S30'
p1083
I0
I1
tp1084
Rp1085
(I3
S'|'
p1086
NNNI30
I1
I0
tp1087
bS'Removing an Old Kitchen Faucet'
p1088
tp1089
Rp1090
I132
sg1
(g2
(S'S22'
p1091
I0
I1
tp1092
Rp1093
(I3
S'|'
p1094
NNNI22
I1
I0
tp1095
bS'Painting Window Frames'
p1096
tp1097
Rp1098
I46
sg1
(g2
(S'S34'
p1099
I0
I1
tp1100
Rp1101
(I3
S'|'
p1102
NNNI34
I1
I0
tp1103
bS'Installing a Hand-Held Shower Unit'
p1104
tp1105
Rp1106
I35
sg1
(g2
(S'S27'
p1107
I0
I1
tp1108
Rp1109
(I3
S'|'
p1110
NNNI27
I1
I0
tp1111
bS'Installing Coaxial TV Cable'
p1112
tp1113
Rp1114
I53
sg1
(g2
(S'S39'
p1115
I0
I1
tp1116
Rp1117
(I3
S'|'
p1118
NNNI39
I1
I0
tp1119
bS'How To Make a Holiday Wreath Chandelier'
p1120
tp1121
Rp1122
I207
sg1
(g2
(S'S42'
p1123
I0
I1
tp1124
Rp1125
(I3
S'|'
p1126
NNNI42
I1
I0
tp1127
bS'Repairing and Maintaining Fences and Gates'
p1128
tp1129
Rp1130
I7
sg1
(g2
(S'S25'
p1131
I0
I1
tp1132
Rp1133
(I3
S'|'
p1134
NNNI25
I1
I0
tp1135
bS'Finishing Outside Corners'
p1136
tp1137
Rp1138
I150
sg1
(g2
(S'S32'
p1139
I0
I1
tp1140
Rp1141
(I3
S'|'
p1142
NNNI32
I1
I0
tp1143
bS'Building Your Own Fence Sections'
p1144
tp1145
Rp1146
I60
sg1
(g2
(S'S25'
p1147
I0
I1
tp1148
Rp1149
(I3
S'|'
p1150
NNNI25
I1
I0
tp1151
bS'Installing a Parquet Tile'
p1152
tp1153
Rp1154
I147
sg1
(g2
(S'S31'
p1155
I0
I1
tp1156
Rp1157
(I3
S'|'
p1158
NNNI31
I1
I0
tp1159
bS'How To Maintain Your Lawn Mower'
p1160
tp1161
Rp1162
I54
sg1
(g2
(S'S27'
p1163
I0
I1
tp1164
Rp1165
(I3
S'|'
p1166
NNNI27
I1
I0
tp1167
bS'Replacing a Worn Valve Seat'
p1168
tp1169
Rp1170
I182
sg1
(g2
(S'S23'
p1171
I0
I1
tp1172
Rp1173
(I3
S'|'
p1174
NNNI23
I1
I0
tp1175
bS'Freeing a Sticking Door'
p1176
tp1177
Rp1178
I174
sg1
(g2
(S'S42'
p1179
I0
I1
tp1180
Rp1181
(I3
S'|'
p1182
NNNI42
I1
I0
tp1183
bS'Get Ready for Spring with Lawn Maintenance'
p1184
tp1185
Rp1186
I156
sg1
(g2
(S'S29'
p1187
I0
I1
tp1188
Rp1189
(I3
S'|'
p1190
NNNI29
I1
I0
tp1191
bS'How To Install Crown Moulding'
p1192
tp1193
Rp1194
I172
sg1
(g2
(S'S25'
p1195
I0
I1
tp1196
Rp1197
(I3
S'|'
p1198
NNNI25
I1
I0
tp1199
bS'Container Planting Basics'
p1200
tp1201
Rp1202
I205
sg1
(g2
(S'S17'
p1203
I0
I1
tp1204
Rp1205
(I3
S'|'
p1206
NNNI17
I1
I0
tp1207
bS'Preparing the Bed'
p1208
tp1209
Rp1210
I75
sg1
(g2
(S'S20'
p1211
I0
I1
tp1212
Rp1213
(I3
S'|'
p1214
NNNI20
I1
I0
tp1215
bS'Build a Flower Tower'
p1216
tp1217
Rp1218
I91
sg1
(g2
(S'S16'
p1219
I0
I1
tp1220
Rp1221
(I3
S'|'
p1222
NNNI16
I1
I0
tp1223
bS'Planting a Shrub'
p1224
tp1225
Rp1226
I136
sg1
(g2
(S'S33'
p1227
I0
I1
tp1228
Rp1229
(I3
S'|'
p1230
NNNI33
I1
I0
tp1231
bS'Getting Ready to Install Cabinets'
p1232
tp1233
Rp1234
I124
sg1
(g2
(S'S28'
p1235
I0
I1
tp1236
Rp1237
(I3
S'|'
p1238
NNNI28
I1
I0
tp1239
bS'Installing Flat Brick Edging'
p1240
tp1241
Rp1242
I105
sg1
(g2
(S'S37'
p1243
I0
I1
tp1244
Rp1245
(I3
S'|'
p1246
NNNI37
I1
I0
tp1247
bS'Installing a Whole-House Water Filter'
p1248
tp1249
Rp1250
I27
sg1
(g2
(S'S20'
p1251
I0
I1
tp1252
Rp1253
(I3
S'|'
p1254
NNNI20
I1
I0
tp1255
bS'Assembling the Swing'
p1256
tp1257
Rp1258
I208
sg1
(g2
(S'S24'
p1259
I0
I1
tp1260
Rp1261
(I3
S'|'
p1262
NNNI24
I1
I0
tp1263
bS'Sharpening a Mower Blade'
p1264
tp1265
Rp1266
I104
sg1
(g2
(S'S31'
p1267
I0
I1
tp1268
Rp1269
(I3
S'|'
p1270
NNNI31
I1
I0
tp1271
bS'Installing a Garage Door Opener'
p1272
tp1273
Rp1274
I173
sg1
(g2
(S'S19'
p1275
I0
I1
tp1276
Rp1277
(I3
S'|'
p1278
NNNI19
I1
I0
tp1279
bS'Dividing Perennials'
p1280
tp1281
Rp1282
I17
sg1
(g2
(S'S28'
p1283
I0
I1
tp1284
Rp1285
(I3
S'|'
p1286
NNNI28
I1
I0
tp1287
bS'Adding a Telephone Extension'
p1288
tp1289
Rp1290
I58
sg1
(g2
(S'S30'
p1291
I0
I1
tp1292
Rp1293
(I3
S'|'
p1294
NNNI30
I1
I0
tp1295
bS'Wall-Mounting a Flat Screen TV'
p1296
tp1297
Rp1298
I84
sg1
(g2
(S'S22'
p1299
I0
I1
tp1300
Rp1301
(I3
S'|'
p1302
NNNI22
I1
I0
tp1303
bS'Laying Out Floor Tiles'
p1304
tp1305
Rp1306
I215
sg1
(g2
(S'S64'
p1307
I0
I1
tp1308
Rp1309
(I3
S'|'
p1310
NNNI64
I1
I0
tp1311
bS'Installing New Bathtub and Shower Wall Panels \xe2\x80\x93 Direct-to-Stud'
p1312
tp1313
Rp1314
I239
sg1
(g2
(S'S34'
p1315
I0
I1
tp1316
Rp1317
(I3
S'|'
p1318
NNNI34
I1
I0
tp1319
bS'How To Decorate a Wood Floor Inlay'
p1320
tp1321
Rp1322
I111
sg1
(g2
(S'S34'
p1323
I0
I1
tp1324
Rp1325
(I3
S'|'
p1326
NNNI34
I1
I0
tp1327
bS'How To Build a Post-and-Rail Fence'
p1328
tp1329
Rp1330
I145
sg1
(g2
(S'S28'
p1331
I0
I1
tp1332
Rp1333
(I3
S'|'
p1334
NNNI28
I1
I0
tp1335
bS'Building a Wooden Raised Bed'
p1336
tp1337
Rp1338
I233
sg1
(g2
(S'S35'
p1339
I0
I1
tp1340
Rp1341
(I3
S'|'
p1342
NNNI35
I1
I0
tp1343
bS'Installing a Plunger Valve Ballcock'
p1344
tp1345
Rp1346
I137
sg1
(g2
(S'S32'
p1347
I0
I1
tp1348
Rp1349
(I3
S'|'
p1350
NNNI32
I1
I0
tp1351
bS'How To Decorate a Christmas Tree'
p1352
tp1353
Rp1354
I11
sg1
(g2
(S'S25'
p1355
I0
I1
tp1356
Rp1357
(I3
S'|'
p1358
NNNI25
I1
I0
tp1359
bS'Shower Faucet Replacement'
p1360
tp1361
Rp1362
I90
sg1
(g2
(S'S28'
p1363
I0
I1
tp1364
Rp1365
(I3
S'|'
p1366
NNNI28
I1
I0
tp1367
bS'Installing a Shower Surround'
p1368
tp1369
Rp1370
I2
sg1
(g2
(S'S19'
p1371
I0
I1
tp1372
Rp1373
(I3
S'|'
p1374
NNNI19
I1
I0
tp1375
bS'Setting Floor Tiles'
p1376
tp1377
Rp1378
I179
sg1
(g2
(S'S27'
p1379
I0
I1
tp1380
Rp1381
(I3
S'|'
p1382
NNNI27
I1
I0
tp1383
bS'Installing Bathroom Mirrors'
p1384
tp1385
Rp1386
I117
sg1
(g2
(S'S21'
p1387
I0
I1
tp1388
Rp1389
(I3
S'|'
p1390
NNNI21
I1
I0
tp1391
bS'Overseeding Your Lawn'
p1392
tp1393
Rp1394
I189
sg1
(g2
(S'S24'
p1395
I0
I1
tp1396
Rp1397
(I3
S'|'
p1398
NNNI24
I1
I0
tp1399
bS'Installing Gutter Liners'
p1400
tp1401
Rp1402
I68
sg1
(g2
(S'S25'
p1403
I0
I1
tp1404
Rp1405
(I3
S'|'
p1406
NNNI25
I1
I0
tp1407
bS'Painting an Interior Door'
p1408
tp1409
Rp1410
I143
sg1
(g2
(S'S23'
p1411
I0
I1
tp1412
Rp1413
(I3
S'|'
p1414
NNNI23
I1
I0
tp1415
bS'Installing a Shower Pan'
p1416
tp1417
Rp1418
I73
sg1
(g2
(S'S19'
p1419
I0
I1
tp1420
Rp1421
(I3
S'|'
p1422
NNNI19
I1
I0
tp1423
bS'Stripping Furniture'
p1424
tp1425
Rp1426
I43
sg1
(g2
(S'S28'
p1427
I0
I1
tp1428
Rp1429
(I3
S'|'
p1430
NNNI28
I1
I0
tp1431
bS'Add Value to Your Home Decor'
p1432
tp1433
Rp1434
I36
sg1
(g2
(S'S39'
p1435
I0
I1
tp1436
Rp1437
(I3
S'|'
p1438
NNNI39
I1
I0
tp1439
bS'How To Create a Three Season Garden Bed'
p1440
tp1441
Rp1442
I154
sg1
(g2
(S'S44'
p1443
I0
I1
tp1444
Rp1445
(I3
S'|'
p1446
NNNI44
I1
I0
tp1447
bS'Preparing the Arm Assemblies and Seat Slates'
p1448
tp1449
Rp1450
I184
sg1
(g2
(S'S17'
p1451
I0
I1
tp1452
Rp1453
(I3
S'|'
p1454
NNNI17
I1
I0
tp1455
bS'Patching a Screen'
p1456
tp1457
Rp1458
I163
sg1
(g2
(S'S33'
p1459
I0
I1
tp1460
Rp1461
(I3
S'|'
p1462
NNNI33
I1
I0
tp1463
bS'Installing Self-Stick Vinyl Tiles'
p1464
tp1465
Rp1466
I37
sg1
(g2
(S'S30'
p1467
I0
I1
tp1468
Rp1469
(I3
S'|'
p1470
NNNI30
I1
I0
tp1471
bS'Repairing Ceramic Disk Faucets'
p1472
tp1473
Rp1474
I56
sg1
(g2
(S'S35'
p1475
I0
I1
tp1476
Rp1477
(I3
S'|'
p1478
NNNI35
I1
I0
tp1479
bS'Installing an Electric Water Heater'
p1480
tp1481
Rp1482
I135
sg1
(g2
(S'S27'
p1483
I0
I1
tp1484
Rp1485
(I3
S'|'
p1486
NNNI27
I1
I0
tp1487
bS'Stripping and Splicing Wire'
p1488
tp1489
Rp1490
I83
sg1
(g2
(S'S23'
p1491
I0
I1
tp1492
Rp1493
(I3
S'|'
p1494
NNNI23
I1
I0
tp1495
bS'Setting Posts on a Pier'
p1496
tp1497
Rp1498
I211
sg1
(g2
(S'S19'
p1499
I0
I1
tp1500
Rp1501
(I3
S'|'
p1502
NNNI19
I1
I0
tp1503
bS'Installing a Toilet'
p1504
tp1505
Rp1506
I237
sg1
(g2
(S'S24'
p1507
I0
I1
tp1508
Rp1509
(I3
S'|'
p1510
NNNI24
I1
I0
tp1511
bS'Faux Painting - Sponging'
p1512
tp1513
Rp1514
I10
sg1
(g2
(S'S47'
p1515
I0
I1
tp1516
Rp1517
(I3
S'|'
p1518
NNNI47
I1
I0
tp1519
bS'How To Install a 60 Watt Solar Power Backup Kit'
p1520
tp1521
Rp1522
I146
sg1
(g2
(S'S16'
p1523
I0
I1
tp1524
Rp1525
(I3
S'|'
p1526
NNNI16
I1
I0
tp1527
bS'Replacing Hinges'
p1528
tp1529
Rp1530
I130
sg1
(g2
(S'S35'
p1531
I0
I1
tp1532
Rp1533
(I3
S'|'
p1534
NNNI35
I1
I0
tp1535
bS'Replacing a Screen in a Metal Frame'
p1536
tp1537
Rp1538
I119
sg1
(g2
(S'S28'
p1539
I0
I1
tp1540
Rp1541
(I3
S'|'
p1542
NNNI28
I1
I0
tp1543
bS'Building a Ground-Level Deck'
p1544
tp1545
Rp1546
I8
sg1
(g2
(S'S20'
p1547
I0
I1
tp1548
Rp1549
(I3
S'|'
p1550
NNNI20
I1
I0
tp1551
bS'Installing Door Trim'
p1552
tp1553
Rp1554
I226
sg1
(g2
(S'S24'
p1555
I0
I1
tp1556
Rp1557
(I3
S'|'
p1558
NNNI24
I1
I0
tp1559
bS'Build an Outdoor Kitchen'
p1560
tp1561
Rp1562
I32
sg1
(g2
(S'S40'
p1563
I0
I1
tp1564
Rp1565
(I3
S'|'
p1566
NNNI40
I1
I0
tp1567
bS'Assembling and Hanging a Chain-Link Gate'
p1568
tp1569
Rp1570
I49
sg1
(g2
(S'S22'
p1571
I0
I1
tp1572
Rp1573
(I3
S'|'
p1574
NNNI22
I1
I0
tp1575
bS'Minor Sidewalk Repairs'
p1576
tp1577
Rp1578
I42
sg1
(g2
(S'S26'
p1579
I0
I1
tp1580
Rp1581
(I3
S'|'
p1582
NNNI26
I1
I0
tp1583
bS'Installing a Dimmer Switch'
p1584
tp1585
Rp1586
I86
sg1
(g2
(S'S30'
p1587
I0
I1
tp1588
Rp1589
(I3
S'|'
p1590
NNNI30
I1
I0
tp1591
bS'Affordable Kitchen Decor Ideas'
p1592
tp1593
Rp1594
I217
sg1
(g2
(S'S27'
p1595
I0
I1
tp1596
Rp1597
(I3
S'|'
p1598
NNNI27
I1
I0
tp1599
bS'Hanging Ornament Chandelier'
p1600
tp1601
Rp1602
I204
sg1
(g2
(S'S35'
p1603
I0
I1
tp1604
Rp1605
(I3
S'|'
p1606
NNNI35
I1
I0
tp1607
bS'How To Make a Christmas Centerpiece'
p1608
tp1609
Rp1610
I192
sg1
(g2
(S'S46'
p1611
I0
I1
tp1612
Rp1613
(I3
S'|'
p1614
NNNI46
I1
I0
tp1615
bS'Adjusting a Toilet Tank Handle and Water Level'
p1616
tp1617
Rp1618
I181
sg1
(g2
(S'S14'
p1619
I0
I1
tp1620
Rp1621
(I3
S'|'
p1622
NNNI14
I1
I0
tp1623
bS'Trapeze Lights'
p1624
tp1625
Rp1626
I176
sg1
(g2
(S'S24'
p1627
I0
I1
tp1628
Rp1629
(I3
S'|'
p1630
NNNI24
I1
I0
tp1631
bS'Finishing Inside Corners'
p1632
tp1633
Rp1634
I24
sg1
(g2
(S'S48'
p1635
I0
I1
tp1636
Rp1637
(I3
S'|'
p1638
NNNI48
I1
I0
tp1639
bS'Installing a New Kitchen Faucet and Side Sprayer'
p1640
tp1641
Rp1642
I103
sg1
(g2
(S'S26'
p1643
I0
I1
tp1644
Rp1645
(I3
S'|'
p1646
NNNI26
I1
I0
tp1647
bS'Paint Storage and Disposal'
p1648
tp1649
Rp1650
I107
sg1
(g2
(S'S23'
p1651
I0
I1
tp1652
Rp1653
(I3
S'|'
p1654
NNNI23
I1
I0
tp1655
bS'Resurfacing Valve Seats'
p1656
tp1657
Rp1658
I164
sg1
(g2
(S'S31'
p1659
I0
I1
tp1660
Rp1661
(I3
S'|'
p1662
NNNI31
I1
I0
tp1663
bS'Installing Low-Voltage Lighting'
p1664
tp1665
Rp1666
I238
sg1
(g2
(S'S25'
p1667
I0
I1
tp1668
Rp1669
(I3
S'|'
p1670
NNNI25
I1
I0
tp1671
bS'Laying Out Square Corners'
p1672
tp1673
Rp1674
I67
sg1
(g2
(S'S23'
p1675
I0
I1
tp1676
Rp1677
(I3
S'|'
p1678
NNNI23
I1
I0
tp1679
bS'Painting Exterior Walls'
p1680
tp1681
Rp1682
I14
sg1
(g2
(S'S24'
p1683
I0
I1
tp1684
Rp1685
(I3
S'|'
p1686
NNNI24
I1
I0
tp1687
bS'Removing a Wood Flooring'
p1688
tp1689
Rp1690
I155
sg1
(g2
(S'S16'
p1691
I0
I1
tp1692
Rp1693
(I3
S'|'
p1694
NNNI16
I1
I0
tp1695
bS'Planting Flowers'
p1696
tp1697
Rp1698
I210
sg1
(g2
(S'S19'
p1699
I0
I1
tp1700
Rp1701
(I3
S'|'
p1702
NNNI19
I1
I0
tp1703
bS'Refinishing a Floor'
p1704
tp1705
Rp1706
I97
sg1
(g2
(S'S31'
p1707
I0
I1
tp1708
Rp1709
(I3
S'|'
p1710
NNNI31
I1
I0
tp1711
bS'Weatherproofing Your Entry Door'
p1712
tp1713
Rp1714
I89
sg1
(g2
(S'S43'
p1715
I0
I1
tp1716
Rp1717
(I3
S'|'
p1718
NNNI43
I1
I0
tp1719
bS'Replacing a Single Pole Switch with a Timer'
p1720
tp1721
Rp1722
I220
sg1
(g2
(S'S22'
p1723
I0
I1
tp1724
Rp1725
(I3
S'|'
p1726
NNNI22
I1
I0
tp1727
bS'Installing a Gable Fan'
p1728
tp1729
Rp1730
I44
sg1
(g2
(S'S20'
p1731
I0
I1
tp1732
Rp1733
(I3
S'|'
p1734
NNNI20
I1
I0
tp1735
bS'Priming Is Essential'
p1736
tp1737
Rp1738
I212
sg1
(g2
(S'S15'
p1739
I0
I1
tp1740
Rp1741
(I3
S'|'
p1742
NNNI15
I1
I0
tp1743
bS'Hanging Borders'
p1744
tp1745
Rp1746
I99
sg1
(g2
(S'S49'
p1747
I0
I1
tp1748
Rp1749
(I3
S'|'
p1750
NNNI49
I1
I0
tp1751
bS'Emergency Quick Fixes for Frozen or Leaking Pipes'
p1752
tp1753
Rp1754
I31
sg1
(g2
(S'S12'
p1755
I0
I1
tp1756
Rp1757
(I3
S'|'
p1758
NNNI12
I1
I0
tp1759
bS'Sponging Off'
p1760
tp1761
Rp1762
I48
sg1
(g2
(S'S42'
p1763
I0
I1
tp1764
Rp1765
(I3
S'|'
p1766
NNNI42
I1
I0
tp1767
bS'How To Install a Two Handle Kitchen Faucet'
p1768
tp1769
Rp1770
I166
sg1
(g2
(S'S39'
p1771
I0
I1
tp1772
Rp1773
(I3
S'|'
p1774
NNNI39
I1
I0
tp1775
bS'Replacing a Screen in an Aluminum Frame'
p1776
tp1777
Rp1778
I190
sg1
(g2
(S'S24'
p1779
I0
I1
tp1780
Rp1781
(I3
S'|'
p1782
NNNI24
I1
I0
tp1783
bS'Repairing Concrete Steps'
p1784
tp1785
Rp1786
I78
sg1
(g2
(S'S38'
p1787
I0
I1
tp1788
Rp1789
(I3
S'|'
p1790
NNNI38
I1
I0
tp1791
bS'Unique Ways to Decorate with Ornaments'
p1792
tp1793
Rp1794
I223
sg1
(g2
(S'S32'
p1795
I0
I1
tp1796
Rp1797
(I3
S'|'
p1798
NNNI32
I1
I0
tp1799
bS'Repairing Leaky Downspout Joints'
p1800
tp1801
Rp1802
I98
sg1
(g2
(S'S34'
p1803
I0
I1
tp1804
Rp1805
(I3
S'|'
p1806
NNNI34
I1
I0
tp1807
bS'Aligning the Bolt and Strike Plate'
p1808
tp1809
Rp1810
I108
sg1
(g2
(S'S25'
p1811
I0
I1
tp1812
Rp1813
(I3
S'|'
p1814
NNNI25
I1
I0
tp1815
bS'Installing Shutoff Valves'
p1816
tp1817
Rp1818
I195
sg1
(g2
(S'S29'
p1819
I0
I1
tp1820
Rp1821
(I3
S'|'
p1822
NNNI29
I1
I0
tp1823
bS'Starting a New Lawn from Seed'
p1824
tp1825
Rp1826
I170
sg1
(g2
(S'S34'
p1827
I0
I1
tp1828
Rp1829
(I3
S'|'
p1830
NNNI34
I1
I0
tp1831
bS'Adding Mulch Helps Your Plants Pop'
p1832
tp1833
Rp1834
I131
sg1
(g2
(S'S34'
p1835
I0
I1
tp1836
Rp1837
(I3
S'|'
p1838
NNNI34
I1
I0
tp1839
bS'Weatherproofing Other Window Types'
p1840
tp1841
Rp1842
I175
sg1
(g2
(S'S32'
p1843
I0
I1
tp1844
Rp1845
(I3
S'|'
p1846
NNNI32
I1
I0
tp1847
bS'Weatherproofing Other Door Types'
p1848
tp1849
Rp1850
I118
sg1
(g2
(S'S27'
p1851
I0
I1
tp1852
Rp1853
(I3
S'|'
p1854
NNNI27
I1
I0
tp1855
bS'How To Weatherize Your Home'
p1856
tp1857
Rp1858
I197
sg1
(g2
(S'S32'
p1859
I0
I1
tp1860
Rp1861
(I3
S'|'
p1862
NNNI32
I1
I0
tp1863
bS'Framing a Pre-hung Interior Door'
p1864
tp1865
Rp1866
I3
sg1
(g2
(S'S27'
p1867
I0
I1
tp1868
Rp1869
(I3
S'|'
p1870
NNNI27
I1
I0
tp1871
bS'Installing Remodeling Boxes'
p1872
tp1873
Rp1874
I116
sg1
(g2
(S'S23'
p1875
I0
I1
tp1876
Rp1877
(I3
S'|'
p1878
NNNI23
I1
I0
tp1879
bS'Installing a Range Hood'
p1880
tp1881
Rp1882
I231
sg1
(g2
(S'S32'
p1883
I0
I1
tp1884
Rp1885
(I3
S'|'
p1886
NNNI32
I1
I0
tp1887
bS'Repairing Cartridge Sink Faucets'
p1888
tp1889
Rp1890
I113
sg1
(g2
(S'S25'
p1891
I0
I1
tp1892
Rp1893
(I3
S'|'
p1894
NNNI25
I1
I0
tp1895
bS'Painting Vertical Stripes'
p1896
tp1897
Rp1898
I82
sg1
(g2
(S'S36'
p1899
I0
I1
tp1900
Rp1901
(I3
S'|'
p1902
NNNI36
I1
I0
tp1903
bS'How To Install a Surveillance System'
p1904
tp1905
Rp1906
I28
sg1
(g2
(S'S27'
p1907
I0
I1
tp1908
Rp1909
(I3
S'|'
p1910
NNNI27
I1
I0
tp1911
bS'Painting Soffits and Fascia'
p1912
tp1913
Rp1914
I224
sg1
(g2
(S'S16'
p1915
I0
I1
tp1916
Rp1917
(I3
S'|'
p1918
NNNI16
I1
I0
tp1919
bS'How To Fertilize'
p1920
tp1921
Rp1922
I169
s.