(dp0
I0
cnumpy.core.multiarray
scalar
p1
(cnumpy
dtype
p2
(S'S34'
p3
I0
I1
tp4
Rp5
(I3
S'|'
p6
NNNI34
I1
I0
tp7
bS'Removing and Replacing a Threshold'
p8
tp9
Rp10
sI1
g1
(g2
(S'S30'
p11
I0
I1
tp12
Rp13
(I3
S'|'
p14
NNNI30
I1
I0
tp15
bS'Replacing a Tile in Your Floor'
p16
tp17
Rp18
sI2
g1
(g2
(S'S28'
p19
I0
I1
tp20
Rp21
(I3
S'|'
p22
NNNI28
I1
I0
tp23
bS'Installing a Shower Surround'
p24
tp25
Rp26
sI3
g1
(g2
(S'S32'
p27
I0
I1
tp28
Rp29
(I3
S'|'
p30
NNNI32
I1
I0
tp31
bS'Framing a Pre-hung Interior Door'
p32
tp33
Rp34
sI4
g1
(g2
(S'S13'
p35
I0
I1
tp36
Rp37
(I3
S'|'
p38
NNNI13
I1
I0
tp39
bS'Tiling a Wall'
p40
tp41
Rp42
sI5
g1
(g2
(S'S26'
p43
I0
I1
tp44
Rp45
(I3
S'|'
p46
NNNI26
I1
I0
tp47
bS'Maintaining a Water Heater'
p48
tp49
Rp50
sI6
g1
(g2
(S'S25'
p51
I0
I1
tp52
Rp53
(I3
S'|'
p54
NNNI25
I1
I0
tp55
bS'Planting a Bare-Root Rose'
p56
tp57
Rp58
sI7
g1
(g2
(S'S42'
p59
I0
I1
tp60
Rp61
(I3
S'|'
p62
NNNI42
I1
I0
tp63
bS'Repairing and Maintaining Fences and Gates'
p64
tp65
Rp66
sI8
g1
(g2
(S'S28'
p67
I0
I1
tp68
Rp69
(I3
S'|'
p70
NNNI28
I1
I0
tp71
bS'Building a Ground-Level Deck'
p72
tp73
Rp74
sI9
g1
(g2
(S'S35'
p75
I0
I1
tp76
Rp77
(I3
S'|'
p78
NNNI35
I1
I0
tp79
bS'Clearing Sink Drains with a Plunger'
p80
tp81
Rp82
sI10
g1
(g2
(S'S24'
p83
I0
I1
tp84
Rp85
(I3
S'|'
p86
NNNI24
I1
I0
tp87
bS'Faux Painting - Sponging'
p88
tp89
Rp90
sI11
g1
(g2
(S'S32'
p91
I0
I1
tp92
Rp93
(I3
S'|'
p94
NNNI32
I1
I0
tp95
bS'How To Decorate a Christmas Tree'
p96
tp97
Rp98
sI12
g1
(g2
(S'S22'
p99
I0
I1
tp100
Rp101
(I3
S'|'
p102
NNNI22
I1
I0
tp103
bS'Patching Peeling Paint'
p104
tp105
Rp106
sI13
g1
(g2
(S'S43'
p107
I0
I1
tp108
Rp109
(I3
S'|'
p110
NNNI43
I1
I0
tp111
bS'Installing a New Flush Valve in Your Toilet'
p112
tp113
Rp114
sI14
g1
(g2
(S'S23'
p115
I0
I1
tp116
Rp117
(I3
S'|'
p118
NNNI23
I1
I0
tp119
bS'Painting Exterior Walls'
p120
tp121
Rp122
sI15
g1
(g2
(S'S27'
p123
I0
I1
tp124
Rp125
(I3
S'|'
p126
NNNI27
I1
I0
tp127
bS'Installing a New Showerhead'
p128
tp129
Rp130
sI16
g1
(g2
(S'S28'
p131
I0
I1
tp132
Rp133
(I3
S'|'
p134
NNNI28
I1
I0
tp135
bS'Mortising a Door Latch Three'
p136
tp137
Rp138
sI17
g1
(g2
(S'S19'
p139
I0
I1
tp140
Rp141
(I3
S'|'
p142
NNNI19
I1
I0
tp143
bS'Dividing Perennials'
p144
tp145
Rp146
sI18
g1
(g2
(S'S13'
p147
I0
I1
tp148
Rp149
(I3
S'|'
p150
NNNI13
I1
I0
tp151
bS'Painting Trim'
p152
tp153
Rp154
sI19
g1
(g2
(S'S38'
p155
I0
I1
tp156
Rp157
(I3
S'|'
p158
NNNI38
I1
I0
tp159
bS'How To Make a Holiday Ornament Garland'
p160
tp161
Rp162
sI20
g1
(g2
(S'S34'
p163
I0
I1
tp164
Rp165
(I3
S'|'
p166
NNNI34
I1
I0
tp167
bS'Hillside Fencing and Stepped Rails'
p168
tp169
Rp170
sI21
g1
(g2
(S'S36'
p171
I0
I1
tp172
Rp173
(I3
S'|'
p174
NNNI36
I1
I0
tp175
bS'Affordable Exterior Painting Updates'
p176
tp177
Rp178
sI22
g1
(g2
(S'S20'
p179
I0
I1
tp180
Rp181
(I3
S'|'
p182
NNNI20
I1
I0
tp183
bS'Grouting Tile Floors'
p184
tp185
Rp186
sI23
g1
(g2
(S'S41'
p187
I0
I1
tp188
Rp189
(I3
S'|'
p190
NNNI41
I1
I0
tp191
bS'Installing Hard-Wired Smoke and CO Alarms'
p192
tp193
Rp194
sI24
g1
(g2
(S'S24'
p195
I0
I1
tp196
Rp197
(I3
S'|'
p198
NNNI24
I1
I0
tp199
bS'Finishing Inside Corners'
p200
tp201
Rp202
sI25
g1
(g2
(S'S17'
p203
I0
I1
tp204
Rp205
(I3
S'|'
p206
NNNI17
I1
I0
tp207
bS'Feeding Your Lawn'
p208
tp209
Rp210
sI26
g1
(g2
(S'S27'
p211
I0
I1
tp212
Rp213
(I3
S'|'
p214
NNNI27
I1
I0
tp215
bS'Installing a Water Purifier'
p216
tp217
Rp218
sI27
g1
(g2
(S'S37'
p219
I0
I1
tp220
Rp221
(I3
S'|'
p222
NNNI37
I1
I0
tp223
bS'Installing a Whole-House Water Filter'
p224
tp225
Rp226
sI28
g1
(g2
(S'S36'
p227
I0
I1
tp228
Rp229
(I3
S'|'
p230
NNNI36
I1
I0
tp231
bS'How To Install a Surveillance System'
p232
tp233
Rp234
sI29
g1
(g2
(S'S46'
p235
I0
I1
tp236
Rp237
(I3
S'|'
p238
NNNI46
I1
I0
tp239
bS'Update Your Outdoor Furniture with Spray Paint'
p240
tp241
Rp242
sI30
g1
(g2
(S'S18'
p243
I0
I1
tp244
Rp245
(I3
S'|'
p246
NNNI18
I1
I0
tp247
bS'Renewing Your Deck'
p248
tp249
Rp250
sI31
g1
(g2
(S'S49'
p251
I0
I1
tp252
Rp253
(I3
S'|'
p254
NNNI49
I1
I0
tp255
bS'Emergency Quick Fixes for Frozen or Leaking Pipes'
p256
tp257
Rp258
sI32
g1
(g2
(S'S24'
p259
I0
I1
tp260
Rp261
(I3
S'|'
p262
NNNI24
I1
I0
tp263
bS'Build an Outdoor Kitchen'
p264
tp265
Rp266
sI33
g1
(g2
(S'S38'
p267
I0
I1
tp268
Rp269
(I3
S'|'
p270
NNNI38
I1
I0
tp271
bS'Add a Wall Switch to a Ceiling Fixture'
p272
tp273
Rp274
sI34
g1
(g2
(S'S22'
p275
I0
I1
tp276
Rp277
(I3
S'|'
p278
NNNI22
I1
I0
tp279
bS'Installing a Spa Panel'
p280
tp281
Rp282
sI35
g1
(g2
(S'S34'
p283
I0
I1
tp284
Rp285
(I3
S'|'
p286
NNNI34
I1
I0
tp287
bS'Installing a Hand-Held Shower Unit'
p288
tp289
Rp290
sI36
g1
(g2
(S'S28'
p291
I0
I1
tp292
Rp293
(I3
S'|'
p294
NNNI28
I1
I0
tp295
bS'Add Value to Your Home Decor'
p296
tp297
Rp298
sI37
g1
(g2
(S'S33'
p299
I0
I1
tp300
Rp301
(I3
S'|'
p302
NNNI33
I1
I0
tp303
bS'Installing Self-Stick Vinyl Tiles'
p304
tp305
Rp306
sI38
g1
(g2
(S'S36'
p307
I0
I1
tp308
Rp309
(I3
S'|'
p310
NNNI36
I1
I0
tp311
bS'Roll-up Garage Door Maintenance Tips'
p312
tp313
Rp314
sI39
g1
(g2
(S'S32'
p315
I0
I1
tp316
Rp317
(I3
S'|'
p318
NNNI32
I1
I0
tp319
bS'Installing Cabinet Drawer Fronts'
p320
tp321
Rp322
sI40
g1
(g2
(S'S22'
p323
I0
I1
tp324
Rp325
(I3
S'|'
p326
NNNI22
I1
I0
tp327
bS'Testing a Light Socket'
p328
tp329
Rp330
sI41
g1
(g2
(S'S21'
p331
I0
I1
tp332
Rp333
(I3
S'|'
p334
NNNI21
I1
I0
tp335
bS'Installing a Roof Fan'
p336
tp337
Rp338
sI42
g1
(g2
(S'S22'
p339
I0
I1
tp340
Rp341
(I3
S'|'
p342
NNNI22
I1
I0
tp343
bS'Minor Sidewalk Repairs'
p344
tp345
Rp346
sI43
g1
(g2
(S'S19'
p347
I0
I1
tp348
Rp349
(I3
S'|'
p350
NNNI19
I1
I0
tp351
bS'Stripping Furniture'
p352
tp353
Rp354
sI44
g1
(g2
(S'S22'
p355
I0
I1
tp356
Rp357
(I3
S'|'
p358
NNNI22
I1
I0
tp359
bS'Installing a Gable Fan'
p360
tp361
Rp362
sI45
g1
(g2
(S'S35'
p363
I0
I1
tp364
Rp365
(I3
S'|'
p366
NNNI35
I1
I0
tp367
bS'Installing a Drip Irrigation System'
p368
tp369
Rp370
sI46
g1
(g2
(S'S22'
p371
I0
I1
tp372
Rp373
(I3
S'|'
p374
NNNI22
I1
I0
tp375
bS'Painting Window Frames'
p376
tp377
Rp378
sI47
g1
(g2
(S'S32'
p379
I0
I1
tp380
Rp381
(I3
S'|'
p382
NNNI32
I1
I0
tp383
bS'Water Heater Installation Basics'
p384
tp385
Rp386
sI48
g1
(g2
(S'S12'
p387
I0
I1
tp388
Rp389
(I3
S'|'
p390
NNNI12
I1
I0
tp391
bS'Sponging Off'
p392
tp393
Rp394
sI49
g1
(g2
(S'S40'
p395
I0
I1
tp396
Rp397
(I3
S'|'
p398
NNNI40
I1
I0
tp399
bS'Assembling and Hanging a Chain-Link Gate'
p400
tp401
Rp402
sI50
g1
(g2
(S'S54'
p403
I0
I1
tp404
Rp405
(I3
S'|'
p406
NNNI54
I1
I0
tp407
bS'Craft Board for an Advent Calendar or Star Card Holder'
p408
tp409
Rp410
sI51
g1
(g2
(S'S37'
p411
I0
I1
tp412
Rp413
(I3
S'|'
p414
NNNI37
I1
I0
tp415
bS'Installing a Wall Mount Light Fixture'
p416
tp417
Rp418
sI52
g1
(g2
(S'S42'
p419
I0
I1
tp420
Rp421
(I3
S'|'
p422
NNNI42
I1
I0
tp423
bS'Stopping Squeaks in Your Floors and Stairs'
p424
tp425
Rp426
sI53
g1
(g2
(S'S27'
p427
I0
I1
tp428
Rp429
(I3
S'|'
p430
NNNI27
I1
I0
tp431
bS'Installing Coaxial TV Cable'
p432
tp433
Rp434
sI54
g1
(g2
(S'S31'
p435
I0
I1
tp436
Rp437
(I3
S'|'
p438
NNNI31
I1
I0
tp439
bS'How To Maintain Your Lawn Mower'
p440
tp441
Rp442
sI55
g1
(g2
(S'S35'
p443
I0
I1
tp444
Rp445
(I3
S'|'
p446
NNNI35
I1
I0
tp447
bS'Replacing a Water Heater Thermostat'
p448
tp449
Rp450
sI56
g1
(g2
(S'S30'
p451
I0
I1
tp452
Rp453
(I3
S'|'
p454
NNNI30
I1
I0
tp455
bS'Repairing Ceramic Disk Faucets'
p456
tp457
Rp458
sI57
g1
(g2
(S'S46'
p459
I0
I1
tp460
Rp461
(I3
S'|'
p462
NNNI46
I1
I0
tp463
bS'Extending Power to Fixtures With Metal Raceway'
p464
tp465
Rp466
sI58
g1
(g2
(S'S28'
p467
I0
I1
tp468
Rp469
(I3
S'|'
p470
NNNI28
I1
I0
tp471
bS'Adding a Telephone Extension'
p472
tp473
Rp474
sI59
g1
(g2
(S'S39'
p475
I0
I1
tp476
Rp477
(I3
S'|'
p478
NNNI39
I1
I0
tp479
bS'Freshen Up with a Laundry Room Makeover'
p480
tp481
Rp482
sI60
g1
(g2
(S'S32'
p483
I0
I1
tp484
Rp485
(I3
S'|'
p486
NNNI32
I1
I0
tp487
bS'Building Your Own Fence Sections'
p488
tp489
Rp490
sI61
g1
(g2
(S'S38'
p491
I0
I1
tp492
Rp493
(I3
S'|'
p494
NNNI38
I1
I0
tp495
bS'Installing a Gas Tankless Water Heater'
p496
tp497
Rp498
sI62
g1
(g2
(S'S29'
p499
I0
I1
tp500
Rp501
(I3
S'|'
p502
NNNI29
I1
I0
tp503
bS'Installing a Garbage Disposer'
p504
tp505
Rp506
sI63
g1
(g2
(S'S30'
p507
I0
I1
tp508
Rp509
(I3
S'|'
p510
NNNI30
I1
I0
tp511
bS'How To Install an AFCI Breaker'
p512
tp513
Rp514
sI64
g1
(g2
(S'S33'
p515
I0
I1
tp516
Rp517
(I3
S'|'
p518
NNNI33
I1
I0
tp519
bS'Patching Large Holes in Wallboard'
p520
tp521
Rp522
sI65
g1
(g2
(S'S37'
p523
I0
I1
tp524
Rp525
(I3
S'|'
p526
NNNI37
I1
I0
tp527
bS'How To Crimp a Connector onto a Cable'
p528
tp529
Rp530
sI66
g1
(g2
(S'S31'
p531
I0
I1
tp532
Rp533
(I3
S'|'
p534
NNNI31
I1
I0
tp535
bS'Installing a Bypass Shower Door'
p536
tp537
Rp538
sI67
g1
(g2
(S'S25'
p539
I0
I1
tp540
Rp541
(I3
S'|'
p542
NNNI25
I1
I0
tp543
bS'Laying Out Square Corners'
p544
tp545
Rp546
sI68
g1
(g2
(S'S24'
p547
I0
I1
tp548
Rp549
(I3
S'|'
p550
NNNI24
I1
I0
tp551
bS'Installing Gutter Liners'
p552
tp553
Rp554
sI69
g1
(g2
(S'S16'
p555
I0
I1
tp556
Rp557
(I3
S'|'
p558
NNNI16
I1
I0
tp559
bS'Replacing a Step'
p560
tp561
Rp562
sI70
g1
(g2
(S'S27'
p563
I0
I1
tp564
Rp565
(I3
S'|'
p566
NNNI27
I1
I0
tp567
bS'Unclogging Jammed Disposers'
p568
tp569
Rp570
sI71
g1
(g2
(S'S31'
p571
I0
I1
tp572
Rp573
(I3
S'|'
p574
NNNI31
I1
I0
tp575
bS'Preparing Woodwork for Painting'
p576
tp577
Rp578
sI72
g1
(g2
(S'S25'
p579
I0
I1
tp580
Rp581
(I3
S'|'
p582
NNNI25
I1
I0
tp583
bS'Running a New Supply Line'
p584
tp585
Rp586
sI73
g1
(g2
(S'S23'
p587
I0
I1
tp588
Rp589
(I3
S'|'
p590
NNNI23
I1
I0
tp591
bS'Installing a Shower Pan'
p592
tp593
Rp594
sI74
g1
(g2
(S'S20'
p595
I0
I1
tp596
Rp597
(I3
S'|'
p598
NNNI20
I1
I0
tp599
bS'Replacing Door Pulls'
p600
tp601
Rp602
sI75
g1
(g2
(S'S17'
p603
I0
I1
tp604
Rp605
(I3
S'|'
p606
NNNI17
I1
I0
tp607
bS'Preparing the Bed'
p608
tp609
Rp610
sI76
g1
(g2
(S'S23'
p611
I0
I1
tp612
Rp613
(I3
S'|'
p614
NNNI23
I1
I0
tp615
bS'How To Build a Fire Pit'
p616
tp617
Rp618
sI77
g1
(g2
(S'S38'
p619
I0
I1
tp620
Rp621
(I3
S'|'
p622
NNNI38
I1
I0
tp623
bS"Chalkboard Paint for Your Child's Room"
p624
tp625
Rp626
sI78
g1
(g2
(S'S24'
p627
I0
I1
tp628
Rp629
(I3
S'|'
p630
NNNI24
I1
I0
tp631
bS'Repairing Concrete Steps'
p632
tp633
Rp634
sI79
g1
(g2
(S'S28'
p635
I0
I1
tp636
Rp637
(I3
S'|'
p638
NNNI28
I1
I0
tp639
bS'Installing Horizontal Blinds'
p640
tp641
Rp642
sI80
g1
(g2
(S'S29'
p643
I0
I1
tp644
Rp645
(I3
S'|'
p646
NNNI29
I1
I0
tp647
bS'Repairing Compression Faucets'
p648
tp649
Rp650
sI81
g1
(g2
(S'S47'
p651
I0
I1
tp652
Rp653
(I3
S'|'
p654
NNNI47
I1
I0
tp655
bS'How To Install Ceramic and Porcelain Floor Tile'
p656
tp657
Rp658
sI82
g1
(g2
(S'S25'
p659
I0
I1
tp660
Rp661
(I3
S'|'
p662
NNNI25
I1
I0
tp663
bS'Painting Vertical Stripes'
p664
tp665
Rp666
sI83
g1
(g2
(S'S27'
p667
I0
I1
tp668
Rp669
(I3
S'|'
p670
NNNI27
I1
I0
tp671
bS'Stripping and Splicing Wire'
p672
tp673
Rp674
sI84
g1
(g2
(S'S30'
p675
I0
I1
tp676
Rp677
(I3
S'|'
p678
NNNI30
I1
I0
tp679
bS'Wall-Mounting a Flat Screen TV'
p680
tp681
Rp682
sI85
g1
(g2
(S'S31'
p683
I0
I1
tp684
Rp685
(I3
S'|'
p686
NNNI31
I1
I0
tp687
bS'22 Paint Hacks, Tips and Tricks'
p688
tp689
Rp690
sI86
g1
(g2
(S'S26'
p691
I0
I1
tp692
Rp693
(I3
S'|'
p694
NNNI26
I1
I0
tp695
bS'Installing a Dimmer Switch'
p696
tp697
Rp698
sI87
g1
(g2
(S'S26'
p699
I0
I1
tp700
Rp701
(I3
S'|'
p702
NNNI26
I1
I0
tp703
bS'Installing Plastic  Edging'
p704
tp705
Rp706
sI88
g1
(g2
(S'S23'
p707
I0
I1
tp708
Rp709
(I3
S'|'
p710
NNNI23
I1
I0
tp711
bS'Replacing a Sewage Pump'
p712
tp713
Rp714
sI89
g1
(g2
(S'S31'
p715
I0
I1
tp716
Rp717
(I3
S'|'
p718
NNNI31
I1
I0
tp719
bS'Weatherproofing Your Entry Door'
p720
tp721
Rp722
sI90
g1
(g2
(S'S25'
p723
I0
I1
tp724
Rp725
(I3
S'|'
p726
NNNI25
I1
I0
tp727
bS'Shower Faucet Replacement'
p728
tp729
Rp730
sI91
g1
(g2
(S'S20'
p731
I0
I1
tp732
Rp733
(I3
S'|'
p734
NNNI20
I1
I0
tp735
bS'Build a Flower Tower'
p736
tp737
Rp738
sI92
g1
(g2
(S'S20'
p739
I0
I1
tp740
Rp741
(I3
S'|'
p742
NNNI20
I1
I0
tp743
bS'Replacing a Doorbell'
p744
tp745
Rp746
sI93
g1
(g2
(S'S21'
p747
I0
I1
tp748
Rp749
(I3
S'|'
p750
NNNI21
I1
I0
tp751
bS'Changing a Dryer Cord'
p752
tp753
Rp754
sI94
g1
(g2
(S'S36'
p755
I0
I1
tp756
Rp757
(I3
S'|'
p758
NNNI36
I1
I0
tp759
bS'Installing a Tamper-Resistant Outlet'
p760
tp761
Rp762
sI95
g1
(g2
(S'S16'
p763
I0
I1
tp764
Rp765
(I3
S'|'
p766
NNNI16
I1
I0
tp767
bS'Staining Windows'
p768
tp769
Rp770
sI96
g1
(g2
(S'S42'
p771
I0
I1
tp772
Rp773
(I3
S'|'
p774
NNNI42
I1
I0
tp775
bS'Window Installation and Window Replacement'
p776
tp777
Rp778
sI97
g1
(g2
(S'S19'
p779
I0
I1
tp780
Rp781
(I3
S'|'
p782
NNNI19
I1
I0
tp783
bS'Refinishing a Floor'
p784
tp785
Rp786
sI98
g1
(g2
(S'S32'
p787
I0
I1
tp788
Rp789
(I3
S'|'
p790
NNNI32
I1
I0
tp791
bS'Repairing Leaky Downspout Joints'
p792
tp793
Rp794
sI99
g1
(g2
(S'S15'
p795
I0
I1
tp796
Rp797
(I3
S'|'
p798
NNNI15
I1
I0
tp799
bS'Hanging Borders'
p800
tp801
Rp802
sI100
g1
(g2
(S'S45'
p803
I0
I1
tp804
Rp805
(I3
S'|'
p806
NNNI45
I1
I0
tp807
bS'How To Install a Single Handle Kitchen Faucet'
p808
tp809
Rp810
sI101
g1
(g2
(S'S35'
p811
I0
I1
tp812
Rp813
(I3
S'|'
p814
NNNI35
I1
I0
tp815
bS'Installing an Underground Pet Fence'
p816
tp817
Rp818
sI102
g1
(g2
(S'S29'
p819
I0
I1
tp820
Rp821
(I3
S'|'
p822
NNNI29
I1
I0
tp823
bS'Holiday Landscape Centerpiece'
p824
tp825
Rp826
sI103
g1
(g2
(S'S48'
p827
I0
I1
tp828
Rp829
(I3
S'|'
p830
NNNI48
I1
I0
tp831
bS'Installing a New Kitchen Faucet and Side Sprayer'
p832
tp833
Rp834
sI104
g1
(g2
(S'S24'
p835
I0
I1
tp836
Rp837
(I3
S'|'
p838
NNNI24
I1
I0
tp839
bS'Sharpening a Mower Blade'
p840
tp841
Rp842
sI105
g1
(g2
(S'S28'
p843
I0
I1
tp844
Rp845
(I3
S'|'
p846
NNNI28
I1
I0
tp847
bS'Installing Flat Brick Edging'
p848
tp849
Rp850
sI106
g1
(g2
(S'S35'
p851
I0
I1
tp852
Rp853
(I3
S'|'
p854
NNNI35
I1
I0
tp855
bS'Installing a Window Air-Conditioner'
p856
tp857
Rp858
sI107
g1
(g2
(S'S26'
p859
I0
I1
tp860
Rp861
(I3
S'|'
p862
NNNI26
I1
I0
tp863
bS'Paint Storage and Disposal'
p864
tp865
Rp866
sI108
g1
(g2
(S'S34'
p867
I0
I1
tp868
Rp869
(I3
S'|'
p870
NNNI34
I1
I0
tp871
bS'Aligning the Bolt and Strike Plate'
p872
tp873
Rp874
sI109
g1
(g2
(S'S25'
p875
I0
I1
tp876
Rp877
(I3
S'|'
p878
NNNI25
I1
I0
tp879
bS'Laying Out Straight Edges'
p880
tp881
Rp882
sI110
g1
(g2
(S'S26'
p883
I0
I1
tp884
Rp885
(I3
S'|'
p886
NNNI26
I1
I0
tp887
bS'Installing a Cable TV Jack'
p888
tp889
Rp890
sI111
g1
(g2
(S'S34'
p891
I0
I1
tp892
Rp893
(I3
S'|'
p894
NNNI34
I1
I0
tp895
bS'How To Decorate a Wood Floor Inlay'
p896
tp897
Rp898
sI112
g1
(g2
(S'S25'
p899
I0
I1
tp900
Rp901
(I3
S'|'
p902
NNNI25
I1
I0
tp903
bS'Patching a Lawn with Seed'
p904
tp905
Rp906
sI113
g1
(g2
(S'S32'
p907
I0
I1
tp908
Rp909
(I3
S'|'
p910
NNNI32
I1
I0
tp911
bS'Repairing Cartridge Sink Faucets'
p912
tp913
Rp914
sI114
g1
(g2
(S'S39'
p915
I0
I1
tp916
Rp917
(I3
S'|'
p918
NNNI39
I1
I0
tp919
bS'Making Minor Adjustments to Your Toilet'
p920
tp921
Rp922
sI115
g1
(g2
(S'S28'
p923
I0
I1
tp924
Rp925
(I3
S'|'
p926
NNNI28
I1
I0
tp927
bS'Maintaining Your Storm Doors'
p928
tp929
Rp930
sI116
g1
(g2
(S'S27'
p931
I0
I1
tp932
Rp933
(I3
S'|'
p934
NNNI27
I1
I0
tp935
bS'Installing Remodeling Boxes'
p936
tp937
Rp938
sI117
g1
(g2
(S'S27'
p939
I0
I1
tp940
Rp941
(I3
S'|'
p942
NNNI27
I1
I0
tp943
bS'Installing Bathroom Mirrors'
p944
tp945
Rp946
sI118
g1
(g2
(S'S32'
p947
I0
I1
tp948
Rp949
(I3
S'|'
p950
NNNI32
I1
I0
tp951
bS'Weatherproofing Other Door Types'
p952
tp953
Rp954
sI119
g1
(g2
(S'S35'
p955
I0
I1
tp956
Rp957
(I3
S'|'
p958
NNNI35
I1
I0
tp959
bS'Replacing a Screen in a Metal Frame'
p960
tp961
Rp962
sI120
g1
(g2
(S'S37'
p963
I0
I1
tp964
Rp965
(I3
S'|'
p966
NNNI37
I1
I0
tp967
bS'Installing Unfinished Hardwood Stairs'
p968
tp969
Rp970
sI121
g1
(g2
(S'S29'
p971
I0
I1
tp972
Rp973
(I3
S'|'
p974
NNNI29
I1
I0
tp975
bS'Storing Summer-Blooming Bulbs'
p976
tp977
Rp978
sI122
g1
(g2
(S'S20'
p979
I0
I1
tp980
Rp981
(I3
S'|'
p982
NNNI20
I1
I0
tp983
bS'Composting Made Easy'
p984
tp985
Rp986
sI123
g1
(g2
(S'S21'
p987
I0
I1
tp988
Rp989
(I3
S'|'
p990
NNNI21
I1
I0
tp991
bS'Removing Old Cabinets'
p992
tp993
Rp994
sI124
g1
(g2
(S'S33'
p995
I0
I1
tp996
Rp997
(I3
S'|'
p998
NNNI33
I1
I0
tp999
bS'Getting Ready to Install Cabinets'
p1000
tp1001
Rp1002
sI125
g1
(g2
(S'S34'
p1003
I0
I1
tp1004
Rp1005
(I3
S'|'
p1006
NNNI34
I1
I0
tp1007
bS'How To Install a Widespread Faucet'
p1008
tp1009
Rp1010
sI126
g1
(g2
(S'S36'
p1011
I0
I1
tp1012
Rp1013
(I3
S'|'
p1014
NNNI36
I1
I0
tp1015
bS'Replacing a Screen in a Wooden Frame'
p1016
tp1017
Rp1018
sI127
g1
(g2
(S'S26'
p1019
I0
I1
tp1020
Rp1021
(I3
S'|'
p1022
NNNI26
I1
I0
tp1023
bS'Affordable Kitchen Updates'
p1024
tp1025
Rp1026
sI128
g1
(g2
(S'S16'
p1027
I0
I1
tp1028
Rp1029
(I3
S'|'
p1030
NNNI16
I1
I0
tp1031
bS'Using a Heat Gun'
p1032
tp1033
Rp1034
sI129
g1
(g2
(S'S18'
p1035
I0
I1
tp1036
Rp1037
(I3
S'|'
p1038
NNNI18
I1
I0
tp1039
bS'Cleaning Brickwork'
p1040
tp1041
Rp1042
sI130
g1
(g2
(S'S16'
p1043
I0
I1
tp1044
Rp1045
(I3
S'|'
p1046
NNNI16
I1
I0
tp1047
bS'Replacing Hinges'
p1048
tp1049
Rp1050
sI131
g1
(g2
(S'S34'
p1051
I0
I1
tp1052
Rp1053
(I3
S'|'
p1054
NNNI34
I1
I0
tp1055
bS'Adding Mulch Helps Your Plants Pop'
p1056
tp1057
Rp1058
sI132
g1
(g2
(S'S30'
p1059
I0
I1
tp1060
Rp1061
(I3
S'|'
p1062
NNNI30
I1
I0
tp1063
bS'Removing an Old Kitchen Faucet'
p1064
tp1065
Rp1066
sI133
g1
(g2
(S'S29'
p1067
I0
I1
tp1068
Rp1069
(I3
S'|'
p1070
NNNI29
I1
I0
tp1071
bS'Installing a Gas Water Heater'
p1072
tp1073
Rp1074
sI134
g1
(g2
(S'S20'
p1075
I0
I1
tp1076
Rp1077
(I3
S'|'
p1078
NNNI20
I1
I0
tp1079
bS'Laying Out the Posts'
p1080
tp1081
Rp1082
sI135
g1
(g2
(S'S35'
p1083
I0
I1
tp1084
Rp1085
(I3
S'|'
p1086
NNNI35
I1
I0
tp1087
bS'Installing an Electric Water Heater'
p1088
tp1089
Rp1090
sI136
g1
(g2
(S'S16'
p1091
I0
I1
tp1092
Rp1093
(I3
S'|'
p1094
NNNI16
I1
I0
tp1095
bS'Planting a Shrub'
p1096
tp1097
Rp1098
sI137
g1
(g2
(S'S35'
p1099
I0
I1
tp1100
Rp1101
(I3
S'|'
p1102
NNNI35
I1
I0
tp1103
bS'Installing a Plunger Valve Ballcock'
p1104
tp1105
Rp1106
sI138
g1
(g2
(S'S25'
p1107
I0
I1
tp1108
Rp1109
(I3
S'|'
p1110
NNNI25
I1
I0
tp1111
bS'Painting Exterior Windows'
p1112
tp1113
Rp1114
sI139
g1
(g2
(S'S46'
p1115
I0
I1
tp1116
Rp1117
(I3
S'|'
p1118
NNNI46
I1
I0
tp1119
bS'Installing Audio and Video Cables Behind Walls'
p1120
tp1121
Rp1122
sI140
g1
(g2
(S'S26'
p1123
I0
I1
tp1124
Rp1125
(I3
S'|'
p1126
NNNI26
I1
I0
tp1127
bS'How To Install an Intercom'
p1128
tp1129
Rp1130
sI141
g1
(g2
(S'S24'
p1131
I0
I1
tp1132
Rp1133
(I3
S'|'
p1134
NNNI24
I1
I0
tp1135
bS'Unclogging Toilet Drains'
p1136
tp1137
Rp1138
sI142
g1
(g2
(S'S28'
p1139
I0
I1
tp1140
Rp1141
(I3
S'|'
p1142
NNNI28
I1
I0
tp1143
bS'Installing a Hanging Fixture'
p1144
tp1145
Rp1146
sI143
g1
(g2
(S'S25'
p1147
I0
I1
tp1148
Rp1149
(I3
S'|'
p1150
NNNI25
I1
I0
tp1151
bS'Painting an Interior Door'
p1152
tp1153
Rp1154
sI144
g1
(g2
(S'S36'
p1155
I0
I1
tp1156
Rp1157
(I3
S'|'
p1158
NNNI36
I1
I0
tp1159
bS'Running Electrical Wire Behind Walls'
p1160
tp1161
Rp1162
sI145
g1
(g2
(S'S34'
p1163
I0
I1
tp1164
Rp1165
(I3
S'|'
p1166
NNNI34
I1
I0
tp1167
bS'How To Build a Post-and-Rail Fence'
p1168
tp1169
Rp1170
sI146
g1
(g2
(S'S47'
p1171
I0
I1
tp1172
Rp1173
(I3
S'|'
p1174
NNNI47
I1
I0
tp1175
bS'How To Install a 60 Watt Solar Power Backup Kit'
p1176
tp1177
Rp1178
sI147
g1
(g2
(S'S25'
p1179
I0
I1
tp1180
Rp1181
(I3
S'|'
p1182
NNNI25
I1
I0
tp1183
bS'Installing a Parquet Tile'
p1184
tp1185
Rp1186
sI148
g1
(g2
(S'S34'
p1187
I0
I1
tp1188
Rp1189
(I3
S'|'
p1190
NNNI34
I1
I0
tp1191
bS'Installing Precast Concrete Edging'
p1192
tp1193
Rp1194
sI149
g1
(g2
(S'S30'
p1195
I0
I1
tp1196
Rp1197
(I3
S'|'
p1198
NNNI30
I1
I0
tp1199
bS'Replacing a Single Pole Switch'
p1200
tp1201
Rp1202
sI150
g1
(g2
(S'S25'
p1203
I0
I1
tp1204
Rp1205
(I3
S'|'
p1206
NNNI25
I1
I0
tp1207
bS'Finishing Outside Corners'
p1208
tp1209
Rp1210
sI151
g1
(g2
(S'S17'
p1211
I0
I1
tp1212
Rp1213
(I3
S'|'
p1214
NNNI17
I1
I0
tp1215
bS'Interior Shutters'
p1216
tp1217
Rp1218
sI152
g1
(g2
(S'S19'
p1219
I0
I1
tp1220
Rp1221
(I3
S'|'
p1222
NNNI19
I1
I0
tp1223
bS'Secure Your Windows'
p1224
tp1225
Rp1226
sI153
g1
(g2
(S'S37'
p1227
I0
I1
tp1228
Rp1229
(I3
S'|'
p1230
NNNI37
I1
I0
tp1231
bS'How To Make a Holiday Advent Calendar'
p1232
tp1233
Rp1234
sI154
g1
(g2
(S'S39'
p1235
I0
I1
tp1236
Rp1237
(I3
S'|'
p1238
NNNI39
I1
I0
tp1239
bS'How To Create a Three Season Garden Bed'
p1240
tp1241
Rp1242
sI155
g1
(g2
(S'S24'
p1243
I0
I1
tp1244
Rp1245
(I3
S'|'
p1246
NNNI24
I1
I0
tp1247
bS'Removing a Wood Flooring'
p1248
tp1249
Rp1250
sI156
g1
(g2
(S'S42'
p1251
I0
I1
tp1252
Rp1253
(I3
S'|'
p1254
NNNI42
I1
I0
tp1255
bS'Get Ready for Spring with Lawn Maintenance'
p1256
tp1257
Rp1258
sI157
g1
(g2
(S'S34'
p1259
I0
I1
tp1260
Rp1261
(I3
S'|'
p1262
NNNI34
I1
I0
tp1263
bS'Pruning a Hybrid Tea or Shrub Rose'
p1264
tp1265
Rp1266
sI158
g1
(g2
(S'S14'
p1267
I0
I1
tp1268
Rp1269
(I3
S'|'
p1270
NNNI14
I1
I0
tp1271
bS'Staking a Tree'
p1272
tp1273
Rp1274
sI159
g1
(g2
(S'S18'
p1275
I0
I1
tp1276
Rp1277
(I3
S'|'
p1278
NNNI18
I1
I0
tp1279
bS'Caring for Annuals'
p1280
tp1281
Rp1282
sI160
g1
(g2
(S'S29'
p1283
I0
I1
tp1284
Rp1285
(I3
S'|'
p1286
NNNI29
I1
I0
tp1287
bS'Installing a Chain-Link Fence'
p1288
tp1289
Rp1290
sI161
g1
(g2
(S'S42'
p1291
I0
I1
tp1292
Rp1293
(I3
S'|'
p1294
NNNI42
I1
I0
tp1295
bS'How To Install Electrical Conduit Outdoors'
p1296
tp1297
Rp1298
sI162
g1
(g2
(S'S23'
p1299
I0
I1
tp1300
Rp1301
(I3
S'|'
p1302
NNNI23
I1
I0
tp1303
bS'Installing a Thermostat'
p1304
tp1305
Rp1306
sI163
g1
(g2
(S'S17'
p1307
I0
I1
tp1308
Rp1309
(I3
S'|'
p1310
NNNI17
I1
I0
tp1311
bS'Patching a Screen'
p1312
tp1313
Rp1314
sI164
g1
(g2
(S'S23'
p1315
I0
I1
tp1316
Rp1317
(I3
S'|'
p1318
NNNI23
I1
I0
tp1319
bS'Resurfacing Valve Seats'
p1320
tp1321
Rp1322
sI165
g1
(g2
(S'S38'
p1323
I0
I1
tp1324
Rp1325
(I3
S'|'
p1326
NNNI38
I1
I0
tp1327
bS'How To Make a Terra Cotta Pot Fountain'
p1328
tp1329
Rp1330
sI166
g1
(g2
(S'S42'
p1331
I0
I1
tp1332
Rp1333
(I3
S'|'
p1334
NNNI42
I1
I0
tp1335
bS'How To Install a Two Handle Kitchen Faucet'
p1336
tp1337
Rp1338
sI167
g1
(g2
(S'S30'
p1339
I0
I1
tp1340
Rp1341
(I3
S'|'
p1342
NNNI30
I1
I0
tp1343
bS'Tools for Laying Tile Flooring'
p1344
tp1345
Rp1346
sI168
g1
(g2
(S'S26'
p1347
I0
I1
tp1348
Rp1349
(I3
S'|'
p1350
NNNI26
I1
I0
tp1351
bS'Affordable Cabinet Updates'
p1352
tp1353
Rp1354
sI169
g1
(g2
(S'S16'
p1355
I0
I1
tp1356
Rp1357
(I3
S'|'
p1358
NNNI16
I1
I0
tp1359
bS'How To Fertilize'
p1360
tp1361
Rp1362
sI170
g1
(g2
(S'S29'
p1363
I0
I1
tp1364
Rp1365
(I3
S'|'
p1366
NNNI29
I1
I0
tp1367
bS'Starting a New Lawn from Seed'
p1368
tp1369
Rp1370
sI171
g1
(g2
(S'S42'
p1371
I0
I1
tp1372
Rp1373
(I3
S'|'
p1374
NNNI42
I1
I0
tp1375
bS'How to Make an Herb Tower Container Garden'
p1376
tp1377
Rp1378
sI172
g1
(g2
(S'S29'
p1379
I0
I1
tp1380
Rp1381
(I3
S'|'
p1382
NNNI29
I1
I0
tp1383
bS'How To Install Crown Moulding'
p1384
tp1385
Rp1386
sI173
g1
(g2
(S'S31'
p1387
I0
I1
tp1388
Rp1389
(I3
S'|'
p1390
NNNI31
I1
I0
tp1391
bS'Installing a Garage Door Opener'
p1392
tp1393
Rp1394
sI174
g1
(g2
(S'S23'
p1395
I0
I1
tp1396
Rp1397
(I3
S'|'
p1398
NNNI23
I1
I0
tp1399
bS'Freeing a Sticking Door'
p1400
tp1401
Rp1402
sI175
g1
(g2
(S'S34'
p1403
I0
I1
tp1404
Rp1405
(I3
S'|'
p1406
NNNI34
I1
I0
tp1407
bS'Weatherproofing Other Window Types'
p1408
tp1409
Rp1410
sI176
g1
(g2
(S'S14'
p1411
I0
I1
tp1412
Rp1413
(I3
S'|'
p1414
NNNI14
I1
I0
tp1415
bS'Trapeze Lights'
p1416
tp1417
Rp1418
sI177
g1
(g2
(S'S27'
p1419
I0
I1
tp1420
Rp1421
(I3
S'|'
p1422
NNNI27
I1
I0
tp1423
bS'How To Paint Interior Walls'
p1424
tp1425
Rp1426
sI178
g1
(g2
(S'S23'
p1427
I0
I1
tp1428
Rp1429
(I3
S'|'
p1430
NNNI23
I1
I0
tp1431
bS'Christmas Ornament Tree'
p1432
tp1433
Rp1434
sI179
g1
(g2
(S'S19'
p1435
I0
I1
tp1436
Rp1437
(I3
S'|'
p1438
NNNI19
I1
I0
tp1439
bS'Setting Floor Tiles'
p1440
tp1441
Rp1442
sI180
g1
(g2
(S'S51'
p1443
I0
I1
tp1444
Rp1445
(I3
S'|'
p1446
NNNI51
I1
I0
tp1447
bS'Installing Recessed Lighting in an Existing Ceiling'
p1448
tp1449
Rp1450
sI181
g1
(g2
(S'S46'
p1451
I0
I1
tp1452
Rp1453
(I3
S'|'
p1454
NNNI46
I1
I0
tp1455
bS'Adjusting a Toilet Tank Handle and Water Level'
p1456
tp1457
Rp1458
sI182
g1
(g2
(S'S27'
p1459
I0
I1
tp1460
Rp1461
(I3
S'|'
p1462
NNNI27
I1
I0
tp1463
bS'Replacing a Worn Valve Seat'
p1464
tp1465
Rp1466
sI183
g1
(g2
(S'S31'
p1467
I0
I1
tp1468
Rp1469
(I3
S'|'
p1470
NNNI31
I1
I0
tp1471
bS'Troubleshooting Your Thermostat'
p1472
tp1473
Rp1474
sI184
g1
(g2
(S'S44'
p1475
I0
I1
tp1476
Rp1477
(I3
S'|'
p1478
NNNI44
I1
I0
tp1479
bS'Preparing the Arm Assemblies and Seat Slates'
p1480
tp1481
Rp1482
sI185
g1
(g2
(S'S30'
p1483
I0
I1
tp1484
Rp1485
(I3
S'|'
p1486
NNNI30
I1
I0
tp1487
bS'Installing a Center-Set Faucet'
p1488
tp1489
Rp1490
sI186
g1
(g2
(S'S23'
p1491
I0
I1
tp1492
Rp1493
(I3
S'|'
p1494
NNNI23
I1
I0
tp1495
bS'Installing a Storm Door'
p1496
tp1497
Rp1498
sI187
g1
(g2
(S'S36'
p1499
I0
I1
tp1500
Rp1501
(I3
S'|'
p1502
NNNI36
I1
I0
tp1503
bS'Countertop Care and Maintenance Tips'
p1504
tp1505
Rp1506
sI188
g1
(g2
(S'S35'
p1507
I0
I1
tp1508
Rp1509
(I3
S'|'
p1510
NNNI35
I1
I0
tp1511
bS'How To Choose a Bathroom Vanity Top'
p1512
tp1513
Rp1514
sI189
g1
(g2
(S'S21'
p1515
I0
I1
tp1516
Rp1517
(I3
S'|'
p1518
NNNI21
I1
I0
tp1519
bS'Overseeding Your Lawn'
p1520
tp1521
Rp1522
sI190
g1
(g2
(S'S39'
p1523
I0
I1
tp1524
Rp1525
(I3
S'|'
p1526
NNNI39
I1
I0
tp1527
bS'Replacing a Screen in an Aluminum Frame'
p1528
tp1529
Rp1530
sI191
g1
(g2
(S'S18'
p1531
I0
I1
tp1532
Rp1533
(I3
S'|'
p1534
NNNI18
I1
I0
tp1535
bS'Framing a New Wall'
p1536
tp1537
Rp1538
sI192
g1
(g2
(S'S35'
p1539
I0
I1
tp1540
Rp1541
(I3
S'|'
p1542
NNNI35
I1
I0
tp1543
bS'How To Make a Christmas Centerpiece'
p1544
tp1545
Rp1546
sI193
g1
(g2
(S'S29'
p1547
I0
I1
tp1548
Rp1549
(I3
S'|'
p1550
NNNI29
I1
I0
tp1551
bS'Removing an Old Tub or Shower'
p1552
tp1553
Rp1554
sI194
g1
(g2
(S'S25'
p1555
I0
I1
tp1556
Rp1557
(I3
S'|'
p1558
NNNI25
I1
I0
tp1559
bS'Installing a Drop-in Sink'
p1560
tp1561
Rp1562
sI195
g1
(g2
(S'S25'
p1563
I0
I1
tp1564
Rp1565
(I3
S'|'
p1566
NNNI25
I1
I0
tp1567
bS'Installing Shutoff Valves'
p1568
tp1569
Rp1570
sI196
g1
(g2
(S'S24'
p1571
I0
I1
tp1572
Rp1573
(I3
S'|'
p1574
NNNI24
I1
I0
tp1575
bS'Replacing a Deck Railing'
p1576
tp1577
Rp1578
sI197
g1
(g2
(S'S27'
p1579
I0
I1
tp1580
Rp1581
(I3
S'|'
p1582
NNNI27
I1
I0
tp1583
bS'How To Weatherize Your Home'
p1584
tp1585
Rp1586
sI198
g1
(g2
(S'S33'
p1587
I0
I1
tp1588
Rp1589
(I3
S'|'
p1590
NNNI33
I1
I0
tp1591
bS'Picnic Table with Built-in Cooler'
p1592
tp1593
Rp1594
sI199
g1
(g2
(S'S15'
p1595
I0
I1
tp1596
Rp1597
(I3
S'|'
p1598
NNNI15
I1
I0
tp1599
bS'Pruning a Hedge'
p1600
tp1601
Rp1602
sI200
g1
(g2
(S'S29'
p1603
I0
I1
tp1604
Rp1605
(I3
S'|'
p1606
NNNI29
I1
I0
tp1607
bS'Installing Landscape Lighting'
p1608
tp1609
Rp1610
sI201
g1
(g2
(S'S37'
p1611
I0
I1
tp1612
Rp1613
(I3
S'|'
p1614
NNNI37
I1
I0
tp1615
bS'How To Install a Home Security System'
p1616
tp1617
Rp1618
sI202
g1
(g2
(S'S36'
p1619
I0
I1
tp1620
Rp1621
(I3
S'|'
p1622
NNNI36
I1
I0
tp1623
bS'Connecting Faucets with Supply Tubes'
p1624
tp1625
Rp1626
sI203
g1
(g2
(S'S32'
p1627
I0
I1
tp1628
Rp1629
(I3
S'|'
p1630
NNNI32
I1
I0
tp1631
bS'Installing an Evaporative Cooler'
p1632
tp1633
Rp1634
sI204
g1
(g2
(S'S27'
p1635
I0
I1
tp1636
Rp1637
(I3
S'|'
p1638
NNNI27
I1
I0
tp1639
bS'Hanging Ornament Chandelier'
p1640
tp1641
Rp1642
sI205
g1
(g2
(S'S25'
p1643
I0
I1
tp1644
Rp1645
(I3
S'|'
p1646
NNNI25
I1
I0
tp1647
bS'Container Planting Basics'
p1648
tp1649
Rp1650
sI206
g1
(g2
(S'S33'
p1651
I0
I1
tp1652
Rp1653
(I3
S'|'
p1654
NNNI33
I1
I0
tp1655
bS'Lawn Watering Tips and Techniques'
p1656
tp1657
Rp1658
sI207
g1
(g2
(S'S39'
p1659
I0
I1
tp1660
Rp1661
(I3
S'|'
p1662
NNNI39
I1
I0
tp1663
bS'How To Make a Holiday Wreath Chandelier'
p1664
tp1665
Rp1666
sI208
g1
(g2
(S'S20'
p1667
I0
I1
tp1668
Rp1669
(I3
S'|'
p1670
NNNI20
I1
I0
tp1671
bS'Assembling the Swing'
p1672
tp1673
Rp1674
sI209
g1
(g2
(S'S21'
p1675
I0
I1
tp1676
Rp1677
(I3
S'|'
p1678
NNNI21
I1
I0
tp1679
bS'Installing a Bath Fan'
p1680
tp1681
Rp1682
sI210
g1
(g2
(S'S16'
p1683
I0
I1
tp1684
Rp1685
(I3
S'|'
p1686
NNNI16
I1
I0
tp1687
bS'Planting Flowers'
p1688
tp1689
Rp1690
sI211
g1
(g2
(S'S23'
p1691
I0
I1
tp1692
Rp1693
(I3
S'|'
p1694
NNNI23
I1
I0
tp1695
bS'Setting Posts on a Pier'
p1696
tp1697
Rp1698
sI212
g1
(g2
(S'S20'
p1699
I0
I1
tp1700
Rp1701
(I3
S'|'
p1702
NNNI20
I1
I0
tp1703
bS'Priming Is Essential'
p1704
tp1705
Rp1706
sI213
g1
(g2
(S'S25'
p1707
I0
I1
tp1708
Rp1709
(I3
S'|'
p1710
NNNI25
I1
I0
tp1711
bS'Glass Window Installation'
p1712
tp1713
Rp1714
sI214
g1
(g2
(S'S37'
p1715
I0
I1
tp1716
Rp1717
(I3
S'|'
p1718
NNNI37
I1
I0
tp1719
bS'Affordable Front Entrance Decor Ideas'
p1720
tp1721
Rp1722
sI215
g1
(g2
(S'S22'
p1723
I0
I1
tp1724
Rp1725
(I3
S'|'
p1726
NNNI22
I1
I0
tp1727
bS'Laying Out Floor Tiles'
p1728
tp1729
Rp1730
sI216
g1
(g2
(S'S32'
p1731
I0
I1
tp1732
Rp1733
(I3
S'|'
p1734
NNNI32
I1
I0
tp1735
bS'How To Install a Tile Backsplash'
p1736
tp1737
Rp1738
sI217
g1
(g2
(S'S30'
p1739
I0
I1
tp1740
Rp1741
(I3
S'|'
p1742
NNNI30
I1
I0
tp1743
bS'Affordable Kitchen Decor Ideas'
p1744
tp1745
Rp1746
sI218
g1
(g2
(S'S15'
p1747
I0
I1
tp1748
Rp1749
(I3
S'|'
p1750
NNNI15
I1
I0
tp1751
bS'Removing Mildew'
p1752
tp1753
Rp1754
sI219
g1
(g2
(S'S34'
p1755
I0
I1
tp1756
Rp1757
(I3
S'|'
p1758
NNNI34
I1
I0
tp1759
bS'Installing Landscape Timber Edging'
p1760
tp1761
Rp1762
sI220
g1
(g2
(S'S43'
p1763
I0
I1
tp1764
Rp1765
(I3
S'|'
p1766
NNNI43
I1
I0
tp1767
bS'Replacing a Single Pole Switch with a Timer'
p1768
tp1769
Rp1770
sI221
g1
(g2
(S'S31'
p1771
I0
I1
tp1772
Rp1773
(I3
S'|'
p1774
NNNI31
I1
I0
tp1775
bS'Maintaining Garage Door Openers'
p1776
tp1777
Rp1778
sI222
g1
(g2
(S'S31'
p1779
I0
I1
tp1780
Rp1781
(I3
S'|'
p1782
NNNI31
I1
I0
tp1783
bS'How To Make an Illuminated Star'
p1784
tp1785
Rp1786
sI223
g1
(g2
(S'S38'
p1787
I0
I1
tp1788
Rp1789
(I3
S'|'
p1790
NNNI38
I1
I0
tp1791
bS'Unique Ways to Decorate with Ornaments'
p1792
tp1793
Rp1794
sI224
g1
(g2
(S'S27'
p1795
I0
I1
tp1796
Rp1797
(I3
S'|'
p1798
NNNI27
I1
I0
tp1799
bS'Painting Soffits and Fascia'
p1800
tp1801
Rp1802
sI225
g1
(g2
(S'S23'
p1803
I0
I1
tp1804
Rp1805
(I3
S'|'
p1806
NNNI23
I1
I0
tp1807
bS'Installing a Dishwasher'
p1808
tp1809
Rp1810
sI226
g1
(g2
(S'S20'
p1811
I0
I1
tp1812
Rp1813
(I3
S'|'
p1814
NNNI20
I1
I0
tp1815
bS'Installing Door Trim'
p1816
tp1817
Rp1818
sI227
g1
(g2
(S'S22'
p1819
I0
I1
tp1820
Rp1821
(I3
S'|'
p1822
NNNI22
I1
I0
tp1823
bS'Laying Out Garden Beds'
p1824
tp1825
Rp1826
sI228
g1
(g2
(S'S36'
p1827
I0
I1
tp1828
Rp1829
(I3
S'|'
p1830
NNNI36
I1
I0
tp1831
bS'Installing Split-Jamb Interior Doors'
p1832
tp1833
Rp1834
sI229
g1
(g2
(S'S27'
p1835
I0
I1
tp1836
Rp1837
(I3
S'|'
p1838
NNNI27
I1
I0
tp1839
bS'Repairing Ball-Type Faucets'
p1840
tp1841
Rp1842
sI230
g1
(g2
(S'S24'
p1843
I0
I1
tp1844
Rp1845
(I3
S'|'
p1846
NNNI24
I1
I0
tp1847
bS'Installing a New Circuit'
p1848
tp1849
Rp1850
sI231
g1
(g2
(S'S23'
p1851
I0
I1
tp1852
Rp1853
(I3
S'|'
p1854
NNNI23
I1
I0
tp1855
bS'Installing a Range Hood'
p1856
tp1857
Rp1858
sI232
g1
(g2
(S'S32'
p1859
I0
I1
tp1860
Rp1861
(I3
S'|'
p1862
NNNI32
I1
I0
tp1863
bS'Installing a Laminate Countertop'
p1864
tp1865
Rp1866
sI233
g1
(g2
(S'S28'
p1867
I0
I1
tp1868
Rp1869
(I3
S'|'
p1870
NNNI28
I1
I0
tp1871
bS'Building a Wooden Raised Bed'
p1872
tp1873
Rp1874
sI234
g1
(g2
(S'S26'
p1875
I0
I1
tp1876
Rp1877
(I3
S'|'
p1878
NNNI26
I1
I0
tp1879
bS'Building a Multilevel Deck'
p1880
tp1881
Rp1882
sI235
g1
(g2
(S'S19'
p1883
I0
I1
tp1884
Rp1885
(I3
S'|'
p1886
NNNI19
I1
I0
tp1887
bS'Cutting New Borders'
p1888
tp1889
Rp1890
sI236
g1
(g2
(S'S25'
p1891
I0
I1
tp1892
Rp1893
(I3
S'|'
p1894
NNNI25
I1
I0
tp1895
bS'Installing Track Lighting'
p1896
tp1897
Rp1898
sI237
g1
(g2
(S'S19'
p1899
I0
I1
tp1900
Rp1901
(I3
S'|'
p1902
NNNI19
I1
I0
tp1903
bS'Installing a Toilet'
p1904
tp1905
Rp1906
sI238
g1
(g2
(S'S31'
p1907
I0
I1
tp1908
Rp1909
(I3
S'|'
p1910
NNNI31
I1
I0
tp1911
bS'Installing Low-Voltage Lighting'
p1912
tp1913
Rp1914
sI239
g1
(g2
(S'S64'
p1915
I0
I1
tp1916
Rp1917
(I3
S'|'
p1918
NNNI64
I1
I0
tp1919
bS'Installing New Bathtub and Shower Wall Panels \xe2\x80\x93 Direct-to-Stud'
p1920
tp1921
Rp1922
s.