(lp0
(lp1
I25
aI25
aI26
aI13
aI25
aI25
aI25
aI13
aI3
aI14
aI3
aI3
aI3
aI14
aI27
aI3
aI14
aI14
aI14
aI14
aI14
aI14
aI14
aI14
aI4
aI14
aI25
aI3
aI21
aI3
aI3
aI3
aI25
aI25
aI25
aI25
aI3
aI25
aI3
aI4
aI4
aI3
aI1
aI10
aI25
aI25
aI25
aI25
aI25
aI3
aI4
aI14
aI14
aI1
aI25
aI21
aI25
aa(lp2
I4
aI3
aI4
aI4
aI4
aI26
aI4
aI3
aI6
aI26
aI26
aI26
aI3
aI3
aI4
aI26
aI26
aI1
aI4
aI4
aI5
aI4
aI4
aI26
aI3
aI4
aI4
aI4
aI26
aI26
aI25
aI6
aI6
aI26
aI4
aI26
aI6
aI26
aI6
aI26
aI6
aI6
aI6
aI6
aa(lp3
I8
aI26
aI3
aI4
aI4
aI8
aI0
aI4
aI14
aI3
aI4
aI4
aI0
aI0
aI8
aI0
aI4
aI4
aI3
aI8
aI3
aI14
aI3
aI3
aI4
aI4
aI0
aI27
aI3
aI4
aa(lp4
I26
aI3
aI2
aI19
aI14
aI3
aI19
aI3
aI19
aI6
aI7
aI2
aI2
aI3
aI3
aI2
aI3
aI3
aI7
aI3
aI19
aI19
aI9
aI3
aI1
aI19
aI3
aI26
aI2
aI3
aI3
aI3
aI3
aI4
aI19
aI2
aI19
aI9
aI9
aI4
aI9
aI3
aI19
aI19
aI19
aI9
aI4
aI2
aI4
aI3
aI4
aI3
aI9
aI9
aI9
aI9
aI3
aI7
aI9
aI3
aI26
aI2
aI3
aI6
aI4
aI9
aI3
aI2
aI2
aI3
aI3
aI3
aI9
aI3
aI4
aI6
aI2
aI3
aI3
aI2
aI2
aI4
aI4
aI9
aI4
aI9
aI3
aI4
aI26
aI3
aI3
aI1
aI2
aI19
aI9
aI4
aI9
aI3
aI26
aI19
aI2
aI6
aI2
aI3
aa(lp5
I0
aI27
aI0
aI7
aI0
aI3
aI3
aI0
aI0
aI2
aI2
aI3
aI3
aI0
aI0
aI0
aI4
aI3
aI0
aI0
aI6
aI4
aI4
aI0
aI3
aI4
aI6
aI16
aI0
aI3
aI4
aI0
aI2
aI2
aI3
aI0
aI0
aI3
aI3
aI4
aI3
aI3
aI0
aI3
aI4
aI4
aI0
aI3
aI4
aI4
aI0
aI6
aI3
aI3
aI6
aI3
aa(lp6
I17
aI20
aI20
aI3
aI3
aI5
aI0
aI4
aI6
aI3
aI4
aI3
aI18
aI18
aI3
aI2
aI6
aI0
aI0
aI0
aI6
aI6
aI4
aI0
aI18
aI19
aI25
aI25
aI6
aI0
aI4
aI6
aI15
aI18
aI0
aI18
aI4
aI3
aI21
aI6
aI6
aI6
aI18
aI19
aI18
aI0
aI5
aI15
aI18
aI6
aI5
aI3
aI4
aI18
aa(lp7
I23
aI4
aI25
aI4
aI4
aI0
aI4
aI0
aI3
aI3
aI3
aI4
aI5
aI4
aI3
aI3
aI3
aI4
aI3
aI3
aI3
aI23
aI4
aI4
aI3
aI4
aI15
aa(lp8
I5
aI22
aI5
aI26
aI22
aI6
aI22
aI20
aI20
aI22
aI15
aI15
aI5
aI5
aI20
aI5
aI22
aI22
aI6
aI6
aI22
aI5
aI2
aI22
aI22
aI22
aI20
aI6
aI6
aI6
aI22
aI6
aI16
aI20
aI6
aI22
aI20
aI27
aI22
aI6
aI5
aI5
aI4
aI20
aa(lp9
I5
aI5
aI4
aI25
aI3
aI11
aI3
aI24
aI0
aI26
aI0
aI5
aI3
aI3
aI20
aI2
aI11
aI13
aI3
aI24
aI3
aI4
aI25
aI4
aI6
aI8
aI6
aI3
aI3
aI13
aI24
aI25
aI4
aI25
aI25
aI25
aI13
aI13
aI3
aI11
aI4
aI4
aI24
aI3
aI3
aI3
aI3
aI4
aI6
aI6
aI3
aI6
aI11
aI3
aI2
aI3
aI24
aI25
aI25
aI3
aI3
aI4
aI25
aI13
aI24
aI11
aI4
aI13
aI5
aI24
aI26
aI13
aI3
aI13
aI26
aI6
aI6
aI6
aI3
aI3
aI24
aI13
aI3
aI4
aI4
aa(lp10
I2
aI2
aI8
aI2
aI6
aI6
aI8
aI6
aI4
aI10
aI24
aI22
aI22
aI6
aI15
aI6
aI2
aI3
aI6
aI6
aI19
aI6
aI6
aI22
aI3
aI3
aI6
aI1
aI6
aI3
aI3
aI10
aI22
aI19
aI1
aI7
aI3
aI19
aI7
aI3
aI1
aI2
aI6
aI7
aI7
aI22
aI3
aI6
aI2
aI6
aI4
aI22
aI22
aI22
aI22
aI6
aI19
aI2
aI19
aI3
aI3
aI10
aI19
aI19
aI19
aI19
aI6
aI19
aI24
aI6
aI8
aI3
aI6
aI3
aI3
aI24
aI3
aI6
aI16
aI4
aI24
aI4
aI6
aI24
aI22
aI7
aI24
aI15
aI22
aI7
aI3
aI7
aI7
aI10
aI7
aI7
aa(lp11
I6
aI8
aI6
aI26
aI6
aI6
aI25
aI25
aI6
aI8
aI8
aI6
aI6
aI8
aI8
aI6
aI6
aI18
aI8
aI8
aa(lp12
I6
aI22
aI6
aI6
aI6
aI22
aI3
aI6
aI20
aI4
aI20
aI22
aI16
aI1
aI1
aI1
aI20
aI6
aI20
aI6
aI6
aI22
aI6
aI22
aI4
aI4
aI6
aI16
aI3
aI6
aI6
aI22
aI4
aI3
aI3
aI3
aI3
aI16
aI4
aI20
aI20
aI6
aI3
aI4
aI6
aI22
aI22
aI3
aI3
aI6
aI13
aI16
aI16
aI4
aI4
aI16
aI20
aI16
aI22
aI16
aI4
aI22
aa(lp13
I7
aI3
aI7
aI19
aI7
aI6
aI7
aI7
aI3
aI6
aI25
aI18
aI6
aI5
aI19
aI7
aI7
aI2
aI6
aI6
aI6
aI6
aI6
aI3
aI2
aI25
aI5
aI5
aI10
aI6
aI25
aI25
aI18
aI21
aI7
aI6
aI3
aI3
aI7
aI19
aI19
aI19
aI7
aI4
aI5
aI5
aI10
aI25
aI6
aI18
aI10
aI18
aI19
aI3
aI18
aI3
aI5
aI3
aI6
aI6
aI6
aI7
aI7
aI6
aI7
aI6
aI5
aI6
aI5
aI18
aI5
aI3
aI3
aI2
aI5
aI19
aI4
aI4
aI21
aI3
aI3
aI6
aa(lp14
I4
aI3
aI3
aI19
aI11
aI19
aI4
aI16
aI16
aI4
aI4
aI19
aI4
aI4
aI19
aI19
aI19
aI19
aI19
aI4
aI3
aI3
aI16
aI16
aI16
aI16
aI19
aI6
aI4
aI1
aI3
aI1
aI16
aI4
aI1
aI16
aI19
aI16
aI19
aI19
aI19
aI19
aI16
aI21
aI16
aI16
aI3
aI16
aI11
aI4
aI11
aa(lp15
I26
aI3
aI3
aI3
aI4
aI26
aI26
aI11
aI3
aI26
aI20
aI22
aI26
aI3
aI3
aI3
aI26
aI4
aI22
aI3
aI3
aI4
aI3
aI26
aI26
aI6
aI3
aI4
aI26
aI16
aI11
aI3
aI11
aI11
aI3
aI4
aI26
aI4
aI16
aI3
aI3
aI22
aI22
aI4
aa(lp16
I3
aI6
aI6
aI6
aI0
aI20
aI0
aI4
aI3
aI4
aI6
aI3
aI6
aI3
aI3
aI4
aI0
aI20
aI0
aI3
aI5
aI4
aI3
aI3
aI3
aI3
aI0
aI3
aI3
aI3
aI3
aI3
aa(lp17
I3
aI3
aI4
aI4
aI4
aI8
aI15
aI3
aI3
aI3
aI8
aI4
aI4
aI4
aI4
aI3
aI3
aI3
aI4
aI15
aI8
aI3
aI3
aI3
aI8
aI4
aI3
aI4
aI3
aI3
aI15
aI3
aI3
aI4
aI3
aa(lp18
I2
aI7
aI10
aI3
aI3
aI4
aI6
aI3
aI10
aI7
aI4
aI2
aI4
aI0
aI0
aI0
aI0
aI1
aI3
aI22
aI0
aI4
aI19
aI15
aI15
aI15
aI10
aI15
aI19
aI10
aI10
aI3
aI7
aI10
aI3
aI7
aI10
aI10
aI3
aI10
aI15
aI3
aI0
aI19
aI0
aI0
aI10
aI10
aI7
aI3
aI6
aI3
aa(lp19
I19
aI4
aI4
aI19
aI4
aI19
aI4
aI19
aI4
aI4
aI4
aI4
aI2
aI4
aI19
aI3
aI3
aI4
aI19
aI6
aI4
aI19
aI19
aI19
aI1
aI19
aI3
aI19
aI19
aI19
aI19
aI3
aI19
aI4
aI19
aI4
aI4
aI16
aI6
aI4
aI3
aI4
aI2
aI3
aI4
aI4
aI4
aI4
aI19
aI19
aI19
aI7
aI4
aI17
aI4
aI4
aI18
aI19
aI3
aI19
aI3
aI3
aI4
aI4
aI3
aI3
aI3
aI4
aI4
aa(lp20
I3
aI3
aI3
aI14
aI3
aI3
aI14
aI14
aI1
aI3
aI0
aI3
aI0
aI10
aI3
aI0
aI0
aI0
aI9
aI3
aI19
aI4
aI4
aI27
aI27
aI27
aI7
aI0
aI0
aI19
aI19
aI0
aI3
aI2
aI0
aI19
aI1
aI3
aI23
aI4
aI27
aI3
aI14
aI4
aI27
aI7
aI14
aI0
aI14
aI27
aI3
aI4
aI2
aI0
aI3
aI7
aI0
aI7
aI7
aI14
aI14
aI9
aI9
aI3
aI19
aI2
aI3
aI4
aI27
aI1
aI3
aI19
aI0
aI3
aI2
aI4
aI4
aI27
aI27
aI0
aI4
aI3
aI4
aa(lp21
I18
aI12
aI18
aI18
aI18
aI3
aI5
aI18
aI16
aI18
aI18
aI16
aI16
aI16
aI16
aI12
aI2
aI21
aI6
aI16
aI3
aI1
aI18
aI21
aI4
aI18
aI18
aI16
aI2
aI16
aI16
aI12
aI12
aI3
aI12
aI18
aI3
aI3
aI3
aI21
aI4
aI3
aI6
aI18
aI18
aI3
aI18
aI3
aI2
aI18
aI16
aI3
aI2
aI18
aI12
aI12
aI18
aI4
aI2
aI1
aI3
aI3
aI21
aI25
aI18
aI6
aI3
aI18
aI6
aI6
aI6
aI3
aI3
aI3
aI3
aI2
aI3
aI18
aa(lp22
I3
aI4
aI6
aI8
aI18
aI0
aI0
aI0
aI0
aI18
aI2
aI18
aI0
aI0
aI2
aI8
aI3
aI0
aI0
aI8
aI0
aI18
aI3
aI0
aI18
aI18
aI3
aI18
aI18
aI18
aI0
aI4
aI6
aI8
aI26
aI8
aI6
aI18
aI8
aI8
aI0
aI8
aI0
aI4
aI8
aI3
aI4
aI4
aI4
aI3
aI3
aI0
aI3
aI18
aI6
aI4
aI0
aI0
aI18
aI0
aI0
aI18
aI8
aI18
aI8
aI18
aI0
aI26
aI20
aI4
aI18
aI3
aI2
aI4
aI3
aI8
aI4
aI26
aI4
aI4
aI8
aI4
aI4
aI2
aI4
aI4
aI2
aI6
aI6
aI18
aI18
aI18
aI3
aI3
aI8
aI0
aI8
aI8
aI4
aI3
aI0
aI8
aI4
aI4
aI6
aI6
aI4
aI18
aI6
aI18
aI8
aI3
aI3
aI0
aI3
aI3
aI8
aI0
aI0
aI0
aI0
aI2
aI0
aa(lp23
I3
aI6
aI3
aI25
aI6
aI1
aI3
aI10
aI1
aI10
aI13
aI6
aI6
aI6
aI25
aI1
aI6
aI21
aI2
aI1
aI1
aI1
aI1
aI25
aI1
aI1
aI25
aI6
aI3
aI1
aI3
aI25
aI16
aI10
aI1
aI1
aI25
aI6
aI25
aI3
aI3
aI3
aI3
aI6
aI6
aI6
aI13
aI6
aI3
aI25
aI25
aI6
aI25
aI6
aI1
aI1
aI1
aI1
aI1
aI6
aI1
aI25
aI25
aI1
aI1
aI1
aI1
aI3
aI3
aI3
aI3
aI4
aa(lp24
I6
aI7
aI3
aI4
aI3
aI3
aI6
aI3
aI3
aI3
aI5
aI3
aI3
aI3
aI3
aI3
aI2
aI3
aI3
aI3
aI3
aI3
aI3
aI4
aI3
aI3
aI23
aI4
aI3
aI3
aI3
aI3
aI3
aI3
aI3
aI3
aI3
aI3
aI4
aI4
aI7
aI3
aI3
aI7
aI3
aI3
aI3
aI4
aI4
aI6
aI5
aI3
aI3
aa(lp25
I1
aI1
aI27
aI6
aI27
aI1
aI17
aI6
aI3
aI14
aI12
aI17
aI27
aI17
aI6
aI6
aI1
aI3
aI27
aI17
aI6
aI27
aI6
aI6
aI8
aI27
aI17
aI17
aI3
aI17
aI6
aI6
aI6
aI6
aI6
aI1
aI1
aI1
aI6
aI4
aI8
aI8
aI6
aI3
aI12
aI6
aI17
aI3
aI17
aI17
aI17
aI3
aI17
aI17
aI27
aI8
aI6
aI6
aI27
aI6
aI6
aI6
aI6
aI6
aI17
aI26
aI3
aI6
aI6
aI17
aI27
aI3
aa(lp26
I11
aI6
aI6
aI11
aI1
aI1
aI11
aI3
aI3
aI1
aI4
aI15
aI4
aI1
aI1
aI11
aI3
aI1
aI2
aI18
aI18
aI3
aI11
aI4
aI1
aI11
aI3
aI11
aI11
aI6
aI18
aI4
aI11
aI11
aI4
aI1
aI1
aI11
aI3
aI3
aI4
aI20
aI11
aa(lp27
I1
aI13
aI13
aI4
aI3
aI12
aI3
aI1
aI13
aI3
aI13
aI3
aI3
aI3
aI3
aI3
aI12
aI13
aI13
aI12
aI1
aI13
aI3
aI3
aI13
aI3
aI3
aI9
aI1
aI1
aI13
aI3
aI3
aI3
aI3
aI1
aI1
aI13
aI13
aI1
aI13
aI4
aI12
aI12
aI2
aI3
aI3
aI3
aI3
aI9
aI3
aI13
aI3
aI3
aI3
aI13
aI3
aI3
aI1
aI1
aI1
aI4
aI6
aI3
aI6
aI13
aI9
aI3
aI13
aI1
aI13
aI9
aI9
aI1
aI9
aI3
aI13
aI1
aI3
aI3
aI13
aI4
aI1
aI3
aI3
aI23
aI1
aI3
aI13
aI3
aI4
aI1
aI1
aI12
aI13
aI12
aI1
aI3
aI13
aI6
aI4
aI9
aI13
aI3
aI1
aI13
aI1
aa(lp28
I5
aI5
aI13
aI13
aI5
aI13
aI5
aI6
aI21
aI6
aI6
aI9
aI9
aI6
aI6
aI21
aI0
aI9
aI9
aI9
aI9
aI9
aI5
aI5
aI9
aI21
aI0
aI13
aI6
aI9
aI21
aI9
aI3
aI5
aI5
aI5
aI6
aI5
aI5
aI5
aI5
aI13
aI5
aI5
aI5
aI4
aI5
aI5
aI5
aI21
aI6
aI6
aI1
aI4
aI13
aI13
aI13
aI5
aI5
aI9
aI5
aI6
aI3
aI20
aI13
aI26
aI3
aI9
aI5
aI5
aI13
aI5
aI5
aI5
aI5
aI3
aI3
aI6
aI5
aI3
aI5
aI0
aI9
aI5
aI5
aI2
aI6
aI3
aI5
aI6
aI13
aI6
aI3
aa(lp29
I3
aI1
aI4
aI1
aI1
aI4
aI1
aI4
aI3
aa(lp30
I3
aI10
aI10
aI27
aI15
aI4
aI4
aI3
aI0
aI7
aI3
aI14
aI14
aI14
aI0
aI3
aI0
aI21
aI14
aI10
aI10
aI10
aI4
aI27
aI3
aI10
aI4
aI10
aI4
aI14
aI3
aI3
aI4
aI21
aI0
aI4
aI3
aI3
aI4
aI4
aI4
aI10
aI10
aI0
aI15
aI27
aI14
aI3
aI4
aI4
aI10
aI10
aI10
aI10
aI10
aI4
aI4
aI4
aI4
aI3
aI4
aI4
aI4
aI0
aI0
aI15
aI4
aI4
aI0
aI4
aI2
aI4
aI10
aI4
aI4
aI4
aI15
aI4
aI4
aI3
aI0
aI10
aI27
aI27
aI14
aI4
aI4
aI4
aI0
aI4
aI3
aI27
aI10
aI10
aI4
aI4
aI4
aI10
aI10
aI27
aI0
aI10
aI10
aI4
aI3
aI3
aI4
aI10
aI3
aI10
aI4
aI4
aI4
aI4
aI3
aI3
aI0
aI3
aI3
aI3
aI10
aI4
aI3
aI10
aI3
aI3
aI10
aI3
aI0
aI0
aI6
aI27
aI27
aI4
aI4
aI4
aI6
aI0
aI0
aI4
aa(lp31
I0
aI25
aI10
aI3
aI3
aI25
aI3
aI10
aI10
aI3
aI4
aI5
aI5
aI5
aI25
aI25
aI10
aI3
aI3
aI10
aI9
aI4
aI10
aI10
aI10
aI10
aI10
aI21
aI10
aI3
aI3
aI3
aI10
aI25
aI0
aI4
aI25
aI25
aI10
aI3
aI10
aI10
aI10
aI4
aI10
aI25
aI10
aI4
aI10
aI4
aI4
aI4
aI10
aI3
aI10
aI10
aI4
aI0
aI26
aI10
aI25
aI10
aI25
aI3
aI10
aI3
aI4
aI10
aI25
aI25
aI4
aI3
aI3
aI3
aI5
aI23
aI10
aI9
aI10
aI25
aI9
aI3
aI3
aI20
aI25
aI25
aI3
aI25
aI3
aI3
aI25
aI25
aI3
aI23
aI3
aI3
aI10
aI10
aI10
aI0
aI6
aI25
aI25
aI3
aI10
aI10
aI4
aI4
aI4
aI10
aI10
aI3
aI4
aI10
aI3
aI25
aI9
aI25
aI25
aI25
aI25
aI3
aa(lp32
I1
aI4
aI4
aI1
aI7
aI4
aI4
aI4
aI6
aI14
aI14
aI14
aI4
aI12
aI13
aI6
aI6
aI6
aI2
aI14
aI6
aI14
aI3
aI4
aI3
aI3
aI13
aI4
aI14
aI4
aI14
aI6
aI14
aI14
aI3
aI6
aI3
aI4
aI4
aI4
aI4
aI13
aI14
aI13
aI14
aI14
aI3
aI3
aI3
aI7
aI12
aI12
aI12
aI6
aI12
aI3
aI3
aI14
aI14
aI4
aI4
aI14
aI4
aI14
aI14
aI22
aI7
aI7
aI3
aI3
aI14
aI6
aI14
aI14
aI14
aI6
aI4
aI6
aI6
aI4
aI7
aa(lp33
I9
aI19
aI19
aI22
aI7
aI3
aI22
aI4
aI4
aI22
aI22
aI19
aI4
aI3
aI22
aI8
aI19
aI19
aI19
aI3
aI22
aI2
aI22
aI8
aI19
aI9
aI7
aI4
aI3
aI11
aI5
aI5
aI5
aI19
aI4
aI22
aa(lp34
I26
aI24
aI26
aI4
aI2
aI17
aI0
aI17
aI17
aI4
aI17
aI18
aI4
aI4
aI4
aI4
aI7
aI17
aI0
aI2
aI0
aI26
aI4
aI24
aI4
aI3
aI0
aI24
aI24
aI7
aI18
aI17
aI0
aI14
aI24
aI18
aa(lp35
I17
aI6
aI26
aI6
aI26
aI0
aI3
aI26
aI24
aI26
aI3
aI3
aI17
aI26
aI6
aI26
aI4
aI0
aI26
aI17
aI26
aI26
aI24
aI24
aI3
aI6
aI4
aI6
aI17
aI17
aI6
aI26
aI17
aI4
aI17
aI17
aI0
aI4
aI6
aI17
aI17
aI4
aI3
aI3
aI26
aI17
aI3
aI26
aI17
aI24
aI17
aI17
aI5
aI26
aI26
aI26
aI3
aI26
aI26
aI3
aI26
aI17
aI4
aI17
aI5
aI3
aI26
aI4
aI4
aI17
aI26
aI24
aI6
aI6
aI17
aI26
aI4
aI26
aI26
aI6
aI26
aI26
aI26
aI3
aI17
aI24
aI26
aI26
aI26
aI0
aI0
aI26
aI26
aI6
aI6
aI4
aI6
aI17
aI26
aI17
aI3
aI17
aI17
aI17
aI4
aI3
aI17
aI3
aI17
aI3
aI17
aI17
aI17
aI17
aI26
aI26
aI17
aa(lp36
I15
aI3
aI3
aI10
aI4
aI4
aI4
aI2
aI17
aI16
aI4
aI3
aI1
aI0
aI2
aI21
aI1
aI17
aI1
aI1
aI10
aI21
aI15
aI16
aI7
aI1
aI1
aI4
aI1
aI21
aI0
aI3
aI7
aI15
aI15
aI15
aI15
aI4
aI7
aI7
aI1
aI4
aI7
aI4
aI15
aI15
aI15
aI10
aI4
aI15
aI4
aI13
aI3
aI3
aI0
aI7
aI7
aI15
aI7
aI4
aI10
aI21
aI16
aI15
aI4
aI15
aI0
aI15
aI15
aI15
aI4
aI21
aI4
aI3
aa(lp37
I4
aI4
aI4
aI7
aI3
aI4
aI4
aI4
aI7
aI4
aI11
aI3
aI21
aI11
aI21
aI4
aI3
aI3
aI21
aI7
aI11
aI11
aa(lp38
I3
aI6
aI3
aI6
aI21
aI2
aI24
aI3
aI24
aI6
aI24
aI24
aI21
aI6
aI6
aI6
aI6
aI6
aI3
aI6
aI24
aI12
aI3
aI3
aI3
aI6
aI6
aI24
aI16
aI24
aI16
aI6
aI6
aI24
aI10
aI6
aI6
aI6
aI4
aI4
aI2
aI24
aI6
aI3
aI4
aI6
aI24
aI24
aI3
aI4
aI3
aI3
aI4
aI6
aI6
aI6
aI6
aI6
aI6
aI6
aI4
aI3
aI3
aI3
aI3
aI25
aI24
aI3
aI3
aI3
aI24
aI3
aI21
aI8
aI24
aI24
aI6
aI6
aI6
aI24
aI24
aI3
aI6
aI3
aI24
aI4
aI6
aI6
aI6
aI6
aI24
aI24
aI24
aI2
aI3
aI6
aI6
aI3
aI6
aI3
aI6
aI22
aI6
aI3
aI3
aI4
aI24
aI3
aI6
aI6
aI6
aI6
aI6
aI6
aa(lp39
I22
aI22
aI22
aI22
aI24
aI3
aI7
aI22
aI3
aI3
aI7
aI16
aI7
aI7
aI22
aI4
aI22
aI22
aI22
aI22
aI22
aI22
aI3
aI7
aI20
aI6
aI4
aI6
aI7
aI7
aI6
aI22
aI4
aI22
aI7
aI7
aI22
aI6
aI22
aI6
aI22
aI22
aI22
aI6
aI7
aI7
aI7
aI3
aI7
aI3
aI7
aI22
aI22
aI6
aI20
aI7
aI7
aI7
aI7
aI24
aI24
aI22
aI22
aI22
aa(lp40
I3
aI25
aI21
aI25
aI27
aI7
aI10
aI3
aI10
aI3
aI7
aI4
aI18
aI25
aI25
aI5
aI22
aI22
aI25
aI3
aI25
aI3
aI18
aI3
aI25
aI25
aI10
aI10
aI10
aI5
aI25
aI7
aI25
aI4
aI4
aI3
aI25
aI18
aI3
aI18
aI7
aI10
aI27
aI3
aI20
aI7
aI10
aI7
aI22
aI5
aI18
aI3
aI4
aI10
aI7
aI4
aI4
aI22
aI7
aI3
aI3
aI3
aI3
aI18
aI5
aI3
aI27
aI3
aI4
aI7
aI7
aI3
aI3
aI25
aI3
aa(lp41
I1
aI1
aI25
aI24
aI6
aI20
aI4
aI4
aI25
aI3
aI25
aI20
aI6
aI8
aI4
aI4
aI4
aI4
aI1
aI20
aI1
aI1
aI1
aI20
aI15
aI3
aI20
aI15
aI3
aI3
aI4
aI2
aI25
aI4
aI26
aI4
aI2
aI3
aI3
aI1
aI26
aI26
aI1
aI1
aI1
aI6
aI6
aI3
aI3
aI4
aI13
aI13
aI19
aI19
aI25
aI25
aI6
aI20
aI25
aI15
aI25
aI26
aI3
aI25
aI3
aI4
aI6
aI4
aI4
aI4
aI13
aI6
aI20
aI26
aI2
aI4
aI25
aI20
aI4
aI4
aI13
aI13
aI3
aI4
aI4
aI3
aI1
aI20
aI4
aI2
aI20
aI20
aI24
aI4
aI3
aI3
aI4
aI3
aI4
aI3
aI3
aI19
aa(lp42
I7
aI4
aI7
aI7
aI19
aI4
aI4
aI4
aI3
aI4
aI4
aI4
aI7
aI4
aI20
aI3
aI7
aI4
aI3
aI4
aI4
aI6
aI7
aI7
aI4
aI6
aI4
aI4
aI6
aI6
aI6
aI4
aI4
aI4
aI4
aI4
aI3
aI20
aI4
aI20
aI4
aI7
aI22
aI7
aI4
aI6
aI4
aI6
aI4
aI4
aI7
aI7
aI7
aI4
aI4
aI4
aI7
aI4
aI20
aI4
aI7
aI7
aI7
aI3
aI7
aI7
aI4
aI3
aI7
aa(lp43
I18
aI6
aI6
aI6
aI6
aI11
aI8
aI6
aI6
aI6
aI3
aI6
aI8
aI8
aI6
aI6
aI6
aI18
aI25
aI25
aI6
aI6
aI6
aI6
aI6
aI6
aI8
aI3
aI6
aI6
aI6
aI25
aI25
aI25
aI8
aI6
aI6
aI18
aI6
aI6
aI6
aI6
aI8
aI11
aI6
aI6
aI6
aI8
aI8
aI6
aI6
aI8
aI6
aI0
aI8
aI8
aI25
aI8
aI8
aI6
aI6
aI6
aa(lp44
I11
aI15
aI15
aI2
aI15
aI27
aI27
aI11
aI6
aI6
aI15
aI15
aI27
aI27
aI27
aI27
aI21
aI15
aI4
aI3
aI3
aI27
aI15
aI0
aI0
aI3
aI21
aI4
aI27
aI27
aI2
aI2
aI3
aI3
aI3
aI27
aI15
aI15
aI6
aI21
aI27
aI3
aI3
aI15
aI15
aI6
aI27
aI2
aI27
aI3
aI2
aI15
aI2
aI3
aI3
aI3
aI3
aI15
aI15
aI15
aI15
aI15
aI4
aI27
aI3
aI15
aI27
aI27
aI27
aI27
aI21
aI27
aI2
aI15
aI27
aI15
aI15
aI6
aI27
aI15
aI15
aI27
aI6
aI15
aI2
aI10
aI2
aI3
aI3
aI3
aI27
aI15
aI27
aI27
aI15
aI2
aI4
aI3
aI6
aI15
aI27
aI27
aI15
aI3
aI15
aI27
aI9
aI15
aI15
aI15
aI27
aI27
aI2
aI15
aI27
aI27
aI27
aI27
aI27
aI27
aI27
aI27
aI3
aI15
aI2
aI15
aI27
aI11
aI3
aI3
aI3
aI15
aI27
aI15
aI15
aI15
aI3
aI27
aI27
aI21
aI27
aI6
aI27
aI3
aI27
aI27
aI10
aI15
aI15
aI3
aI15
aI2
aI4
aI27
aI10
aI2
aI4
aI4
aI4
aI15
aI3
aI27
aI27
aI27
aI3
aI27
aI3
aI3
aI11
aI15
aI15
aI3
aa(lp45
I0
aI0
aI25
aI3
aI22
aI25
aI25
aI20
aI5
aI5
aI5
aI5
aI5
aI6
aI6
aI6
aI25
aI6
aI6
aI8
aI25
aI5
aI3
aI5
aI25
aI25
aI23
aI22
aI6
aI5
aI8
aI6
aI6
aI25
aI25
aI6
aI0
aI8
aI25
aI25
aI22
aI6
aI8
aI3
aI8
aI25
aI22
aI25
aI25
aI17
aI6
aI5
aI8
aI5
aI5
aI20
aI5
aI25
aI5
aI5
aI5
aI22
aI8
aI5
aI5
aI25
aI5
aI5
aI26
aI8
aI6
aI8
aI25
aI25
aI25
aI25
aI25
aI25
aI25
aI6
aI6
aI25
aI8
aI5
aI5
aI22
aI8
aI25
aI5
aI5
aI8
aI23
aI3
aI3
aI5
aI25
aI25
aI25
aI3
aI22
aI22
aI6
aI0
aI5
aI6
aI20
aa(lp46
I2
aI2
aI1
aI4
aI4
aI7
aI4
aI7
aI2
aI7
aI4
aI2
aI2
aI2
aI7
aI3
aI4
aI4
aI7
aI2
aI4
aI1
aI1
aI4
aI4
aI20
aI2
aI5
aI3
aI2
aI2
aa(lp47
I24
aI6
aI1
aI1
aI4
aI4
aI1
aI1
aI2
aI2
aI10
aI3
aI10
aI8
aI15
aI15
aI8
aI15
aI10
aI15
aI15
aI1
aI4
aI1
aI8
aI2
aI6
aI27
aI15
aI4
aI1
aI15
aI6
aI4
aI15
aI15
aI2
aI15
aI15
aa(lp48
I12
aI3
aI3
aI4
aI24
aI6
aI12
aI3
aI5
aI21
aI6
aI3
aI12
aI21
aI6
aI21
aI6
aI3
aI21
aI3
aI6
aI6
aI12
aI12
aI6
aI4
aI3
aI12
aI5
aI9
aI6
aI6
aI6
aI4
aI4
aI6
aI24
aI4
aI3
aI3
aI12
aI4
aI5
aI1
aI6
aI21
aI12
aI1
aI21
aI6
aI1
aI4
aI5
aI4
aI24
aI21
aI3
aI3
aI1
aI21
aa(lp49
I2
aI3
aI3
aI25
aI2
aI6
aI6
aI6
aI6
aI4
aI1
aI1
aI2
aI25
aI1
aI2
aI25
aI5
aI6
aI6
aI2
aI1
aI23
aI6
aI15
aI6
aI6
aI13
aI3
aI3
aI25
aI15
aI6
aI3
aI4
aI4
aI4
aI2
aI9
aI2
aI2
aI2
aI3
aI4
aI6
aI25
aI27
aI4
aI3
aI3
aI6
aI23
aI23
aI15
aI9
aI25
aI9
aI9
aI3
aI3
aI3
aI1
aI2
aI2
aI2
aI2
aI22
aI3
aI15
aI15
aI25
aI22
aI6
aI3
aI6
aI6
aI6
aI6
aI2
aI9
aI3
aI3
aI2
aI3
aI3
aI27
aI3
aI3
aI3
aI9
aI3
aI3
aI4
aI4
aI3
aI2
aI25
aI9
aI4
aI2
aI25
aI25
aa(lp50
I25
aI25
aI6
aI15
aI25
aI3
aI25
aI3
aI25
aI2
aI2
aI2
aI3
aI25
aI1
aI12
aI7
aI7
aI7
aI3
aI1
aI25
aI25
aI25
aI25
aI25
aI1
aI7
aI20
aI4
aI1
aI1
aI1
aI3
aI7
aI7
aI3
aI7
aI2
aI16
aI1
aI12
aI1
aI12
aI12
aI25
aI12
aI2
aI1
aI1
aI25
aI25
aI2
aI3
aI7
aI1
aI2
aI12
aI12
aI25
aI25
aI1
aa(lp51
I9
aI22
aI6
aI3
aI3
aI12
aI16
aI6
aI16
aI6
aI10
aI6
aI6
aI6
aI22
aI6
aI4
aI3
aI3
aI27
aI3
aI22
aI4
aI1
aI4
aI1
aI1
aI6
aI6
aI16
aI16
aI6
aI22
aI4
aI4
aI4
aI4
aI10
aI22
aI16
aI27
aI6
aI27
aI3
aI6
aI11
aI22
aI4
aI16
aI1
aI1
aI16
aI6
aI27
aI6
aI6
aI6
aI1
aI3
aI16
aI4
aI6
aI3
aI6
aI6
aa(lp52
I23
aI19
aI23
aI2
aI23
aI4
aI23
aI23
aI1
aI6
aI6
aI23
aI6
aI23
aI23
aI3
aI23
aI3
aI23
aI23
aI2
aI23
aI3
aI6
aI6
aI3
aI4
aI3
aI23
aI23
aI23
aI23
aI23
aI1
aI2
aI23
aI23
aI3
aI23
aI3
aI2
aI2
aI23
aI3
aI3
aI2
aI1
aI23
aI23
aI23
aI4
aI23
aI1
aI1
aI1
aI2
aI1
aI1
aI23
aI23
aI1
aI1
aI23
aI1
aI23
aI23
aI23
aI6
aI23
aI23
aI3
aI23
aI23
aI23
aI23
aI23
aI23
aI6
aI23
aI3
aI23
aa(lp53
I4
aI4
aI23
aI25
aI4
aI25
aI25
aI25
aI25
aI4
aI9
aI9
aI3
aI25
aI25
aI25
aI25
aI18
aI9
aI25
aI25
aI9
aI4
aI3
aI4
aI18
aI4
aI4
aI4
aI9
aI9
aI9
aI4
aI9
aI9
aI4
aI3
aI25
aI9
aI25
aI25
aI9
aI25
aI4
aI15
aI4
aI9
aI15
aI15
aI15
aa(lp54
I22
aI22
aI22
aI22
aI22
aI6
aI22
aI22
aI22
aI21
aI22
aI21
aI4
aI22
aI4
aI22
aI3
aI22
aI22
aI22
aI1
aI0
aI21
aI21
aI22
aI22
aI22
aI4
aI27
aI4
aI21
aI22
aI6
aI3
aI2
aI4
aI2
aI21
aI21
aI21
aI21
aI21
aI21
aI4
aI15
aI3
aI22
aI22
aI1
aI21
aI22
aI4
aI22
aI22
aI21
aI3
aI6
aI6
aI6
aI6
aI6
aI4
aI22
aI21
aI22
aI21
aI4
aI6
aI4
aI4
aI22
aa(lp55
I26
aI6
aI6
aI2
aI3
aI6
aI26
aI3
aI1
aI16
aI26
aI16
aI14
aI2
aI14
aI23
aI2
aI4
aI3
aI4
aI3
aI21
aI2
aI6
aI26
aI3
aI6
aI4
aI1
aI26
aI3
aI6
aI5
aI26
aI6
aa(lp56
I3
aI1
aI3
aI1
aI21
aI21
aI1
aI1
aI26
aI4
aI4
aI23
aI23
aI26
aI4
aI26
aI25
aI26
aI26
aI26
aI21
aI26
aI23
aI23
aI1
aI0
aI6
aI23
aI21
aI13
aI3
aI21
aI26
aa(lp57
I3
aI22
aI3
aI3
aI1
aI3
aI3
aI22
aI4
aI3
aI15
aI2
aI1
aI3
aI5
aI3
aI4
aI1
aI24
aI3
aI3
aI24
aI24
aI4
aI4
aI1
aI1
aI24
aI3
aI24
aI3
aI1
aI1
aI5
aI16
aI3
aI4
aI4
aI3
aI2
aI2
aI4
aI3
aI4
aI1
aI4
aI4
aI5
aI4
aI22
aI15
aI15
aI24
aI4
aI3
aI1
aI4
aI5
aI22
aI2
aI5
aI2
aI24
aI4
aI3
aI3
aI3
aI3
aa(lp58
I4
aI4
aI4
aI22
aI3
aI2
aI2
aI3
aI3
aI4
aI3
aI2
aI16
aI16
aI6
aI3
aI3
aI22
aI2
aI16
aI22
aI2
aI3
aI3
aI3
aI2
aI1
aI2
aI4
aI4
aI2
aI4
aI14
aI2
aI2
aI2
aI2
aa(lp59
I4
aI3
aI3
aI6
aI6
aI23
aI26
aI3
aI3
aI6
aI6
aI4
aI3
aI26
aI3
aI1
aI13
aI6
aI13
aI1
aI13
aI3
aI1
aI26
aI26
aI6
aI3
aI6
aI3
aI6
aI26
aI16
aI1
aI23
aI3
aI4
aI3
aI26
aI3
aI19
aI3
aI13
aI3
aI3
aI3
aI3
aI6
aI3
aI3
aI3
aI6
aI26
aI3
aI3
aI3
aI4
aI4
aI13
aI13
aI19
aI2
aI3
aI4
aI26
aI3
aI26
aI3
aI6
aI13
aI3
aI3
aI3
aI4
aa(lp60
I1
aI3
aI2
aI1
aI2
aI2
aI3
aI2
aI6
aI27
aI8
aI6
aI2
aI6
aI1
aI2
aI6
aI3
aI27
aI3
aI2
aI2
aI2
aI2
aI3
aI6
aI6
aI27
aI3
aI27
aI27
aI27
aI6
aI27
aI6
aI27
aI6
aI27
aI27
aI27
aI27
aI6
aI6
aI1
aI20
aI1
aI1
aI6
aI6
aI20
aI6
aI2
aI2
aI2
aI8
aI6
aI6
aI6
aI3
aI1
aI8
aI27
aI3
aI20
aI3
aI3
aI2
aI2
aI2
aI2
aI2
aI6
aI2
aI4
aI3
aI3
aI3
aI1
aI4
aI3
aI3
aI3
aI3
aI3
aI6
aI1
aI1
aI3
aI1
aI6
aI27
aI3
aI3
aI3
aI1
aI27
aI1
aI3
aa(lp61
I8
aI26
aI26
aI1
aI3
aI24
aI3
aI4
aI3
aI26
aI8
aI3
aI3
aI23
aI6
aI6
aI3
aI6
aI3
aI26
aI3
aI26
aI4
aI24
aI8
aI8
aI24
aI2
aI3
aI8
aI26
aI3
aI1
aI23
aI6
aI23
aI1
aI23
aI23
aI3
aI6
aI6
aI8
aI2
aI4
aI6
aI3
aI8
aI25
aI6
aI8
aI3
aa(lp62
I20
aI6
aI21
aI22
aI5
aI6
aI3
aI20
aI6
aI6
aI6
aI6
aI5
aI6
aI5
aI6
aI5
aI6
aI22
aI21
aI3
aI22
aI6
aI6
aI6
aI20
aI22
aI5
aI5
aa(lp63
I4
aI13
aI19
aI19
aI4
aI13
aI7
aI13
aI2
aI2
aI7
aI19
aI7
aI3
aI2
aI2
aI13
aI13
aI1
aI7
aI13
aa(lp64
I6
aI1
aI4
aI3
aI3
aI1
aI25
aI3
aI4
aI20
aI1
aI25
aI3
aI3
aI19
aI3
aI4
aI3
aI2
aI3
aI3
aI19
aI2
aI3
aI4
aI1
aI20
aI4
aI4
aI20
aI1
aI3
aI3
aI4
aI4
aI10
aI4
aI4
aI19
aI3
aI3
aI3
aI3
aI3
aI3
aI3
aI3
aI1
aI3
aI19
aI25
aI2
aI4
aI19
aI19
aI19
aI1
aI3
aI3
aI19
aI19
aI19
aI19
aI19
aI3
aI19
aI19
aI2
aI3
aI4
aa(lp65
I0
aI0
aI25
aI6
aI4
aI12
aI0
aI11
aI0
aI0
aI11
aI0
aI6
aI6
aI2
aI25
aI11
aI0
aI11
aI11
aI11
aI4
aI11
aI11
aI11
aI11
aI12
aI11
aI6
aI3
aI12
aI11
aI11
aI6
aI11
aI4
aI22
aI6
aI11
aI6
aI22
aI4
aI25
aI6
aI6
aI0
aI11
aI0
aI11
aI0
aI3
aI3
aI25
aI25
aI25
aI0
aI0
aI0
aI11
aI3
aI3
aI25
aI3
aI0
aI25
aI25
aI11
aI0
aI11
aI4
aI12
aI12
aI12
aI3
aI3
aI11
aI0
aI11
aI0
aI0
aI11
aI25
aI4
aI0
aI0
aI25
aI11
aI25
aI25
aI11
aI3
aI6
aI6
aI6
aI6
aI11
aI11
aI0
aI3
aI11
aI0
aI3
aI22
aI4
aI12
aI6
aI6
aI6
aI0
aI11
aI12
aI12
aI11
aI12
aI11
aI11
aI11
aI11
aI11
aI25
aI3
aI11
aI11
aI4
aI4
aI11
aI0
aI11
aI0
aI11
aI11
aI3
aI25
aI3
aI11
aI22
aI0
aI12
aI11
aI6
aI6
aa(lp66
I2
aI11
aI11
aI3
aI4
aI3
aI3
aI8
aI11
aI0
aI3
aI11
aI4
aI3
aI3
aI3
aI8
aI3
aI4
aI3
aI8
aI2
aI8
aI8
aI3
aI3
aI4
aI8
aI8
aI8
aI4
aI3
aI8
aI2
aI8
aI8
aI8
aI4
aI0
aI3
aI3
aI0
aI3
aI18
aI4
aI3
aI4
aI3
aI11
aI3
aI3
aI3
aI0
aI3
aI11
aI14
aI3
aI3
aI0
aI11
aI11
aI2
aI14
aI14
aI8
aI8
aI8
aI8
aI3
aI3
aI8
aI8
aI4
aI3
aI8
aI8
aI3
aI3
aI8
aI11
aI3
aI11
aI0
aI8
aI8
aI8
aI4
aI3
aI8
aI3
aI0
aI8
aI0
aI11
aI8
aI8
aI8
aI3
aI3
aI11
aI11
aI4
aI11
aI6
aI2
aI0
aI8
aI8
aI2
aI3
aI8
aI8
aI8
aI3
aI3
aI2
aI2
aa(lp67
I8
aI3
aI3
aI4
aI3
aI6
aI3
aI4
aI3
aI3
aI1
aI10
aI3
aI4
aI3
aI18
aI8
aI8
aI4
aI4
aI4
aI3
aI3
aI4
aI8
aI4
aI4
aI8
aI3
aI8
aI8
aa(lp68
I4
aI6
aI6
aI12
aI6
aI12
aI3
aI6
aI12
aI12
aI12
aI6
aI6
aI12
aI12
aI12
aI6
aI6
aI0
aI4
aI16
aI12
aI23
aI23
aI4
aI0
aI6
aI6
aI3
aI6
aI0
aI0
aI6
aI6
aI3
aI0
aI12
aI12
aI0
aI6
aI6
aI6
aI6
aI6
aI6
aI6
aI12
aI6
aI12
aI23
aI3
aI23
aI3
aI6
aI6
aI3
aI12
aI6
aI3
aI4
aI4
aI4
aI3
aI6
aI6
aI12
aI6
aI6
aI6
aI6
aI3
aI12
aI23
aI6
aI6
aI6
aI6
aI6
aI6
aI3
aI4
aI6
aI6
aI6
aI4
aI4
aI6
aI3
aI6
aI6
aI6
aI12
aI13
aI0
aI6
aI16
aI12
aI12
aI6
aI4
aI4
aI4
aI6
aI6
aI12
aI12
aI12
aI12
aI23
aI12
aI23
aI12
aI12
aI12
aI12
aI12
aI12
aI12
aI12
aI12
aI12
aI12
aI6
aI6
aI23
aI23
aI12
aI4
aI12
aI12
aI12
aI12
aI6
aI6
aI12
aI12
aI12
aI12
aI23
aI3
aI23
aa(lp69
I3
aI3
aI15
aI18
aI3
aI6
aI3
aI18
aI5
aI15
aI3
aI22
aI4
aI6
aI3
aI5
aI6
aI3
aI20
aI3
aI6
aI3
aa(lp70
I3
aI3
aI26
aI11
aI2
aI1
aI15
aI3
aI4
aI3
aI2
aI2
aI21
aI15
aI11
aI3
aI3
aI4
aI1
aI15
aI3
aI15
aI21
aI1
aI1
aI15
aI1
aI13
aI1
aI27
aI4
aI26
aI15
aI1
aI2
aI3
aI10
aI3
aI1
aI1
aI11
aI11
aI1
aI11
aI15
aI4
aI1
aI6
aI11
aI21
aI6
aI3
aI11
aI3
aI3
aI15
aI10
aI1
aI1
aI3
aI15
aI3
aI3
aI4
aI3
aI10
aI27
aI4
aI1
aI26
aI3
aI15
aI3
aI26
aI3
aI4
aI4
aI10
aa(lp71
I27
aI3
aI6
aI3
aI6
aI3
aI2
aI2
aI4
aI22
aI3
aI6
aI1
aI3
aI12
aI12
aI27
aI21
aI4
aI4
aI6
aI27
aI27
aI27
aI2
aI21
aI1
aI22
aI1
aI4
aI3
aI4
aI1
aI1
aI1
aI21
aI6
aI22
aI6
aI21
aI12
aI3
aI3
aI3
aI3
aI6
aI6
aI12
aI3
aI21
aI1
aI1
aI27
aI1
aI1
aI4
aI21
aI21
aI21
aI3
aI3
aI1
aI22
aI27
aI3
aI4
aI4
aI3
aI22
aI6
aI27
aI6
aI12
aI12
aI12
aI12
aI1
aI12
aI1
aI6
aI27
aI27
aI4
aI1
aI3
aI3
aI4
aI27
aI27
aI27
aI22
aI4
aI3
aI3
aI1
aI27
aI6
aI27
aI22
aI22
aI4
aI3
aa(lp72
I26
aI1
aI1
aI12
aI3
aI12
aI3
aI17
aI15
aI3
aI12
aI15
aI15
aI3
aI12
aI26
aI1
aI1
aI1
aI17
aI17
aI15
aI2
aI15
aI12
aI15
aI15
aI15
aI17
aI15
aI3
aI2
aI3
aI2
aI1
aI1
aI1
aI12
aI12
aI12
aI12
aI12
aI12
aI12
aI12
aI12
aI12
aI12
aI12
aI12
aI12
aI12
aI3
aI12
aI22
aI3
aI3
aI3
aI3
aI3
aI3
aI2
aI3
aI1
aI2
aI12
aI2
aI1
aI1
aI1
aa(lp73
I26
aI6
aI26
aI4
aI26
aI6
aI26
aI4
aI4
aI26
aI7
aI4
aI7
aI26
aI4
aI4
aI26
aI26
aI26
aI26
aI4
aI26
aI7
aI6
aI26
aI26
aI26
aI4
aI4
aI26
aI6
aI26
aI26
aI12
aI12
aI6
aI12
aI12
aI6
aI26
aI4
aI4
aI26
aI26
aI26
aI26
aI26
aa(lp74
I2
aI2
aI7
aI3
aI17
aI7
aI7
aI7
aI6
aI9
aI25
aI9
aI3
aI11
aI3
aI25
aI25
aI3
aI25
aI6
aI25
aI25
aI11
aI9
aa(lp75
I4
aI3
aI25
aI4
aI21
aI21
aI3
aI3
aI1
aI1
aI3
aI4
aI4
aI3
aI8
aI4
aI3
aI3
aI3
aI3
aI20
aI20
aI20
aI3
aa(lp76
I3
aI18
aI2
aI18
aI25
aI6
aI4
aI17
aI1
aI3
aI1
aI22
aI22
aI22
aI22
aI6
aI18
aI25
aI25
aI3
aI17
aI6
aI17
aI18
aI25
aI5
aI19
aI22
aI23
aI6
aI22
aI2
aI5
aI5
aI5
aI4
aI19
aI5
aI1
aI4
aI19
aI5
aI22
aI18
aI6
aI4
aI22
aI3
aI3
aI4
aI2
aI5
aI4
aI5
aI1
aI5
aI5
aI22
aI25
aI22
aI17
aI1
aI1
aI18
aI5
aI22
aI5
aI3
aI3
aI3
aI1
aI22
aI3
aI17
aI11
aI11
aI19
aI12
aI1
aI22
aI1
aI1
aI1
aI3
aI4
aI5
aI3
aI19
aI19
aI17
aI6
aI4
aI3
aI17
aI22
aI3
aI22
aI5
aI22
aI22
aI25
aI22
aI22
aI5
aI11
aI3
aI18
aI4
aI5
aI17
aI12
aI11
aI12
aI13
aI12
aI12
aI17
aI17
aI1
aI3
aI4
aI1
aI6
aI17
aI26
aI12
aI3
aI17
aI1
aI3
aI17
aI22
aI3
aI5
aI5
aI5
aI2
aI19
aI22
aI22
aI5
aI1
aI22
aI18
aI11
aI18
aI1
aI6
aI18
aI22
aI6
aI22
aI22
aI11
aI6
aI18
aI3
aI12
aI3
aI1
aI1
aI1
aa(lp77
I3
aI1
aI5
aI4
aI11
aI3
aI6
aI3
aI3
aI6
aI8
aI5
aI1
aI19
aI6
aI5
aI6
aI8
aI5
aI8
aI6
aI6
aI6
aI6
aI8
aI3
aI5
aI12
aI8
aI5
aI5
aI19
aI6
aI5
aI19
aI5
aI6
aI12
aI2
aI1
aI5
aI8
aI6
aI6
aI6
aI8
aI6
aI5
aI19
aI19
aI19
aI11
aI7
aI5
aI1
aI4
aI3
aI1
aI5
aI1
aa(lp78
I1
aI6
aI6
aI22
aI7
aI6
aI1
aI22
aI1
aI22
aI1
aI6
aI1
aI6
aI1
aI1
aI1
aI22
aI22
aI3
aI6
aI22
aI22
aI1
aI6
aI1
aI3
aI6
aI22
aI1
aI1
aI6
aI6
aI6
aI1
aI1
aI1
aI1
aI1
aI6
aI7
aI1
aI22
aI1
aI1
aa(lp79
I7
aI7
aI1
aI22
aI22
aI5
aI0
aI1
aI5
aI1
aI5
aI7
aI13
aI5
aI5
aI1
aI5
aI13
aI13
aI13
aI7
aI13
aI13
aI1
aI5
aI13
aI5
aI26
aI13
aI1
aI13
aa(lp80
I18
aI3
aI3
aI21
aI6
aI0
aI3
aI0
aI0
aI3
aI21
aI17
aI21
aI21
aI0
aI3
aI21
aI21
aI4
aI21
aI21
aI4
aI4
aI3
aI21
aI0
aI6
aI21
aI21
aI18
aI4
aI4
aI4
aI17
aI0
aI3
aI3
aI21
aI21
aI3
aI3
aI21
aa(lp81
I4
aI2
aI4
aI4
aI6
aI3
aI3
aI4
aI4
aI2
aI4
aI2
aI3
aI6
aI6
aI4
aI2
aI3
aI3
aI3
aI3
aI4
aI6
aI8
aI2
aI3
aI8
aI6
aI4
aI3
aI2
aI3
aI3
aI14
aI3
aI14
aI14
aI2
aI8
aI14
aa(lp82
I6
aI22
aI6
aI3
aI3
aI7
aI15
aI3
aI6
aI3
aI6
aI3
aI6
aI6
aI6
aI15
aI3
aI15
aI15
aI6
aI15
aI2
aI2
aI3
aI3
aI2
aI6
aI15
aI18
aI15
aI6
aI3
aa(lp83
I21
aI3
aI2
aI6
aI3
aI4
aI1
aI1
aI2
aI3
aI3
aI3
aI2
aI3
aI2
aI6
aI2
aI2
aI3
aI3
aI21
aI3
aI21
aI1
aI21
aI3
aI3
aI3
aI21
aI21
aI17
aI21
aI21
aI3
aI21
aI3
aI1
aI3
aI3
aI21
aI21
aI6
aI3
aI4
aI3
aI21
aI3
aI3
aI21
aI3
aI21
aI3
aI2
aI1
aI2
aI3
aI3
aI21
aI21
aI21
aI21
aI21
aI21
aI21
aI17
aI1
aI1
aI1
aI2
aI3
aI3
aI21
aI2
aI21
aI2
aa(lp84
I1
aI1
aI1
aI21
aI21
aI18
aI21
aI7
aI21
aI7
aI3
aI19
aI22
aI3
aI7
aI3
aI7
aI7
aI7
aI22
aI1
aI1
aI4
aI7
aI4
aI21
aI1
aI3
aI3
aI3
aI6
aI22
aI27
aI3
aI22
aI21
aI21
aI21
aI4
aI2
aI7
aI21
aI1
aI21
aI21
aI21
aI21
aI21
aI21
aI21
aa(lp85
I2
aI3
aI3
aI3
aI7
aI6
aI3
aI10
aI4
aI3
aI4
aI4
aI4
aI20
aI6
aI2
aI3
aI3
aI2
aI2
aI3
aI4
aI2
aI20
aI3
aI7
aI20
aI8
aI2
aI2
aI20
aI20
aI20
aI3
aI4
aI3
aI2
aI20
aI3
aI20
aI3
aI3
aI2
aI3
aI2
aI2
aI5
aI2
aI5
aI20
aI20
aI3
aI20
aI20
aI20
aI3
aI3
aI20
aI20
aI4
aI5
aI20
aI3
aI3
aI3
aa(lp86
I5
aI3
aI25
aI19
aI3
aI3
aI3
aI18
aI18
aI6
aI4
aI18
aI8
aI3
aI3
aI19
aI19
aI6
aI18
aI6
aI6
aI6
aI23
aI8
aI6
aI4
aI18
aI19
aI6
aI6
aI25
aI8
aI18
aI8
aI8
aI8
aI18
aI8
aI18
aI23
aI4
aI3
aI8
aI18
aI6
aI8
aI8
aI8
aI3
aI6
aI6
aI18
aI6
aI4
aI18
aI19
aI4
aI25
aI18
aI6
aI19
aI18
aI6
aI6
aI6
aI6
aI23
aI18
aI4
aI18
aI18
aI8
aI3
aI8
aI8
aI8
aI19
aI8
aI6
aI18
aI6
aI2
aI2
aI3
aI18
aI18
aI18
aI18
aI25
aI23
aI8
aI8
aI23
aI18
aI3
aI3
aI8
aI18
aI3
aI3
aI3
aI19
aI6
aI8
aI19
aI3
aI8
aI8
aI6
aI18
aI19
aI19
aI25
aI16
aI25
aI8
aI25
aI25
aI8
aI8
aI19
aI23
aI6
aI8
aI8
aI4
aI18
aI4
aI4
aI3
aI6
aI4
aI4
aI25
aI4
aI6
aI8
aI4
aI3
aI4
aI8
aI8
aa(lp87
I2
aI19
aI4
aI3
aI3
aI3
aI4
aI17
aI8
aI22
aI10
aI10
aI8
aI4
aI2
aI3
aI8
aI10
aI10
aI8
aI10
aI8
aI19
aI4
aI10
aI15
aI3
aI8
aI8
aI8
aI15
aI4
aI7
aI8
aI4
aI8
aI5
aI8
aI10
aI3
aI8
aI15
aI5
aI10
aI3
aI8
aI3
aI7
aI5
aI8
aI10
aI4
aI5
aI8
aI8
aI8
aI19
aI8
aI4
aI4
aI3
aI8
aI8
aI5
aI3
aI4
aI19
aa(lp88
I21
aI21
aI21
aI5
aI5
aI20
aI5
aI4
aI21
aI4
aI4
aI21
aI21
aI2
aI7
aI3
aI7
aI21
aI3
aI5
aI21
aI5
aI7
aI5
aI4
aI4
aI4
aI4
aI21
aI4
aI21
aI4
aI21
aI4
aI4
aI21
aI3
aI21
aI19
aI4
aI3
aI3
aI3
aI21
aI3
aI21
aI7
aI13
aI4
aI16
aI4
aI4
aI2
aI3
aI4
aI4
aI3
aI4
aI3
aI16
aI3
aI5
aI5
aI21
aI19
aI7
aI21
aI7
aI3
aI5
aI19
aI3
aI3
aI4
aI7
aI4
aI4
aI5
aI5
aI3
aI21
aI21
aI8
aI5
aI19
aI7
aI3
aI7
aI7
aI7
aI3
aI7
aI5
aI5
aI5
aI5
aI21
aI7
aI7
aI3
aI21
aI21
aI3
aI5
aI3
aI3
aI21
aI7
aI19
aI19
aI4
aI19
aI7
aI21
aI21
aI3
aI21
aI5
aa(lp89
I6
aI21
aI21
aI1
aI21
aI21
aI21
aI21
aI21
aI25
aI3
aI3
aI26
aI0
aI3
aI21
aI26
aI3
aI0
aI0
aI3
aI19
aI6
aI0
aI19
aI6
aI21
aI19
aI26
aI0
aI3
aI5
aI6
aI0
aI21
aI21
aI25
aI6
aI3
aI26
aI3
aI21
aI26
aI21
aI6
aI0
aI26
aI21
aI26
aI21
aI0
aI3
aa(lp90
I2
aI3
aI14
aI27
aI0
aI27
aI7
aI3
aI7
aI17
aI14
aI22
aI27
aI22
aI27
aI3
aI3
aI6
aI1
aI22
aI3
aI22
aI2
aI10
aI10
aI10
aI10
aI10
aI10
aI3
aI27
aI10
aI3
aI0
aI3
aI3
aI0
aI27
aI7
aI3
aI1
aI2
aI3
aI17
aI3
aI10
aI0
aI4
aI3
aa(lp91
I3
aI0
aI6
aI3
aI3
aI3
aI3
aI0
aI18
aI0
aI0
aI3
aI0
aI3
aI3
aI3
aI3
aI3
aI0
aI17
aI19
aI3
aI19
aI19
aI4
aI19
aI3
aI4
aI4
aI4
aI0
aI0
aI3
aI6
aI3
aI18
aI14
aI4
aI3
aI3
aI3
aI0
aI0
aI3
aI6
aI4
aI3
aI4
aI3
aI3
aI3
aI3
aI4
aI4
aI18
aI0
aI0
aI19
aI0
aI2
aI17
aI7
aI3
aI0
aI3
aI17
aI17
aI3
aI6
aI19
aI4
aa(lp92
I15
aI13
aI3
aI25
aI7
aI3
aI25
aI25
aI25
aI25
aI9
aI25
aI4
aI10
aI10
aI10
aI15
aI10
aI25
aI25
aI4
aI13
aI13
aI15
aI9
aI3
aI3
aI9
aI3
aI3
aI3
aI6
aI7
aI4
aI9
aI9
aI25
aI7
aI15
aI9
aI7
aI9
aI3
aI9
aI9
aI13
aI25
aI12
aI25
aI25
aI10
aI25
aI3
aI3
aI4
aI4
aI9
aI15
aI15
aI3
aI4
aI15
aI25
aI9
aI7
aI7
aI10
aI10
aI4
aI4
aI7
aI3
aI4
aI4
aI7
aI7
aI25
aI7
aI7
aI15
aI15
aI3
aI7
aI9
aI9
aI9
aI9
aI4
aI3
aI25
aI25
aI3
aI25
aI25
aI15
aI4
aI7
aI3
aa(lp93
I1
aI26
aI1
aI26
aI8
aI26
aI26
aI4
aI26
aI1
aI4
aI1
aI16
aI1
aI26
aI3
aI3
aI1
aI26
aI1
aI26
aI4
aI26
aI1
aI26
aI13
aI26
aI4
aI1
aI1
aI1
aI4
aI4
aI4
aI4
aI1
aI26
aI4
aI4
aI4
aI4
aI1
aI3
aI4
aI4
aI4
aI26
aI1
aI1
aa(lp94
I16
aI24
aI24
aI4
aI3
aI4
aI4
aI4
aI3
aI3
aI16
aI9
aI4
aI24
aI3
aI25
aI16
aI16
aI24
aI24
aI24
aI3
aI4
aI3
aI25
aI16
aI16
aI3
aI4
aI16
aI16
aI24
aI25
aI14
aI3
aI14
aI4
aI9
aI6
aI4
aI4
aI4
aI4
aI3
aI24
aI16
aI4
aI4
aI2
aI4
aI6
aI3
aI3
aI24
aI3
aI24
aI24
aI4
aI2
aI3
aI16
aI16
aI24
aI24
aI25
aI6
aI24
aa(lp95
I1
aI2
aI6
aI6
aI1
aI1
aI17
aI17
aI25
aI25
aI1
aI6
aI17
aI6
aI21
aI6
aI6
aI3
aI3
aI25
aI4
aI3
aI1
aI6
aI21
aI25
aI1
aI6
aI3
aI3
aI21
aI6
aI25
aI24
aI21
aI3
aI1
aI6
aa(lp96
I9
aI9
aI9
aI14
aI14
aI18
aI15
aI15
aI15
aI15
aI15
aI15
aI9
aI4
aI3
aI23
aI4
aI9
aI4
aI4
aI14
aI23
aI11
aI2
aI2
aI6
aI9
aI2
aI4
aI1
aI11
aI15
aI11
aI0
aI15
aI6
aI14
aI11
aI2
aI4
aI4
aI11
aI18
aI11
aI2
aI14
aI14
aI14
aI18
aI11
aI11
aI11
aI18
aI3
aI20
aI15
aI2
aI23
aI11
aI15
aI3
aI2
aI15
aI18
aI18
aI14
aI18
aI4
aI9
aI23
aI15
aI15
aI3
aI2
aI4
aI23
aI23
aI18
aI11
aI3
aI9
aI9
aI15
aI14
aI4
aI20
aI1
aI3
aI18
aI11
aI18
aI2
aI14
aI14
aI9
aI9
aI3
aI15
aI15
aI4
aI9
aI27
aI18
aI4
aI4
aI4
aI3
aI23
aI14
aI4
aI23
aI2
aI4
aI15
aI23
aI23
aI9
aI3
aI4
aI4
aI18
aI2
aI14
aI4
aI18
aI3
aI0
aI18
aI3
aI15
aI27
aI9
aI4
aI11
aI4
aI9
aI11
aI2
aI3
aI20
aI3
aI4
aI2
aI9
aI18
aI18
aI14
aI11
aI4
aI9
aI9
aI18
aI15
aI15
aI1
aI15
aI4
aI9
aa(lp97
I3
aI2
aI3
aI13
aI21
aI3
aI3
aI3
aI6
aI25
aI0
aI25
aI0
aI3
aI4
aI3
aI2
aI4
aI21
aI11
aI3
aI23
aI3
aI21
aI5
aI5
aI21
aI3
aI2
aI2
aI6
aI13
aI3
aI5
aI5
aI6
aI6
aI11
aI4
aI0
aI3
aI0
aI3
aI2
aI3
aI0
aI3
aI3
aI3
aI0
aI5
aI3
aI4
aI8
aI0
aI0
aI4
aI3
aI3
aI11
aI5
aI3
aI25
aI5
aI3
aI3
aI13
aI25
aI3
aI6
aI6
aI21
aI3
aI25
aI5
aI0
aI14
aI14
aI3
aI0
aI3
aI3
aI21
aI3
aI5
aI2
aI14
aI27
aI0
aI6
aI6
aI4
aI25
aI21
aI5
aI25
aI4
aI22
aI0
aI2
aI3
aI6
aI6
aI3
aI6
aI5
aI4
aI0
aI11
aI13
aI4
aI3
aI5
aI25
aI8
aI5
aI25
aI25
aI6
aI25
aI25
aI25
aI21
aI4
aI2
aI0
aI5
aI0
aI13
aI3
aI25
aI3
aI3
aI3
aI4
aI3
aI3
aI3
aI21
aI11
aI21
aI3
aI3
aI1
aI3
aI3
aI6
aI8
aI4
aI3
aa(lp98
I9
aI9
aI14
aI4
aI7
aI3
aI14
aI14
aI14
aI3
aI23
aI3
aI7
aI3
aI3
aI7
aI4
aI14
aI1
aI4
aI3
aI14
aI14
aI4
aI14
aI14
aI14
aI23
aI3
aI4
aa(lp99
I4
aI7
aI7
aI4
aI4
aI4
aI4
aI3
aI4
aI4
aI4
aI7
aI7
aI4
aI7
aI7
aI7
aI4
aI22
aI4
aI7
aI22
aI7
aI7
aI7
aI11
aI11
aI7
aI7
aI7
aI7
aI7
aI7
aI4
aI7
aI7
aI7
aI7
aI4
aI7
aI7
aI3
aI4
aI3
aI4
aI11
aI1
aI4
aI4
aI7
aI7
aI7
aI4
aI4
aI4
aI7
aI4
aI4
aI11
aI7
aI22
aI7
aI4
aI7
aa(lp100
I4
aI6
aI5
aI13
aI25
aI3
aI1
aI25
aI1
aI13
aI6
aI13
aI13
aI6
aI6
aI13
aI1
aI1
aI5
aI25
aI13
aI25
aI6
aI25
aI5
aI6
aI5
aI1
aI20
aI13
aI6
aI3
aI20
aI20
aI6
aI6
aI5
aI3
aI3
aI13
aI13
aI25
aI6
aI5
aI1
aI13
aI1
aI25
aI3
aI3
aI6
aI6
aI13
aI13
aI6
aI25
aI25
aI4
aa(lp101
I4
aI4
aI22
aI27
aI27
aI25
aI9
aI2
aI21
aI21
aI21
aI4
aI27
aI22
aI22
aI4
aI22
aI27
aI22
aI21
aI22
aI22
aI27
aI1
aI1
aI1
aI21
aI4
aI4
aI4
aI22
aI2
aI22
aI4
aI22
aI4
aI22
aI2
aI4
aI4
aI3
aI21
aI4
aI22
aI21
aI4
aI21
aI3
aI22
aI22
aI22
aI3
aI22
aI4
aI27
aI4
aI22
aI27
aI4
aI27
aI4
aI27
aI22
aI21
aI21
aI4
aI27
aI2
aI27
aI1
aI22
aI27
aI4
aI27
aI21
aI4
aI27
aI22
aI27
aI2
aI4
aI22
aI22
aI22
aI22
aI27
aI21
aI21
aI21
aI1
aI1
aa(lp102
I17
aI13
aI0
aI13
aI17
aI0
aI13
aI6
aI3
aI2
aI4
aI6
aI6
aI13
aI25
aI19
aI20
aI0
aI6
aI4
aI27
aI25
aI17
aI19
aI12
aI0
aI6
aI27
aI0
aI12
aI0
aI12
aI12
aI19
aI19
aI19
aI19
aI4
aI0
aI27
aI27
aI27
aI13
aI13
aI4
aI0
aI12
aI3
aI4
aI27
aI0
aI6
aI0
aI13
aI13
aI6
aI27
aI13
aI0
aI0
aI0
aI0
aI0
aI4
aI6
aI19
aI0
aI0
aI19
aI6
aI0
aI0
aI19
aI0
aI19
aI4
aI19
aI0
aI25
aI6
aI3
aI3
aI13
aI13
aI0
aI13
aI15
aI19
aI19
aI19
aI19
aI3
aI13
aI4
aI6
aI4
aI19
aI19
aI20
aI19
aa(lp103
I5
aI4
aI3
aI3
aI3
aI3
aI3
aI3
aI3
aI5
aI3
aI5
aI5
aI4
aI3
aI5
aI3
aI3
aI5
aI3
aI3
aI3
aI3
aI3
aI4
aI3
aI5
aa(lp104
I4
aI20
aI3
aI6
aI12
aI4
aI4
aI22
aI2
aI2
aI12
aI12
aI12
aI10
aI10
aI12
aI4
aI10
aI20
aI12
aI4
aI4
aI4
aa(lp105
I3
aI26
aI4
aI4
aI26
aI3
aI2
aI4
aI2
aI4
aI2
aI4
aI4
aI4
aI12
aI6
aI0
aI4
aI23
aI3
aI23
aI23
aI4
aI3
aI4
aI3
aI4
aI6
aI4
aI2
aI12
aI12
aI12
aI12
aI26
aI6
aI12
aI26
aI12
aI12
aI12
aI12
aI12
aI26
aI26
aI12
aI12
aI12
aI12
aI4
aI12
aI12
aI12
aI26
aI26
aI12
aI12
aI26
aI12
aI12
aI12
aI12
aI12
aI26
aI26
aI3
aI3
aI10
aI3
aI4
aI0
aI0
aI2
aI10
aI2
aI2
aI2
aI2
aI6
aI12
aI6
aI12
aI2
aI3
aI3
aI0
aI0
aI4
aI3
aI3
aI4
aI3
aI4
aI4
aI10
aI10
aI3
aI12
aI10
aI3
aI3
aI3
aI26
aI0
aI3
aI12
aI26
aI4
aI4
aI12
aI12
aa(lp106
I3
aI14
aI14
aI14
aI14
aI3
aI7
aI4
aI26
aI26
aI3
aI26
aI25
aI5
aI3
aI25
aI25
aI16
aI7
aI4
aI4
aI3
aI3
aI4
aI4
aI25
aI25
aI26
aI25
aI3
aI7
aI26
aI4
aI3
aI4
aI3
aI3
aI4
aI26
aI3
aI26
aI26
aI7
aI4
aI7
aI7
aI4
aI14
aI4
aI7
aI4
aI4
aI6
aI5
aI4
aI5
aI7
aI26
aI25
aI26
aI7
aI16
aI3
aI5
aI26
aI26
aI26
aI26
aI3
aI7
aI3
aa(lp107
I3
aI3
aI4
aI25
aI4
aI6
aI2
aI3
aI2
aI2
aI3
aI9
aI3
aI8
aI4
aI25
aI3
aI4
aI25
aI4
aI3
aI18
aI6
aI18
aI4
aI4
aI4
aI4
aI4
aI3
aI18
aI25
aa(lp108
I11
aI6
aI26
aI26
aI7
aI2
aI2
aI4
aI11
aI4
aI23
aI2
aI4
aI3
aI4
aI4
aI3
aI26
aI2
aI6
aI2
aI26
aI26
aI0
aI0
aI20
aI6
aI6
aI23
aI2
aI26
aI3
aI3
aI2
aI7
aI4
aI6
aI4
aI0
aI2
aI26
aI4
aI26
aI20
aI2
aa(lp109
I3
aI3
aI3
aI7
aI3
aI22
aI22
aI22
aI4
aI22
aI22
aI3
aI3
aI3
aI3
aI5
aI5
aI3
aI3
aI5
aI21
aI22
aI22
aI4
aI3
aI22
aI22
aI22
aI22
aI6
aI6
aI3
aI6
aI3
aI3
aI22
aI22
aI3
aI0
aI18
aI22
aI22
aI3
aI22
aI3
aI22
aI4
aI3
aI18
aI3
aI22
aI22
aI3
aI3
aI3
aI5
aI2
aI0
aI5
aI22
aI22
aI22
aI22
aI22
aI3
aI18
aI22
aI22
aI22
aI4
aI6
aI22
aI18
aa(lp110
I3
aI25
aI15
aI15
aI4
aI2
aI4
aI4
aI11
aI3
aI6
aI4
aI11
aI26
aI4
aI25
aI25
aI4
aI4
aI4
aI4
aI4
aI7
aI7
aa(lp111
I6
aI2
aI2
aI1
aI2
aI23
aI3
aI2
aI5
aI4
aI4
aI5
aI6
aI4
aI4
aI3
aI2
aI1
aI4
aI4
aI4
aI4
aI5
aI5
aI3
aI3
aI3
aI3
aI4
aI6
aI3
aI3
aI3
aI6
aI1
aI12
aI12
aI12
aI2
aI4
aI2
aI8
aI9
aI9
aI5
aI2
aI5
aI4
aI3
aI5
aI12
aI12
aI5
aI6
aI5
aI3
aI9
aI3
aI2
aI4
aI4
aI4
aI5
aI5
aI1
aI4
aI5
aI2
aI4
aI4
aI6
aI6
aI9
aI2
aI3
aI8
aI12
aI3
aI2
aI4
aI14
aI14
aI2
aI14
aI4
aI4
aI3
aI2
aI1
aI1
aI5
aI5
aI1
aI9
aI2
aI4
aI1
aI5
aI4
aI5
aI5
aI5
aI8
aI5
aI5
aI5
aI6
aI6
aa(lp112
I4
aI3
aI4
aI4
aI17
aI1
aI25
aI25
aI25
aI25
aI17
aI4
aI3
aI12
aI12
aI1
aI12
aI2
aI17
aI3
aI3
aI2
aI3
aI17
aI17
aI17
aI3
aI14
aI17
aI17
aI2
aI17
aI25
aI3
aI17
aI17
aI17
aI17
aI25
aI1
aI25
aI17
aI25
aI1
aI25
aI25
aI25
aI17
aI1
aI4
aI4
aI2
aI2
aI9
aI4
aI2
aI4
aI4
aI2
aI4
aI17
aI25
aI1
aI4
aI1
aI17
aI3
aI2
aI17
aI3
aI17
aI18
aI17
aI4
aI4
aI4
aI25
aI2
aI25
aI1
aI25
aI6
aI12
aI6
aI25
aI25
aI12
aI17
aa(lp113
I1
aI24
aI18
aI8
aI26
aI3
aI18
aI3
aI1
aI1
aI1
aI1
aI1
aI4
aI21
aI8
aI4
aI22
aI8
aI8
aI22
aI22
aI3
aI6
aI3
aI3
aI8
aI18
aI8
aI26
aI1
aI6
aI1
aI6
aI3
aI8
aI6
aI6
aI3
aI6
aI1
aI1
aI26
aI21
aI22
aI1
aI1
aI6
aI6
aI1
aI1
aI8
aI26
aI8
aI22
aI22
aa(lp114
I18
aI20
aI2
aI20
aI2
aI7
aI7
aI20
aI1
aI5
aI20
aI2
aI7
aI3
aI19
aI19
aI19
aI3
aI3
aI20
aI18
aI2
aI20
aI4
aI4
aI2
aI20
aI23
aI3
aI7
aI18
aI4
aI18
aI3
aa(lp115
I7
aI7
aI1
aI16
aI6
aI7
aI25
aI7
aI25
aI6
aI3
aI6
aI25
aI13
aI4
aI7
aI7
aI7
aI1
aI3
aI1
aI3
aI3
aI3
aI3
aI1
aI1
aI6
aI7
aI6
aI6
aI2
aI3
aI3
aI7
aI6
aI3
aI3
aI6
aI3
aI10
aI3
aI3
aI10
aI27
aI25
aI10
aI6
aI27
aI1
aI6
aI2
aI3
aI25
aI6
aI6
aI4
aI7
aI3
aI4
aI3
aI7
aI7
aI3
aI3
aI7
aI27
aI6
aI6
aI13
aI25
aI27
aI7
aI25
aI1
aI16
aI25
aI25
aI3
aI3
aI25
aI6
aI7
aa(lp116
I24
aI2
aI3
aI24
aI3
aI3
aI4
aI4
aI3
aI4
aI4
aI4
aI3
aI24
aI4
aI5
aI3
aI3
aI3
aI5
aI3
aa(lp117
I4
aI3
aI4
aI23
aI26
aI6
aI20
aI4
aI26
aI4
aI4
aI3
aI3
aI26
aI23
aI3
aI4
aI6
aI26
aI6
aI4
aI4
aI11
aI26
aI6
aI6
aI6
aI4
aI11
aI6
aI0
aI6
aI6
aI4
aI26
aI6
aI6
aI6
aI4
aI6
aI6
aI3
aI3
aI6
aI0
aI23
aI6
aI6
aI4
aI4
aI20
aI6
aI26
aI21
aI3
aI4
aI3
aI4
aI3
aI4
aI4
aI3
aI4
aI23
aI26
aI3
aI23
aI3
aa(lp118
I24
aI3
aI2
aI17
aI0
aI24
aI6
aI20
aI3
aI17
aI6
aI0
aI20
aI24
aI5
aI2
aI24
aI5
aI5
aI3
aI0
aI5
aI3
aI6
aI3
aI3
aI3
aI3
aI4
aI3
aI24
aI5
aI4
aI24
aI5
aI20
aI3
aI20
aI3
aI5
aI17
aI3
aI3
aa(lp119
I25
aI5
aI5
aI15
aI6
aI25
aI15
aI6
aI3
aI3
aI3
aI5
aI3
aI15
aI15
aI3
aI5
aI3
aI5
aI26
aI3
aI6
aI15
aI14
aI15
aI3
aI5
aI26
aI5
aI5
aI14
aI3
aI3
aI5
aI6
aI5
aI15
aI15
aI16
aI4
aI5
aI5
aI5
aI3
aI5
aI22
aI15
aI15
aI5
aI5
aI5
aI5
aI5
aI5
aI6
aI5
aI3
aI5
aI3
aI22
aI6
aI3
aI5
aI5
aI5
aI5
aI16
aI15
aI3
aI5
aI14
aI6
aI5
aI15
aI2
aI5
aI20
aI14
aI6
aI25
aI3
aI5
aI6
aI6
aI3
aI5
aI3
aI5
aI5
aI6
aI16
aI3
aI26
aI15
aI15
aI5
aI5
aI15
aI5
aI3
aI6
aI5
aI3
aI5
aI14
aI5
aI5
aa(lp120
I15
aI21
aI3
aI21
aI3
aI21
aI21
aI21
aI6
aI6
aI1
aI21
aI22
aI5
aI5
aI21
aI1
aI15
aI15
aI10
aI1
aI15
aI15
aI10
aI15
aI21
aI21
aI3
aI3
aI3
aI3
aI15
aI10
aI4
aI21
aI21
aI3
aI3
aI3
aI3
aI3
aI5
aI3
aI21
aI5
aI5
aI21
aI3
aI3
aI15
aI5
aI7
aI4
aI21
aI2
aI15
aI15
aI5
aI3
aI22
aI21
aI21
aI3
aI21
aI21
aI7
aI2
aI3
aI10
aI21
aI7
aI10
aI3
aI10
aI4
aI7
aI4
aI21
aI7
aI21
aI15
aI10
aI15
aI21
aI10
aI15
aI15
aI7
aI10
aI21
aI21
aa(lp121
I1
aI6
aI6
aI1
aI1
aI3
aI1
aI6
aI1
aI2
aI1
aI1
aI2
aI6
aI25
aI1
aI6
aI6
aI23
aI2
aI3
aI23
aa(lp122
I24
aI23
aI4
aI4
aI6
aI6
aI6
aI6
aI6
aI4
aI6
aI3
aI4
aI8
aI6
aI3
aI4
aI4
aI3
aI9
aI0
aI4
aI4
aI4
aI3
aI3
aI4
aI4
aI6
aI0
aI4
aI22
aI4
aI4
aI4
aI8
aI0
aI3
aI3
aI4
aI0
aI4
aI4
aI0
aI8
aI4
aI3
aI4
aI0
aI4
aI3
aI2
aI6
aI6
aI6
aI3
aI13
aI4
aI9
aI4
aa(lp123
I5
aI5
aI22
aI5
aI13
aI13
aI0
aI3
aI5
aI5
aI4
aI6
aI0
aI0
aI5
aI13
aI5
aI8
aI13
aI8
aI21
aI3
aI3
aI3
aI21
aI5
aI0
aI22
aI13
aI4
aI8
aI8
aI8
aI0
aI23
aI8
aI8
aI4
aI13
aI23
aI5
aI5
aI5
aI6
aI22
aI6
aI8
aI21
aI5
aI5
aI8
aI8
aI8
aI21
aa(lp124
I3
aI4
aI2
aI27
aI0
aI27
aI7
aI3
aI2
aI0
aI10
aI10
aI2
aI10
aI27
aI27
aI4
aI4
aI0
aI4
aI4
aI10
aI10
aI10
aI4
aI4
aI2
aI7
aI0
aI3
aI0
aI3
aI27
aI21
aI27
aI10
aI10
aI21
aI3
aI3
aI4
aI26
aI7
aI4
aI27
aI27
aI27
aI27
aI27
aI0
aI0
aI27
aI27
aI27
aI3
aI3
aI3
aI27
aI26
aI27
aI27
aI0
aI4
aI10
aI7
aI10
aI27
aI0
aI27
aI0
aI27
aI27
aI10
aI8
aI26
aI21
aa(lp125
I6
aI7
aI6
aI6
aI1
aI20
aI1
aI7
aI7
aI7
aI21
aI7
aI2
aI7
aI24
aI6
aI6
aI20
aI7
aI7
aI6
aI7
aI6
aI6
aI6
aI6
aa(lp126
I3
aI3
aI3
aI15
aI2
aI10
aI17
aI3
aI3
aI3
aI23
aI3
aI3
aI3
aI4
aI3
aI3
aI4
aI10
aI17
aI3
aI10
aI23
aI3
aI4
aI4
aI3
aI3
aI4
aI3
aI4
aa(lp127
I6
aI0
aI6
aI5
aI5
aI22
aI17
aI6
aI6
aI22
aI3
aI0
aI0
aI22
aI5
aI17
aI0
aI6
aI18
aI5
aI22
aI0
aI0
aI22
aI6
aI6
aI3
aI3
aI0
aI0
aI6
aI0
aI6
aI22
aI3
aI3
aI3
aI0
aI0
aa(lp128
I6
aI6
aI4
aI6
aI10
aI11
aI3
aI3
aI3
aI3
aI19
aI10
aI3
aI3
aI3
aI16
aI25
aI19
aI10
aI21
aI10
aI11
aI16
aI16
aI16
aI19
aI6
aI25
aI21
aI25
aI25
aI3
aI3
aI3
aI3
aI3
aI16
aI10
aI3
aI3
aI3
aI10
aI4
aI6
aI16
aI3
aI10
aI3
aI10
aI10
aI10
aI10
aI6
aI3
aI11
aI3
aI6
aI10
aI10
aI3
aI3
aI10
aI19
aI3
aI3
aI3
aI3
aI19
aI3
aI19
aI16
aI6
aI6
aI6
aa(lp129
I7
aI4
aI7
aI4
aI4
aI11
aI27
aI16
aI16
aI7
aI16
aI3
aI4
aI27
aI7
aI16
aI16
aI11
aI11
aI16
aI3
aI11
aI4
aI27
aI4
aI7
aI7
aI4
aI11
aI11
aI27
aI11
aI11
aI11
aI6
aI17
aI4
aI7
aI3
aI4
aI6
aI16
aI11
aI11
aI6
aa(lp130
I6
aI6
aI4
aI7
aI6
aI5
aI4
aI4
aI7
aI5
aI4
aI5
aI4
aI2
aI6
aI7
aI7
aa(lp131
I26
aI16
aI14
aI26
aI3
aI3
aI26
aI3
aI16
aI19
aI19
aI16
aI19
aI19
aI21
aI3
aI3
aI3
aI14
aI3
aI0
aI0
aI0
aI6
aI3
aa(lp132
I3
aI3
aI1
aI1
aI1
aI1
aI3
aI3
aI1
aI1
aI6
aI3
aI1
aI4
aI6
aI4
aI3
aI4
aI4
aI1
aI4
aI9
aI4
aI2
aI2
aI3
aI3
aI3
aI3
aI1
aI3
aI4
aI9
aI3
aI3
aI3
aI1
aI3
aI9
aI3
aI1
aI2
aI4
aI1
aI2
aI1
aI10
aI3
aI1
aI3
aI3
aI3
aI3
aI1
aI1
aI1
aI9
aI1
aI1
aI3
aI4
aI3
aI9
aI9
aI9
aI3
aI3
aI3
aI3
aI3
aI3
aI3
aI3
aI3
aI3
aI9
aI1
aI9
aI9
aI1
aI3
aI1
aI3
aI3
aI1
aI1
aI3
aI3
aI3
aa(lp133
I1
aI1
aI1
aI6
aI6
aI6
aI23
aI3
aI6
aI23
aI6
aI23
aI19
aI6
aI3
aI21
aI6
aI1
aI1
aI6
aI1
aI6
aI6
aI1
aI23
aI1
aI23
aI6
aI3
aI23
aI23
aI6
aI23
aI6
aI3
aI6
aI23
aI1
aa(lp134
I7
aI21
aI12
aI12
aI12
aI1
aI1
aI7
aI12
aI12
aI12
aI4
aI4
aI3
aI4
aI21
aI4
aI2
aI2
aI14
aI2
aI14
aI3
aI4
aI4
aI3
aI4
aI1
aI14
aI4
aI12
aI2
aI2
aI12
aI21
aI14
aI4
aI2
aI21
aI21
aI21
aI27
aI27
aI2
aI21
aI2
aI21
aI2
aI21
aI2
aI3
aI2
aI6
aI4
aI4
aI14
aI4
aI6
aI6
aI6
aI2
aI1
aI2
aI3
aI2
aI3
aI6
aI3
aI6
aI2
aI3
aI2
aI2
aI3
aa(lp135
I3
aI21
aI21
aI25
aI21
aI21
aI25
aI25
aI3
aI4
aI25
aI21
aI25
aI25
aI13
aI3
aI3
aI25
aI3
aI21
aI25
aI25
aI25
aI21
aI25
aI12
aI13
aI25
aI3
aI6
aI6
aI3
aI21
aI3
aI3
aI3
aI3
aI3
aI3
aI3
aI14
aI3
aI3
aI3
aI3
aI3
aI3
aI3
aI3
aI3
aI2
aI3
aI3
aI3
aI0
aI3
aI21
aI21
aI2
aI3
aI23
aI25
aI1
aI2
aI2
aI3
aI3
aI12
aI2
aI25
aI3
aI25
aI25
aI21
aI25
aI1
aI3
aI21
aI3
aI24
aI1
aI3
aa(lp136
I3
aI22
aI7
aI2
aI22
aI2
aI2
aI4
aI3
aI2
aI2
aI20
aI4
aI2
aI2
aI2
aI4
aI4
aI2
aI2
aI2
aI3
aI3
aI22
aI22
aI22
aI2
aI3
aI4
aI22
aI3
aI7
aI2
aI2
aI3
aI7
aa(lp137
I8
aI8
aI6
aI5
aI8
aI6
aI4
aI8
aI5
aI26
aI7
aI8
aI6
aI3
aI4
aI4
aI19
aI5
aI6
aI6
aI6
aI3
aI10
aI4
aI4
aI3
aI8
aI7
aI8
aI8
aI6
aI8
aI6
aI6
aI6
aI6
aa(lp138
I24
aI5
aI24
aI3
aI4
aI4
aI24
aI24
aI3
aI24
aI3
aI3
aI24
aI24
aI3
aI24
aI3
aI3
aI24
aI3
aI24
aI24
aI3
aI3
aI24
aI4
aa(lp139
I9
aI2
aI3
aI4
aI21
aI1
aI4
aI1
aI21
aI3
aI2
aI1
aI8
aI3
aI1
aI21
aI8
aI8
aI8
aI9
aI1
aI1
aI4
aI4
aI1
aI1
aI1
aI4
aI3
aI19
aI3
aI1
aI4
aI3
aI21
aI1
aI3
aI2
aI2
aI3
aI3
aI3
aI3
aa(lp140
I4
aI4
aI4
aI3
aI4
aI0
aI0
aI21
aI3
aI3
aI3
aI27
aI10
aI0
aI3
aI2
aI23
aI0
aI27
aI27
aI27
aI23
aI23
aI27
aI27
aI27
aI27
aI0
aI2
aI16
aI3
aI3
aI21
aI0
aI0
aI21
aI3
aI21
aI3
aI2
aI23
aI10
aI2
aI2
aI2
aI10
aI0
aI21
aI2
aI3
aI3
aI0
aI2
aI10
aI18
aI4
aI2
aI12
aI12
aI0
aI23
aI21
aI7
aI3
aI7
aI23
aI27
aI12
aI3
aI3
aI3
aI2
aI3
aI3
aI23
aI2
aI2
aI3
aI2
aI3
aI0
aI3
aI0
aI10
aI21
aI3
aI21
aI3
aI21
aI21
aI21
aI2
aI3
aI10
aI3
aI4
aa(lp141
I6
aI26
aI22
aI22
aI2
aI3
aI3
aI2
aI22
aI26
aI3
aI26
aI2
aI14
aI3
aI14
aI3
aI14
aI14
aI6
aI26
aI26
aI3
aI6
aI6
aI6
aI4
aI26
aI6
aI11
aI26
aI2
aI5
aI22
aI26
aI26
aI5
aI26
aI22
aI22
aI3
aI2
aI3
aI22
aI26
aI22
aI3
aI5
aI26
aI24
aI3
aI6
aI5
aI6
aI22
aI22
aI3
aI27
aI4
aI22
aI6
aI22
aI3
aI3
aI3
aI2
aI3
aI3
aI3
aI5
aI22
aI3
aI6
aI3
aI3
aI3
aI3
aI2
aI2
aI3
aI4
aI3
aI22
aI26
aI3
aI5
aI4
aa(lp142
I6
aI6
aI6
aI6
aI11
aI11
aI1
aI6
aI6
aI11
aI4
aI11
aI11
aI11
aI3
aI12
aI1
aI11
aI12
aI4
aI3
aI6
aI6
aI6
aI19
aI3
aI3
aI1
aI11
aI1
aI6
aI3
aI19
aI1
aI8
aI6
aI11
aI12
aI3
aI6
aI11
aI6
aI6
aI11
aI4
aI11
aI3
aI12
aI12
aI12
aI12
aI6
aI12
aI6
aI3
aI19
aI6
aI19
aI6
aI3
aI15
aI1
aI11
aI15
aI4
aI1
aI6
aI11
aI6
aI1
aI2
aI1
aI3
aI6
aI6
aI11
aI6
aI1
aI1
aI1
aI1
aI1
aI11
aI6
aI11
aI15
aI1
aI2
aI6
aI6
aI6
aI6
aI6
aI6
aI6
aI11
aI4
aI3
aI3
aI11
aI11
aI1
aI6
aI12
aa(lp143
I11
aI4
aI25
aI11
aI8
aI8
aI0
aI6
aI0
aI6
aI25
aI0
aI0
aI0
aI8
aI0
aI11
aI8
aI8
aI8
aI11
aI25
aI25
aI3
aI11
aI11
aI3
aI6
aI6
aI6
aI25
aI3
aI3
aI25
aI25
aI25
aI8
aI8
aI8
aI8
aI3
aI3
aI11
aI25
aI8
aI11
aI8
aI25
aI8
aI8
aI6
aI4
aI6
aI8
aI6
aI6
aI6
aI8
aI4
aI4
aI25
aI3
aI3
aI3
aa.