(lp0
(lp1
I160
aI160
aI70
aI139
aI70
aI152
aI160
aI152
aI182
aI122
aI91
aI91
aI91
aI41
aI62
aI91
aI122
aI122
aI122
aI122
aI122
aI122
aI122
aI122
aI120
aI122
aI70
aI91
aI152
aI91
aI112
aI91
aI160
aI160
aI160
aI160
aI91
aI64
aI91
aI23
aI110
aI91
aI157
aI149
aI9
aI70
aI160
aI160
aI160
aI160
aI80
aI122
aI122
aI104
aI160
aI181
aI9
aa(lp2
I23
aI98
aI23
aI120
aI23
aI94
aI120
aI91
aI152
aI101
aI101
aI160
aI91
aI8
aI152
aI121
aI95
aI104
aI80
aI170
aI152
aI110
aI112
aI167
aI98
aI18
aI170
aI112
aI33
aI33
aI152
aI181
aI111
aI70
aI152
aI70
aI152
aI70
aI152
aI121
aI48
aI48
aI48
aI48
aa(lp3
I61
aI94
aI91
aI17
aI80
aI61
aI16
aI120
aI122
aI91
aI152
aI110
aI104
aI104
aI70
aI104
aI80
aI80
aI91
aI61
aI8
aI61
aI91
aI91
aI152
aI23
aI152
aI152
aI98
aI112
aa(lp4
I70
aI91
aI55
aI112
aI122
aI182
aI112
aI112
aI160
aI48
aI8
aI60
aI33
aI91
aI8
aI60
aI91
aI8
aI50
aI91
aI112
aI160
aI62
aI91
aI104
aI181
aI91
aI94
aI55
aI91
aI91
aI91
aI91
aI152
aI112
aI55
aI112
aI62
aI62
aI120
aI62
aI91
aI19
aI19
aI19
aI13
aI23
aI55
aI23
aI91
aI120
aI91
aI64
aI62
aI64
aI62
aI91
aI50
aI62
aI91
aI160
aI55
aI91
aI48
aI120
aI62
aI8
aI55
aI55
aI91
aI91
aI91
aI18
aI91
aI120
aI152
aI55
aI91
aI91
aI55
aI55
aI120
aI23
aI62
aI120
aI62
aI110
aI80
aI153
aI91
aI91
aI13
aI112
aI122
aI62
aI132
aI62
aI91
aI15
aI152
aI55
aI180
aI55
aI91
aa(lp5
I16
aI7
aI152
aI50
aI101
aI8
aI91
aI104
aI16
aI55
aI55
aI91
aI91
aI60
aI104
aI16
aI170
aI98
aI157
aI157
aI152
aI23
aI120
aI16
aI98
aI110
aI48
aI161
aI122
aI112
aI112
aI16
aI55
aI55
aI91
aI16
aI70
aI91
aI91
aI23
aI91
aI91
aI70
aI91
aI23
aI80
aI152
aI8
aI80
aI23
aI104
aI180
aI8
aI8
aI180
aI98
aa(lp6
I64
aI121
aI121
aI91
aI8
aI180
aI97
aI23
aI117
aI91
aI182
aI91
aI61
aI182
aI91
aI55
aI48
aI104
aI104
aI104
aI48
aI111
aI110
aI157
aI64
aI160
aI160
aI160
aI48
aI138
aI110
aI152
aI36
aI34
aI104
aI34
aI112
aI112
aI70
aI48
aI48
aI142
aI182
aI112
aI34
aI138
aI70
aI36
aI34
aI144
aI70
aI91
aI96
aI182
aa(lp7
I60
aI23
aI160
aI112
aI110
aI16
aI112
aI16
aI91
aI91
aI91
aI120
aI144
aI112
aI91
aI91
aI91
aI110
aI91
aI91
aI91
aI178
aI112
aI82
aI91
aI80
aI111
aa(lp8
I90
aI46
aI90
aI15
aI46
aI48
aI46
aI138
aI121
aI46
aI36
aI36
aI180
aI90
aI78
aI33
aI46
aI46
aI48
aI152
aI46
aI70
aI55
aI160
aI160
aI160
aI138
aI110
aI48
aI48
aI13
aI48
aI161
aI161
aI48
aI112
aI152
aI152
aI112
aI152
aI112
aI144
aI80
aI161
aa(lp9
I33
aI70
aI152
aI160
aI91
aI122
aI91
aI163
aI104
aI33
aI104
aI90
aI91
aI91
aI58
aI55
aI60
aI139
aI91
aI121
aI91
aI80
aI61
aI120
aI48
aI138
aI48
aI91
aI91
aI146
aI117
aI160
aI170
aI160
aI160
aI160
aI138
aI146
aI91
aI69
aI110
aI23
aI121
aI182
aI91
aI91
aI8
aI120
aI48
aI48
aI91
aI48
aI69
aI91
aI55
aI91
aI170
aI152
aI152
aI91
aI91
aI112
aI152
aI152
aI139
aI146
aI120
aI35
aI70
aI69
aI70
aI35
aI91
aI95
aI94
aI94
aI48
aI48
aI91
aI91
aI163
aI149
aI91
aI120
aI120
aa(lp10
I55
aI55
aI167
aI55
aI144
aI48
aI61
aI48
aI23
aI9
aI9
aI111
aI111
aI152
aI86
aI152
aI55
aI91
aI48
aI48
aI112
aI48
aI48
aI182
aI91
aI91
aI48
aI138
aI48
aI91
aI91
aI149
aI17
aI69
aI157
aI110
aI110
aI137
aI143
aI91
aI157
aI55
aI61
aI8
aI8
aI160
aI8
aI48
aI96
aI48
aI170
aI182
aI182
aI182
aI182
aI48
aI137
aI55
aI69
aI91
aI91
aI149
aI19
aI19
aI19
aI113
aI113
aI181
aI181
aI152
aI70
aI91
aI48
aI91
aI91
aI139
aI91
aI48
aI133
aI23
aI170
aI23
aI144
aI170
aI160
aI110
aI70
aI70
aI160
aI8
aI8
aI8
aI180
aI149
aI8
aI8
aa(lp11
I180
aI61
aI48
aI94
aI110
aI110
aI152
aI21
aI144
aI61
aI61
aI152
aI152
aI61
aI94
aI53
aI180
aI182
aI152
aI152
aa(lp12
I144
aI112
aI71
aI48
aI48
aI112
aI91
aI152
aI121
aI80
aI152
aI182
aI137
aI157
aI157
aI157
aI17
aI152
aI161
aI48
aI152
aI112
aI48
aI112
aI80
aI112
aI180
aI136
aI91
aI48
aI48
aI160
aI110
aI110
aI91
aI91
aI91
aI26
aI110
aI121
aI121
aI152
aI91
aI112
aI48
aI112
aI112
aI91
aI91
aI144
aI152
aI161
aI161
aI112
aI112
aI58
aI121
aI161
aI112
aI153
aI80
aI83
aa(lp13
I8
aI91
aI8
aI69
aI8
aI48
aI110
aI8
aI91
aI180
aI149
aI34
aI110
aI182
aI19
aI110
aI180
aI180
aI48
aI152
aI48
aI48
aI111
aI91
aI55
aI160
aI144
aI70
aI117
aI48
aI160
aI152
aI182
aI121
aI121
aI144
aI110
aI91
aI180
aI19
aI19
aI19
aI18
aI112
aI70
aI90
aI90
aI152
aI152
aI6
aI137
aI6
aI122
aI91
aI34
aI91
aI90
aI91
aI152
aI152
aI110
aI110
aI180
aI111
aI111
aI48
aI70
aI152
aI70
aI34
aI70
aI91
aI91
aI122
aI70
aI160
aI80
aI80
aI113
aI91
aI91
aI152
aa(lp14
I182
aI91
aI91
aI69
aI71
aI160
aI23
aI33
aI64
aI23
aI23
aI112
aI110
aI170
aI19
aI19
aI19
aI19
aI19
aI19
aI91
aI91
aI137
aI137
aI33
aI152
aI112
aI48
aI110
aI157
aI91
aI94
aI153
aI80
aI69
aI137
aI69
aI137
aI19
aI19
aI19
aI181
aI109
aI152
aI33
aI152
aI91
aI33
aI10
aI120
aI10
aa(lp15
I70
aI91
aI91
aI91
aI170
aI146
aI70
aI60
aI91
aI94
aI78
aI17
aI33
aI91
aI91
aI91
aI94
aI23
aI61
aI98
aI98
aI160
aI91
aI33
aI33
aI48
aI91
aI120
aI94
aI152
aI149
aI91
aI69
aI69
aI91
aI80
aI54
aI112
aI25
aI110
aI91
aI182
aI182
aI182
aa(lp16
I91
aI48
aI48
aI48
aI16
aI78
aI43
aI23
aI91
aI80
aI117
aI8
aI110
aI91
aI91
aI80
aI104
aI121
aI104
aI91
aI70
aI120
aI91
aI91
aI91
aI91
aI43
aI91
aI91
aI91
aI91
aI91
aa(lp17
I91
aI91
aI152
aI120
aI152
aI152
aI7
aI91
aI91
aI91
aI90
aI120
aI120
aI120
aI80
aI91
aI91
aI91
aI23
aI6
aI138
aI98
aI91
aI98
aI94
aI120
aI8
aI110
aI112
aI91
aI111
aI8
aI8
aI120
aI91
aa(lp18
I55
aI28
aI149
aI98
aI91
aI112
aI110
aI91
aI137
aI97
aI80
aI55
aI170
aI16
aI16
aI97
aI16
aI90
aI91
aI111
aI16
aI80
aI21
aI36
aI36
aI36
aI137
aI36
aI2
aI117
aI138
aI91
aI50
aI152
aI91
aI8
aI138
aI25
aI91
aI18
aI121
aI91
aI104
aI19
aI104
aI104
aI111
aI137
aI180
aI91
aI48
aI91
aa(lp19
I160
aI120
aI112
aI113
aI112
aI160
aI110
aI112
aI112
aI120
aI120
aI80
aI55
aI120
aI77
aI98
aI98
aI112
aI2
aI152
aI110
aI112
aI112
aI112
aI157
aI19
aI91
aI19
aI19
aI19
aI162
aI91
aI112
aI23
aI69
aI23
aI18
aI125
aI48
aI80
aI91
aI120
aI55
aI91
aI120
aI120
aI120
aI152
aI162
aI19
aI19
aI8
aI152
aI18
aI62
aI152
aI70
aI160
aI91
aI77
aI91
aI91
aI120
aI120
aI91
aI8
aI91
aI152
aI152
aa(lp20
I91
aI91
aI91
aI122
aI91
aI91
aI122
aI122
aI157
aI91
aI16
aI91
aI16
aI149
aI91
aI104
aI157
aI152
aI62
aI91
aI181
aI152
aI170
aI143
aI143
aI178
aI50
aI16
aI16
aI19
aI19
aI138
aI91
aI55
aI122
aI19
aI94
aI91
aI60
aI22
aI18
aI91
aI146
aI170
aI152
aI110
aI169
aI104
aI122
aI134
aI44
aI80
aI55
aI16
aI91
aI50
aI117
aI50
aI50
aI122
aI149
aI62
aI62
aI139
aI69
aI55
aI91
aI23
aI143
aI157
aI91
aI160
aI157
aI160
aI55
aI120
aI120
aI143
aI143
aI137
aI120
aI91
aI182
aa(lp21
I34
aI95
aI182
aI34
aI34
aI91
aI70
aI6
aI6
aI77
aI149
aI124
aI161
aI152
aI152
aI24
aI55
aI152
aI152
aI133
aI91
aI13
aI34
aI181
aI23
aI77
aI34
aI33
aI33
aI161
aI137
aI95
aI95
aI91
aI95
aI34
aI44
aI91
aI8
aI152
aI120
aI8
aI110
aI25
aI34
aI91
aI34
aI91
aI33
aI182
aI182
aI91
aI55
aI34
aI174
aI174
aI34
aI80
aI55
aI104
aI91
aI91
aI33
aI70
aI34
aI110
aI91
aI34
aI48
aI48
aI48
aI91
aI91
aI139
aI91
aI180
aI8
aI182
aa(lp22
I91
aI110
aI152
aI70
aI6
aI46
aI138
aI182
aI152
aI149
aI55
aI142
aI122
aI12
aI55
aI113
aI91
aI104
aI104
aI70
aI137
aI182
aI91
aI104
aI149
aI149
aI91
aI149
aI149
aI149
aI16
aI120
aI48
aI181
aI94
aI94
aI48
aI73
aI61
aI94
aI16
aI94
aI16
aI80
aI94
aI91
aI120
aI110
aI120
aI91
aI91
aI157
aI91
aI34
aI142
aI17
aI16
aI104
aI34
aI104
aI104
aI94
aI149
aI149
aI70
aI34
aI60
aI2
aI153
aI120
aI34
aI91
aI55
aI120
aI91
aI7
aI120
aI15
aI120
aI23
aI170
aI170
aI120
aI103
aI120
aI120
aI103
aI48
aI142
aI34
aI34
aI34
aI91
aI91
aI181
aI104
aI70
aI70
aI112
aI91
aI60
aI7
aI112
aI170
aI48
aI48
aI69
aI64
aI48
aI142
aI70
aI91
aI91
aI16
aI91
aI91
aI181
aI16
aI16
aI16
aI152
aI55
aI152
aa(lp23
I91
aI144
aI112
aI160
aI48
aI104
aI8
aI117
aI157
aI149
aI149
aI152
aI112
aI152
aI152
aI104
aI111
aI111
aI55
aI157
aI157
aI157
aI144
aI33
aI104
aI104
aI160
aI48
aI91
aI157
aI139
aI21
aI137
aI137
aI142
aI13
aI111
aI17
aI160
aI8
aI8
aI91
aI8
aI180
aI17
aI112
aI19
aI152
aI91
aI152
aI70
aI48
aI70
aI48
aI157
aI104
aI127
aI104
aI104
aI110
aI157
aI160
aI160
aI157
aI157
aI104
aI104
aI91
aI91
aI91
aI91
aI120
aa(lp24
I71
aI8
aI91
aI80
aI91
aI91
aI48
aI91
aI91
aI91
aI180
aI91
aI91
aI91
aI91
aI91
aI55
aI91
aI8
aI8
aI91
aI91
aI91
aI80
aI91
aI91
aI60
aI110
aI91
aI91
aI91
aI91
aI91
aI91
aI91
aI91
aI91
aI91
aI23
aI170
aI8
aI160
aI8
aI8
aI8
aI91
aI91
aI80
aI80
aI144
aI144
aI91
aI91
aa(lp25
I104
aI104
aI152
aI152
aI7
aI138
aI111
aI110
aI91
aI122
aI115
aI94
aI7
aI60
aI142
aI48
aI104
aI91
aI7
aI60
aI48
aI7
aI152
aI48
aI94
aI7
aI111
aI111
aI91
aI111
aI144
aI144
aI144
aI17
aI17
aI104
aI104
aI104
aI180
aI120
aI170
aI124
aI71
aI91
aI115
aI110
aI60
aI91
aI22
aI86
aI60
aI182
aI86
aI56
aI7
aI61
aI61
aI48
aI62
aI71
aI48
aI48
aI48
aI48
aI86
aI94
aI91
aI144
aI144
aI95
aI62
aI91
aa(lp26
I71
aI71
aI48
aI161
aI104
aI104
aI60
aI91
aI91
aI90
aI80
aI21
aI110
aI94
aI104
aI71
aI172
aI157
aI55
aI182
aI182
aI91
aI60
aI120
aI144
aI60
aI121
aI111
aI69
aI48
aI10
aI182
aI71
aI71
aI23
aI144
aI94
aI71
aI91
aI91
aI120
aI77
aI69
aa(lp27
I69
aI69
aI152
aI120
aI91
aI64
aI91
aI94
aI149
aI112
aI149
aI91
aI91
aI91
aI91
aI112
aI95
aI6
aI95
aI95
aI144
aI152
aI91
aI91
aI139
aI91
aI91
aI62
aI104
aI104
aI138
aI91
aI91
aI91
aI91
aI104
aI13
aI43
aI43
aI104
aI43
aI120
aI121
aI56
aI55
aI70
aI91
aI91
aI91
aI64
aI110
aI16
aI91
aI91
aI91
aI149
aI91
aI112
aI104
aI90
aI138
aI112
aI48
aI91
aI48
aI16
aI97
aI91
aI43
aI142
aI43
aI17
aI62
aI25
aI62
aI91
aI52
aI157
aI91
aI91
aI43
aI112
aI138
aI91
aI91
aI60
aI104
aI91
aI149
aI91
aI152
aI157
aI157
aI19
aI19
aI19
aI12
aI70
aI152
aI48
aI120
aI64
aI6
aI91
aI157
aI69
aI69
aa(lp28
I70
aI70
aI6
aI6
aI70
aI35
aI70
aI152
aI181
aI48
aI48
aI62
aI62
aI48
aI71
aI152
aI16
aI111
aI62
aI62
aI62
aI62
aI70
aI70
aI125
aI70
aI16
aI35
aI110
aI18
aI138
aI64
aI91
aI70
aI33
aI70
aI152
aI70
aI70
aI70
aI180
aI6
aI70
aI58
aI70
aI152
aI70
aI70
aI70
aI127
aI48
aI48
aI104
aI23
aI152
aI16
aI16
aI70
aI70
aI62
aI112
aI152
aI8
aI121
aI95
aI54
aI91
aI29
aI58
aI134
aI152
aI70
aI70
aI70
aI70
aI91
aI91
aI48
aI144
aI91
aI70
aI16
aI62
aI58
aI70
aI55
aI53
aI91
aI70
aI48
aI35
aI48
aI8
aa(lp29
I91
aI13
aI120
aI12
aI157
aI110
aI104
aI120
aI91
aa(lp30
I91
aI9
aI138
aI62
aI36
aI120
aI17
aI91
aI16
aI8
aI91
aI122
aI122
aI122
aI16
aI91
aI104
aI33
aI58
aI117
aI117
aI182
aI120
aI62
aI8
aI117
aI80
aI117
aI170
aI122
aI91
aI91
aI152
aI152
aI152
aI80
aI91
aI91
aI112
aI112
aI110
aI117
aI117
aI104
aI24
aI143
aI122
aI91
aI110
aI120
aI182
aI182
aI182
aI182
aI182
aI182
aI120
aI120
aI120
aI91
aI23
aI152
aI17
aI104
aI70
aI36
aI112
aI23
aI152
aI112
aI55
aI139
aI138
aI120
aI120
aI120
aI24
aI112
aI120
aI91
aI104
aI159
aI61
aI61
aI61
aI112
aI152
aI120
aI58
aI110
aI91
aI159
aI159
aI159
aI139
aI62
aI120
aI117
aI138
aI7
aI152
aI149
aI152
aI120
aI91
aI91
aI120
aI149
aI91
aI9
aI120
aI120
aI120
aI120
aI91
aI91
aI157
aI91
aI91
aI8
aI149
aI120
aI112
aI149
aI112
aI112
aI149
aI91
aI104
aI104
aI48
aI18
aI143
aI19
aI120
aI170
aI152
aI104
aI104
aI112
aa(lp31
I16
aI152
aI152
aI182
aI91
aI64
aI91
aI149
aI149
aI91
aI110
aI70
aI70
aI70
aI70
aI152
aI25
aI91
aI91
aI111
aI62
aI120
aI149
aI137
aI137
aI117
aI149
aI149
aI149
aI91
aI91
aI91
aI149
aI149
aI122
aI110
aI160
aI160
aI24
aI35
aI117
aI122
aI21
aI120
aI117
aI152
aI137
aI80
aI44
aI80
aI80
aI182
aI182
aI182
aI182
aI182
aI23
aI104
aI33
aI137
aI9
aI159
aI70
aI91
aI36
aI138
aI120
aI182
aI160
aI70
aI149
aI112
aI91
aI91
aI70
aI60
aI138
aI62
aI25
aI22
aI62
aI91
aI91
aI161
aI160
aI160
aI160
aI160
aI91
aI91
aI152
aI152
aI91
aI60
aI91
aI91
aI159
aI137
aI137
aI104
aI48
aI0
aI0
aI8
aI149
aI117
aI120
aI120
aI110
aI137
aI137
aI91
aI23
aI149
aI91
aI152
aI62
aI160
aI160
aI160
aI160
aI91
aa(lp32
I157
aI120
aI62
aI12
aI8
aI120
aI120
aI120
aI111
aI122
aI122
aI146
aI170
aI138
aI152
aI152
aI152
aI142
aI55
aI61
aI48
aI122
aI91
aI80
aI91
aI91
aI149
aI80
aI122
aI80
aI122
aI152
aI122
aI122
aI91
aI152
aI91
aI120
aI120
aI80
aI80
aI6
aI166
aI6
aI122
aI122
aI91
aI110
aI8
aI8
aI95
aI95
aI95
aI48
aI95
aI91
aI91
aI122
aI122
aI120
aI120
aI122
aI25
aI122
aI122
aI111
aI8
aI8
aI91
aI139
aI122
aI48
aI122
aI122
aI122
aI48
aI23
aI48
aI48
aI80
aI110
aa(lp33
I62
aI96
aI162
aI182
aI8
aI91
aI182
aI152
aI23
aI112
aI182
aI181
aI110
aI91
aI149
aI70
aI19
aI19
aI19
aI91
aI160
aI55
aI160
aI170
aI181
aI62
aI180
aI120
aI91
aI69
aI180
aI157
aI157
aI112
aI80
aI111
aa(lp34
I15
aI117
aI153
aI18
aI55
aI122
aI176
aI86
aI149
aI23
aI149
aI149
aI80
aI80
aI80
aI110
aI8
aI152
aI104
aI55
aI104
aI70
aI120
aI71
aI23
aI91
aI104
aI71
aI71
aI8
aI149
aI60
aI86
aI122
aI170
aI149
aa(lp35
I60
aI144
aI61
aI152
aI112
aI104
aI91
aI33
aI90
aI70
aI91
aI91
aI111
aI70
aI152
aI61
aI62
aI152
aI49
aI111
aI94
aI94
aI117
aI117
aI8
aI48
aI110
aI110
aI36
aI81
aI48
aI15
aI36
aI152
aI36
aI81
aI16
aI152
aI117
aI60
aI64
aI23
aI91
aI91
aI111
aI60
aI91
aI33
aI111
aI121
aI149
aI81
aI152
aI111
aI70
aI121
aI121
aI121
aI9
aI91
aI9
aI111
aI149
aI149
aI70
aI91
aI94
aI120
aI120
aI152
aI111
aI9
aI48
aI48
aI64
aI54
aI112
aI33
aI70
aI112
aI94
aI33
aI160
aI91
aI62
aI117
aI160
aI160
aI97
aI16
aI16
aI160
aI2
aI48
aI48
aI112
aI48
aI81
aI9
aI81
aI182
aI175
aI149
aI111
aI80
aI8
aI81
aI91
aI152
aI91
aI62
aI81
aI72
aI81
aI15
aI160
aI62
aa(lp36
I36
aI91
aI91
aI117
aI23
aI120
aI120
aI55
aI29
aI6
aI19
aI91
aI157
aI157
aI55
aI181
aI104
aI60
aI104
aI94
aI117
aI36
aI7
aI137
aI8
aI157
aI157
aI110
aI94
aI113
aI16
aI91
aI8
aI70
aI70
aI70
aI170
aI110
aI50
aI110
aI144
aI80
aI110
aI80
aI7
aI86
aI36
aI21
aI80
aI21
aI80
aI117
aI91
aI91
aI16
aI28
aI28
aI7
aI8
aI120
aI18
aI62
aI25
aI7
aI152
aI7
aI16
aI10
aI10
aI10
aI112
aI111
aI170
aI8
aa(lp37
I23
aI170
aI120
aI8
aI8
aI80
aI44
aI80
aI110
aI139
aI161
aI91
aI111
aI69
aI70
aI110
aI91
aI91
aI62
aI8
aI13
aI13
aa(lp38
I112
aI152
aI91
aI112
aI62
aI55
aI170
aI91
aI170
aI142
aI172
aI69
aI127
aI48
aI48
aI48
aI48
aI48
aI91
aI117
aI70
aI95
aI91
aI91
aI91
aI48
aI48
aI117
aI26
aI71
aI26
aI142
aI142
aI117
aI117
aI48
aI48
aI48
aI120
aI120
aI55
aI117
aI110
aI110
aI23
aI180
aI170
aI170
aI110
aI94
aI91
aI91
aI23
aI48
aI48
aI48
aI48
aI48
aI48
aI48
aI80
aI8
aI91
aI91
aI91
aI160
aI145
aI91
aI91
aI91
aI90
aI91
aI33
aI70
aI181
aI181
aI48
aI48
aI48
aI117
aI117
aI91
aI152
aI91
aI117
aI120
aI110
aI113
aI134
aI113
aI172
aI70
aI70
aI55
aI91
aI48
aI48
aI91
aI152
aI91
aI110
aI182
aI110
aI91
aI91
aI120
aI181
aI91
aI48
aI48
aI48
aI48
aI110
aI110
aa(lp39
I46
aI46
aI160
aI160
aI170
aI91
aI8
aI182
aI91
aI91
aI8
aI175
aI8
aI8
aI182
aI23
aI182
aI182
aI112
aI182
aI111
aI111
aI91
aI110
aI121
aI48
aI80
aI48
aI110
aI8
aI117
aI112
aI120
aI149
aI8
aI110
aI182
aI48
aI69
aI17
aI17
aI111
aI139
aI48
aI8
aI8
aI8
aI8
aI121
aI98
aI8
aI182
aI160
aI134
aI161
aI110
aI110
aI110
aI110
aI170
aI69
aI139
aI182
aI61
aa(lp40
I91
aI70
aI70
aI152
aI62
aI8
aI117
aI91
aI117
aI91
aI8
aI80
aI61
aI152
aI152
aI152
aI160
aI182
aI70
aI91
aI160
aI91
aI10
aI91
aI152
aI160
aI152
aI138
aI138
aI70
aI0
aI110
aI0
aI80
aI44
aI8
aI152
aI34
aI91
aI34
aI110
aI138
aI152
aI91
aI170
aI111
aI18
aI8
aI112
aI144
aI6
aI8
aI80
aI149
aI121
aI80
aI80
aI46
aI8
aI98
aI91
aI91
aI8
aI6
aI70
aI91
aI138
aI8
aI112
aI180
aI8
aI8
aI8
aI152
aI8
aa(lp41
I104
aI104
aI94
aI121
aI48
aI121
aI152
aI18
aI21
aI91
aI9
aI153
aI152
aI149
aI80
aI23
aI23
aI23
aI104
aI121
aI94
aI94
aI13
aI121
aI36
aI91
aI94
aI122
aI91
aI91
aI120
aI103
aI152
aI112
aI2
aI23
aI55
aI91
aI91
aI36
aI33
aI33
aI104
aI94
aI104
aI48
aI48
aI91
aI8
aI182
aI52
aI19
aI19
aI19
aI160
aI152
aI152
aI52
aI160
aI6
aI160
aI160
aI91
aI160
aI91
aI23
aI21
aI23
aI23
aI23
aI95
aI48
aI170
aI112
aI55
aI23
aI90
aI152
aI112
aI23
aI152
aI16
aI91
aI120
aI120
aI91
aI94
aI94
aI23
aI117
aI121
aI121
aI181
aI182
aI91
aI91
aI110
aI110
aI110
aI91
aI91
aI112
aa(lp42
I8
aI80
aI8
aI8
aI181
aI80
aI80
aI80
aI91
aI80
aI112
aI23
aI8
aI23
aI132
aI91
aI8
aI80
aI98
aI110
aI80
aI144
aI8
aI111
aI80
aI110
aI23
aI80
aI48
aI48
aI48
aI170
aI136
aI170
aI80
aI170
aI112
aI58
aI80
aI78
aI112
aI8
aI182
aI8
aI17
aI48
aI80
aI71
aI23
aI112
aI180
aI8
aI8
aI23
aI112
aI152
aI8
aI110
aI138
aI170
aI8
aI180
aI110
aI8
aI8
aI8
aI112
aI91
aI8
aa(lp43
I6
aI48
aI48
aI48
aI48
aI71
aI94
aI48
aI48
aI48
aI91
aI152
aI152
aI138
aI48
aI144
aI180
aI6
aI160
aI160
aI48
aI48
aI48
aI48
aI112
aI48
aI78
aI91
aI152
aI152
aI48
aI160
aI160
aI160
aI165
aI48
aI48
aI34
aI48
aI48
aI71
aI144
aI70
aI69
aI48
aI71
aI48
aI181
aI70
aI113
aI48
aI94
aI110
aI104
aI70
aI152
aI152
aI70
aI94
aI48
aI48
aI71
aa(lp44
I71
aI21
aI21
aI103
aI7
aI138
aI138
aI69
aI48
aI48
aI36
aI36
aI81
aI143
aI143
aI143
aI17
aI36
aI120
aI91
aI91
aI152
aI36
aI104
aI104
aI91
aI70
aI120
aI97
aI97
aI103
aI55
aI91
aI8
aI91
aI18
aI24
aI24
aI152
aI152
aI18
aI91
aI91
aI24
aI24
aI180
aI18
aI117
aI143
aI91
aI103
aI162
aI55
aI91
aI91
aI91
aI91
aI36
aI36
aI70
aI7
aI7
aI110
aI7
aI91
aI86
aI143
aI143
aI143
aI143
aI33
aI18
aI103
aI70
aI7
aI36
aI7
aI48
aI61
aI86
aI7
aI152
aI48
aI122
aI22
aI182
aI103
aI91
aI91
aI91
aI60
aI7
aI7
aI134
aI36
aI103
aI112
aI91
aI134
aI6
aI62
aI62
aI122
aI101
aI36
aI97
aI64
aI70
aI36
aI36
aI7
aI134
aI103
aI122
aI143
aI159
aI97
aI143
aI152
aI152
aI152
aI152
aI91
aI70
aI103
aI7
aI152
aI71
aI91
aI91
aI121
aI122
aI152
aI7
aI36
aI36
aI91
aI15
aI134
aI70
aI18
aI71
aI138
aI91
aI143
aI97
aI149
aI24
aI24
aI91
aI86
aI103
aI120
aI152
aI152
aI103
aI120
aI120
aI120
aI6
aI91
aI152
aI143
aI143
aI91
aI134
aI91
aI91
aI71
aI83
aI7
aI91
aa(lp45
I104
aI104
aI152
aI160
aI160
aI160
aI160
aI138
aI112
aI70
aI70
aI70
aI70
aI48
aI48
aI48
aI70
aI111
aI110
aI7
aI70
aI144
aI91
aI137
aI61
aI61
aI64
aI112
aI48
aI144
aI61
aI142
aI48
aI160
aI160
aI48
aI152
aI78
aI152
aI152
aI112
aI142
aI61
aI121
aI94
aI61
aI160
aI160
aI160
aI149
aI48
aI33
aI94
aI33
aI33
aI111
aI134
aI70
aI70
aI70
aI70
aI111
aI70
aI70
aI70
aI70
aI70
aI33
aI33
aI94
aI48
aI134
aI160
aI160
aI160
aI160
aI160
aI160
aI160
aI111
aI48
aI33
aI152
aI70
aI70
aI46
aI152
aI152
aI70
aI70
aI70
aI60
aI91
aI8
aI180
aI65
aI65
aI65
aI91
aI149
aI182
aI17
aI16
aI90
aI152
aI78
aa(lp46
I55
aI55
aI69
aI112
aI112
aI8
aI120
aI8
aI55
aI181
aI120
aI133
aI55
aI55
aI180
aI91
aI112
aI170
aI181
aI117
aI120
aI157
aI157
aI120
aI110
aI94
aI55
aI144
aI110
aI55
aI55
aa(lp47
I139
aI115
aI12
aI157
aI120
aI120
aI104
aI104
aI55
aI55
aI137
aI91
aI182
aI152
aI10
aI10
aI61
aI171
aI149
aI10
aI36
aI157
aI112
aI138
aI152
aI55
aI48
aI62
aI36
aI23
aI104
aI36
aI110
aI112
aI10
aI10
aI55
aI36
aI36
aa(lp48
I173
aI91
aI91
aI23
aI170
aI152
aI181
aI91
aI70
aI24
aI110
aI91
aI173
aI152
aI152
aI152
aI48
aI91
aI70
aI91
aI48
aI48
aI94
aI95
aI48
aI182
aI182
aI64
aI70
aI64
aI48
aI48
aI144
aI120
aI182
aI153
aI170
aI80
aI139
aI91
aI181
aI152
aI166
aI104
aI48
aI111
aI95
aI12
aI181
aI48
aI12
aI120
aI166
aI152
aI71
aI152
aI91
aI91
aI157
aI152
aa(lp49
I180
aI91
aI91
aI160
aI55
aI48
aI48
aI48
aI48
aI112
aI104
aI104
aI33
aI112
aI104
aI89
aI69
aI180
aI113
aI94
aI89
aI104
aI60
aI152
aI36
aI152
aI48
aI83
aI91
aI91
aI70
aI36
aI152
aI91
aI120
aI120
aI120
aI55
aI62
aI55
aI55
aI55
aI91
aI112
aI152
aI112
aI62
aI112
aI91
aI91
aI48
aI60
aI60
aI36
aI62
aI152
aI62
aI62
aI91
aI91
aI91
aI104
aI55
aI55
aI55
aI55
aI182
aI91
aI36
aI36
aI160
aI13
aI48
aI91
aI48
aI48
aI48
aI48
aI33
aI18
aI91
aI91
aI103
aI91
aI91
aI97
aI91
aI91
aI91
aI62
aI91
aI91
aI23
aI110
aI91
aI55
aI160
aI17
aI170
aI33
aI64
aI115
aa(lp50
I61
aI160
aI61
aI36
aI160
aI91
aI160
aI91
aI152
aI55
aI55
aI55
aI91
aI21
aI142
aI60
aI180
aI8
aI8
aI91
aI149
aI9
aI33
aI152
aI160
aI152
aI21
aI8
aI121
aI120
aI13
aI142
aI104
aI91
aI110
aI8
aI91
aI8
aI180
aI170
aI144
aI19
aI157
aI95
aI95
aI56
aI121
aI55
aI94
aI94
aI152
aI152
aI55
aI8
aI8
aI104
aI55
aI56
aI127
aI160
aI160
aI69
aa(lp51
I137
aI182
aI152
aI91
aI91
aI95
aI152
aI180
aI61
aI152
aI25
aI152
aI48
aI110
aI182
aI152
aI152
aI8
aI91
aI15
aI91
aI182
aI182
aI157
aI23
aI157
aI157
aI152
aI152
aI137
aI137
aI142
aI182
aI80
aI33
aI152
aI23
aI152
aI182
aI161
aI62
aI152
aI152
aI91
aI112
aI60
aI182
aI112
aI33
aI94
aI104
aI161
aI142
aI159
aI144
aI152
aI152
aI157
aI91
aI33
aI112
aI71
aI91
aI110
aI142
aa(lp52
I60
aI112
aI60
aI69
aI60
aI120
aI60
aI60
aI104
aI48
aI48
aI60
aI111
aI60
aI60
aI110
aI70
aI91
aI0
aI0
aI55
aI60
aI91
aI152
aI152
aI91
aI120
aI91
aI60
aI60
aI60
aI60
aI60
aI157
aI55
aI178
aI60
aI91
aI178
aI91
aI55
aI55
aI60
aI91
aI91
aI55
aI104
aI60
aI60
aI60
aI112
aI60
aI157
aI157
aI12
aI55
aI157
aI157
aI122
aI0
aI104
aI104
aI60
aI104
aI60
aI122
aI60
aI71
aI60
aI60
aI91
aI60
aI60
aI60
aI60
aI60
aI60
aI48
aI60
aI8
aI60
aa(lp53
I110
aI120
aI0
aI152
aI120
aI160
aI160
aI160
aI160
aI110
aI62
aI62
aI91
aI160
aI160
aI160
aI160
aI182
aI138
aI9
aI9
aI138
aI120
aI91
aI120
aI34
aI23
aI170
aI80
aI86
aI62
aI62
aI110
aI62
aI62
aI152
aI91
aI152
aI165
aI65
aI152
aI67
aI160
aI17
aI36
aI182
aI7
aI36
aI36
aI36
aa(lp54
I182
aI182
aI182
aI73
aI160
aI110
aI160
aI111
aI111
aI152
aI112
aI152
aI120
aI22
aI120
aI160
aI91
aI160
aI160
aI160
aI104
aI104
aI152
aI152
aI111
aI111
aI60
aI23
aI15
aI160
aI17
aI112
aI152
aI91
aI103
aI23
aI55
aI70
aI152
aI152
aI62
aI152
aI152
aI110
aI7
aI91
aI44
aI182
aI104
aI36
aI111
aI80
aI149
aI182
aI44
aI91
aI48
aI48
aI48
aI71
aI48
aI23
aI136
aI181
aI182
aI33
aI170
aI110
aI110
aI110
aI139
aa(lp55
I33
aI48
aI48
aI55
aI44
aI180
aI109
aI112
aI157
aI6
aI94
aI152
aI122
aI55
aI122
aI60
aI55
aI120
aI8
aI112
aI91
aI70
aI96
aI152
aI11
aI110
aI144
aI112
aI69
aI182
aI8
aI112
aI70
aI94
aI144
aa(lp56
I91
aI12
aI91
aI12
aI127
aI127
aI157
aI157
aI153
aI80
aI110
aI60
aI60
aI153
aI80
aI160
aI160
aI70
aI33
aI70
aI127
aI162
aI0
aI0
aI157
aI104
aI48
aI0
aI152
aI152
aI91
aI152
aI15
aa(lp57
I91
aI13
aI91
aI91
aI13
aI91
aI91
aI182
aI160
aI91
aI36
aI55
aI144
aI91
aI70
aI91
aI120
aI142
aI170
aI91
aI91
aI71
aI181
aI120
aI23
aI157
aI157
aI16
aI91
aI139
aI139
aI142
aI142
aI152
aI161
aI91
aI120
aI120
aI98
aI55
aI55
aI152
aI91
aI120
aI144
aI110
aI112
aI166
aI152
aI182
aI86
aI86
aI139
aI80
aI8
aI157
aI80
aI137
aI160
aI33
aI70
aI103
aI170
aI120
aI91
aI91
aI98
aI91
aa(lp58
I120
aI120
aI80
aI46
aI91
aI55
aI55
aI91
aI8
aI120
aI91
aI18
aI137
aI137
aI48
aI160
aI91
aI182
aI33
aI33
aI167
aI55
aI91
aI91
aI91
aI117
aI157
aI55
aI110
aI170
aI55
aI23
aI122
aI55
aI55
aI55
aI55
aa(lp59
I182
aI91
aI112
aI113
aI152
aI60
aI70
aI91
aI91
aI180
aI152
aI120
aI91
aI121
aI91
aI157
aI149
aI112
aI152
aI12
aI149
aI91
aI104
aI2
aI94
aI48
aI91
aI113
aI8
aI152
aI69
aI33
aI69
aI60
aI91
aI120
aI91
aI94
aI160
aI160
aI91
aI6
aI91
aI110
aI91
aI91
aI152
aI91
aI91
aI91
aI152
aI70
aI91
aI91
aI91
aI120
aI120
aI152
aI152
aI96
aI55
aI91
aI112
aI33
aI91
aI33
aI91
aI48
aI83
aI91
aI91
aI91
aI80
aa(lp60
I157
aI91
aI103
aI104
aI103
aI103
aI91
aI55
aI110
aI97
aI181
aI117
aI117
aI16
aI144
aI103
aI142
aI8
aI152
aI91
aI103
aI103
aI103
aI103
aI91
aI48
aI48
aI152
aI91
aI152
aI143
aI62
aI142
aI143
aI17
aI143
aI111
aI143
aI143
aI143
aI62
aI48
aI48
aI104
aI121
aI157
aI149
aI48
aI48
aI121
aI48
aI103
aI103
aI103
aI70
aI48
aI48
aI48
aI8
aI13
aI152
aI152
aI91
aI52
aI91
aI91
aI103
aI103
aI103
aI103
aI94
aI152
aI60
aI182
aI91
aI91
aI91
aI94
aI120
aI91
aI91
aI91
aI91
aI8
aI110
aI104
aI104
aI91
aI90
aI152
aI152
aI91
aI91
aI91
aI157
aI18
aI12
aI160
aa(lp61
I64
aI94
aI70
aI138
aI91
aI170
aI91
aI112
aI91
aI33
aI152
aI91
aI91
aI60
aI48
aI48
aI8
aI113
aI91
aI111
aI121
aI33
aI110
aI121
aI7
aI152
aI170
aI55
aI91
aI33
aI111
aI91
aI104
aI60
aI113
aI0
aI104
aI60
aI60
aI91
aI48
aI48
aI94
aI180
aI80
aI144
aI91
aI70
aI160
aI71
aI61
aI112
aa(lp62
I170
aI152
aI152
aI182
aI144
aI144
aI91
aI170
aI180
aI110
aI144
aI110
aI70
aI152
aI144
aI152
aI70
aI152
aI46
aI111
aI98
aI139
aI48
aI111
aI152
aI78
aI46
aI90
aI70
aa(lp63
I120
aI146
aI162
aI112
aI112
aI146
aI8
aI146
aI55
aI55
aI180
aI162
aI110
aI91
aI103
aI103
aI146
aI117
aI151
aI50
aI43
aa(lp64
I48
aI142
aI112
aI91
aI91
aI13
aI152
aI110
aI80
aI121
aI104
aI90
aI110
aI91
aI2
aI8
aI120
aI91
aI89
aI91
aI91
aI160
aI55
aI91
aI0
aI142
aI17
aI112
aI110
aI152
aI104
aI91
aI91
aI23
aI110
aI117
aI23
aI112
aI112
aI8
aI91
aI91
aI91
aI91
aI91
aI91
aI91
aI90
aI91
aI112
aI0
aI55
aI152
aI19
aI19
aI19
aI157
aI112
aI8
aI19
aI19
aI19
aI19
aI19
aI91
aI19
aI19
aI55
aI91
aI120
aa(lp65
I16
aI16
aI111
aI48
aI112
aI95
aI157
aI121
aI152
aI16
aI13
aI104
aI152
aI152
aI55
aI160
aI69
aI104
aI69
aI69
aI121
aI80
aI69
aI161
aI161
aI121
aI95
aI60
aI152
aI91
aI95
aI13
aI60
aI112
aI60
aI80
aI60
aI48
aI71
aI134
aI46
aI23
aI61
aI48
aI48
aI95
aI149
aI104
aI124
aI137
aI91
aI91
aI152
aI160
aI160
aI157
aI104
aI104
aI69
aI91
aI121
aI70
aI91
aI122
aI160
aI152
aI69
aI104
aI13
aI112
aI60
aI95
aI95
aI8
aI91
aI122
aI16
aI115
aI104
aI104
aI115
aI152
aI23
aI104
aI104
aI152
aI149
aI160
aI160
aI122
aI8
aI48
aI110
aI113
aI48
aI161
aI161
aI13
aI91
aI71
aI117
aI91
aI182
aI182
aI174
aI48
aI48
aI48
aI137
aI13
aI19
aI19
aI13
aI19
aI69
aI69
aI69
aI69
aI69
aI160
aI91
aI149
aI122
aI120
aI120
aI69
aI104
aI69
aI104
aI71
aI71
aI98
aI65
aI91
aI71
aI112
aI138
aI115
aI121
aI48
aI48
aa(lp66
I55
aI71
aI71
aI91
aI120
aI91
aI8
aI61
aI69
aI16
aI8
aI124
aI182
aI91
aI91
aI91
aI138
aI91
aI120
aI138
aI36
aI55
aI61
aI61
aI91
aI91
aI112
aI181
aI94
aI181
aI80
aI8
aI152
aI55
aI61
aI181
aI152
aI112
aI12
aI8
aI8
aI16
aI91
aI182
aI182
aI91
aI23
aI91
aI60
aI8
aI91
aI91
aI16
aI139
aI161
aI122
aI91
aI91
aI101
aI71
aI71
aI138
aI122
aI122
aI70
aI70
aI70
aI70
aI91
aI91
aI152
aI152
aI120
aI110
aI152
aI61
aI91
aI139
aI70
aI60
aI91
aI60
aI157
aI152
aI61
aI113
aI23
aI91
aI152
aI91
aI16
aI52
aI157
aI69
aI70
aI70
aI152
aI91
aI91
aI122
aI122
aI120
aI34
aI48
aI33
aI152
aI70
aI70
aI55
aI91
aI61
aI61
aI61
aI91
aI91
aI41
aI55
aa(lp67
I21
aI110
aI91
aI110
aI91
aI48
aI91
aI152
aI91
aI91
aI157
aI137
aI8
aI23
aI8
aI34
aI34
aI152
aI80
aI80
aI110
aI91
aI91
aI110
aI181
aI120
aI23
aI112
aI91
aI152
aI61
aa(lp68
I112
aI142
aI48
aI95
aI48
aI160
aI91
aI48
aI95
aI95
aI95
aI34
aI48
aI95
aI95
aI115
aI34
aI110
aI70
aI110
aI161
aI13
aI60
aI60
aI112
aI157
aI71
aI117
aI91
aI111
aI137
aI58
aI142
aI17
aI91
aI16
aI121
aI121
aI104
aI144
aI48
aI48
aI48
aI48
aI48
aI48
aI115
aI71
aI60
aI70
aI91
aI60
aI91
aI110
aI48
aI91
aI44
aI112
aI91
aI115
aI120
aI120
aI91
aI94
aI48
aI35
aI142
aI71
aI48
aI48
aI91
aI181
aI60
aI48
aI48
aI142
aI48
aI48
aI48
aI91
aI23
aI48
aI152
aI113
aI112
aI23
aI112
aI8
aI110
aI110
aI48
aI19
aI19
aI138
aI144
aI61
aI115
aI115
aI144
aI80
aI80
aI80
aI48
aI48
aI95
aI95
aI95
aI95
aI60
aI95
aI60
aI95
aI95
aI95
aI95
aI95
aI95
aI95
aI95
aI95
aI95
aI19
aI48
aI110
aI60
aI60
aI115
aI23
aI95
aI95
aI95
aI60
aI111
aI144
aI121
aI121
aI115
aI115
aI60
aI91
aI60
aa(lp69
I91
aI91
aI36
aI6
aI91
aI48
aI91
aI149
aI157
aI24
aI91
aI112
aI23
aI152
aI91
aI180
aI144
aI110
aI161
aI91
aI111
aI70
aa(lp70
I91
aI91
aI70
aI69
aI55
aI69
aI36
aI91
aI80
aI91
aI103
aI103
aI111
aI36
aI149
aI91
aI91
aI80
aI104
aI162
aI91
aI36
aI24
aI94
aI157
aI70
aI94
aI35
aI157
aI62
aI112
aI160
aI24
aI76
aI117
aI91
aI149
aI91
aI94
aI104
aI69
aI69
aI12
aI69
aI70
aI112
aI157
aI48
aI69
aI48
aI48
aI70
aI69
aI181
aI91
aI70
aI137
aI104
aI64
aI91
aI22
aI91
aI91
aI112
aI91
aI21
aI143
aI110
aI104
aI94
aI91
aI170
aI91
aI94
aI139
aI112
aI23
aI117
aa(lp71
I143
aI91
aI152
aI91
aI111
aI110
aI55
aI55
aI182
aI112
aI91
aI17
aI138
aI91
aI95
aI95
aI62
aI111
aI120
aI170
aI48
aI7
aI138
aI18
aI55
aI70
aI90
aI33
aI90
aI120
aI91
aI120
aI12
aI157
aI12
aI70
aI48
aI70
aI48
aI111
aI60
aI91
aI91
aI91
aI91
aI48
aI48
aI13
aI91
aI152
aI104
aI104
aI143
aI13
aI13
aI120
aI137
aI152
aI152
aI91
aI91
aI127
aI182
aI143
aI91
aI120
aI110
aI91
aI61
aI48
aI138
aI48
aI95
aI95
aI95
aI95
aI104
aI160
aI138
aI152
aI152
aI159
aI120
aI138
aI91
aI91
aI112
aI152
aI152
aI18
aI44
aI44
aI91
aI91
aI104
aI138
aI110
aI159
aI182
aI182
aI120
aI91
aa(lp72
I94
aI94
aI144
aI152
aI91
aI64
aI91
aI18
aI36
aI91
aI160
aI36
aI36
aI91
aI64
aI9
aI157
aI157
aI157
aI149
aI149
aI122
aI180
aI36
aI15
aI36
aI36
aI36
aI36
aI36
aI91
aI103
aI91
aI103
aI157
aI157
aI157
aI95
aI95
aI95
aI95
aI95
aI95
aI95
aI95
aI95
aI95
aI95
aI95
aI95
aI95
aI95
aI112
aI19
aI112
aI91
aI91
aI110
aI91
aI91
aI91
aI103
aI91
aI104
aI55
aI54
aI103
aI157
aI157
aI157
aa(lp73
I112
aI152
aI70
aI110
aI94
aI144
aI94
aI160
aI110
aI94
aI8
aI80
aI8
aI33
aI80
aI23
aI160
aI160
aI94
aI153
aI80
aI153
aI110
aI53
aI94
aI94
aI94
aI96
aI110
aI94
aI48
aI94
aI61
aI95
aI95
aI48
aI95
aI95
aI48
aI94
aI120
aI120
aI94
aI94
aI160
aI94
aI94
aa(lp74
I55
aI55
aI8
aI91
aI60
aI110
aI180
aI121
aI144
aI62
aI152
aI62
aI91
aI60
aI91
aI160
aI160
aI8
aI152
aI48
aI9
aI9
aI121
aI17
aa(lp75
I120
aI91
aI152
aI23
aI181
aI181
aI91
aI91
aI104
aI104
aI91
aI23
aI23
aI8
aI113
aI80
aI8
aI96
aI91
aI110
aI121
aI121
aI121
aI91
aa(lp76
I91
aI94
aI55
aI178
aI160
aI110
aI23
aI86
aI157
aI91
aI157
aI111
aI112
aI112
aI112
aI111
aI149
aI160
aI9
aI139
aI149
aI61
aI18
aI61
aI152
aI70
aI122
aI22
aI60
aI48
aI112
aI55
aI90
aI112
aI90
aI112
aI112
aI70
aI90
aI112
aI152
aI70
aI112
aI70
aI152
aI112
aI43
aI91
aI91
aI80
aI33
aI33
aI112
aI90
aI94
aI70
aI70
aI112
aI160
aI160
aI86
aI157
aI157
aI21
aI70
aI17
aI157
aI91
aI91
aI91
aI94
aI160
aI91
aI149
aI69
aI69
aI69
aI95
aI94
aI69
aI157
aI138
aI104
aI122
aI120
aI70
aI91
aI19
aI19
aI18
aI152
aI152
aI91
aI60
aI112
aI91
aI112
aI90
aI111
aI112
aI152
aI182
aI182
aI70
aI60
aI70
aI70
aI18
aI70
aI60
aI95
aI121
aI121
aI138
aI121
aI121
aI60
aI149
aI149
aI8
aI110
aI149
aI48
aI81
aI33
aI181
aI91
aI81
aI104
aI182
aI86
aI182
aI91
aI70
aI70
aI90
aI96
aI160
aI160
aI83
aI70
aI69
aI182
aI34
aI161
aI178
aI69
aI48
aI34
aI182
aI48
aI111
aI182
aI69
aI48
aI178
aI91
aI70
aI91
aI104
aI104
aI104
aa(lp77
I91
aI157
aI134
aI80
aI121
aI8
aI152
aI91
aI91
aI110
aI121
aI144
aI94
aI69
aI48
aI33
aI144
aI61
aI144
aI94
aI48
aI152
aI48
aI17
aI70
aI8
aI180
aI95
aI61
aI90
aI90
aI112
aI110
aI144
aI160
aI70
aI142
aI181
aI55
aI13
aI90
aI61
aI17
aI152
aI180
aI152
aI152
aI144
aI19
aI19
aI19
aI69
aI181
aI70
aI13
aI80
aI8
aI69
aI83
aI69
aa(lp78
I12
aI48
aI152
aI112
aI8
aI48
aI13
aI22
aI104
aI112
aI13
aI48
aI13
aI48
aI149
aI104
aI69
aI182
aI182
aI91
aI152
aI22
aI13
aI13
aI48
aI104
aI8
aI110
aI182
aI157
aI157
aI152
aI113
aI48
aI104
aI94
aI13
aI94
aI142
aI48
aI22
aI104
aI112
aI13
aI13
aa(lp79
I180
aI8
aI104
aI111
aI13
aI180
aI16
aI13
aI180
aI13
aI180
aI110
aI152
aI144
aI144
aI144
aI70
aI117
aI152
aI35
aI35
aI35
aI35
aI157
aI157
aI152
aI152
aI15
aI15
aI25
aI149
aa(lp80
I182
aI91
aI91
aI111
aI111
aI104
aI91
aI104
aI104
aI91
aI152
aI152
aI33
aI152
aI13
aI91
aI111
aI121
aI23
aI181
aI181
aI120
aI80
aI91
aI152
aI16
aI48
aI17
aI152
aI149
aI120
aI120
aI182
aI149
aI104
aI91
aI91
aI70
aI70
aI110
aI110
aI114
aa(lp81
I80
aI55
aI112
aI80
aI180
aI8
aI91
aI112
aI112
aI22
aI80
aI138
aI91
aI48
aI48
aI110
aI55
aI91
aI91
aI91
aI91
aI80
aI152
aI7
aI112
aI91
aI70
aI144
aI120
aI91
aI55
aI91
aI91
aI122
aI91
aI122
aI122
aI55
aI149
aI149
aa(lp82
I48
aI112
aI48
aI91
aI91
aI180
aI36
aI8
aI152
aI91
aI48
aI91
aI152
aI152
aI16
aI24
aI91
aI0
aI24
aI22
aI122
aI55
aI55
aI91
aI91
aI55
aI152
aI36
aI34
aI21
aI144
aI110
aa(lp83
I111
aI8
aI55
aI48
aI91
aI120
aI94
aI94
aI55
aI91
aI91
aI91
aI55
aI91
aI33
aI48
aI55
aI55
aI8
aI110
aI33
aI91
aI33
aI144
aI33
aI160
aI91
aI91
aI121
aI44
aI152
aI152
aI69
aI160
aI111
aI91
aI144
aI91
aI91
aI111
aI181
aI111
aI110
aI23
aI8
aI33
aI8
aI8
aI70
aI91
aI181
aI91
aI117
aI157
aI55
aI91
aI91
aI21
aI124
aI124
aI152
aI152
aI149
aI56
aI56
aI104
aI157
aI157
aI55
aI8
aI112
aI33
aI180
aI33
aI33
aa(lp84
I104
aI94
aI104
aI152
aI152
aI114
aI152
aI110
aI33
aI110
aI91
aI170
aI182
aI91
aI110
aI8
aI110
aI110
aI110
aI111
aI12
aI157
aI80
aI180
aI23
aI113
aI104
aI91
aI91
aI91
aI48
aI22
aI134
aI182
aI182
aI114
aI152
aI17
aI17
aI55
aI117
aI21
aI104
aI17
aI152
aI62
aI152
aI127
aI15
aI70
aa(lp85
I55
aI91
aI91
aI91
aI50
aI48
aI91
aI182
aI120
aI91
aI152
aI110
aI120
aI170
aI48
aI180
aI8
aI91
aI55
aI55
aI91
aI170
aI170
aI78
aI91
aI8
aI170
aI152
aI9
aI55
aI58
aI52
aI131
aI91
aI23
aI91
aI55
aI78
aI91
aI78
aI91
aI182
aI55
aI91
aI55
aI55
aI90
aI60
aI70
aI78
aI121
aI8
aI138
aI58
aI94
aI91
aI91
aI94
aI131
aI23
aI78
aI153
aI91
aI91
aI91
aa(lp86
I70
aI91
aI160
aI19
aI160
aI91
aI160
aI61
aI34
aI48
aI33
aI34
aI134
aI91
aI8
aI19
aI19
aI48
aI17
aI48
aI48
aI48
aI83
aI70
aI48
aI152
aI178
aI163
aI152
aI152
aI70
aI152
aI34
aI152
aI70
aI61
aI34
aI152
aI34
aI122
aI120
aI139
aI70
aI34
aI144
aI113
aI70
aI70
aI91
aI48
aI48
aI149
aI152
aI112
aI6
aI112
aI112
aI21
aI178
aI152
aI21
aI178
aI48
aI48
aI48
aI48
aI83
aI34
aI110
aI34
aI94
aI94
aI8
aI152
aI61
aI113
aI160
aI152
aI48
aI34
aI48
aI55
aI55
aI91
aI34
aI149
aI149
aI149
aI0
aI0
aI61
aI70
aI60
aI178
aI91
aI91
aI134
aI6
aI91
aI91
aI91
aI19
aI71
aI36
aI19
aI91
aI181
aI181
aI48
aI94
aI19
aI19
aI160
aI160
aI160
aI52
aI160
aI160
aI70
aI61
aI112
aI60
aI180
aI152
aI170
aI23
aI182
aI23
aI182
aI95
aI17
aI110
aI23
aI160
aI23
aI144
aI170
aI23
aI98
aI23
aI94
aI94
aa(lp87
I55
aI2
aI120
aI91
aI91
aI8
aI120
aI111
aI94
aI112
aI137
aI117
aI170
aI110
aI55
aI91
aI70
aI137
aI149
aI9
aI149
aI9
aI19
aI23
aI159
aI36
aI91
aI70
aI70
aI61
aI36
aI112
aI8
aI113
aI182
aI70
aI70
aI94
aI25
aI91
aI61
aI21
aI60
aI149
aI91
aI61
aI8
aI8
aI70
aI70
aI90
aI152
aI152
aI152
aI61
aI113
aI160
aI112
aI80
aI80
aI139
aI21
aI181
aI70
aI91
aI112
aI112
aa(lp88
I62
aI70
aI181
aI157
aI70
aI121
aI70
aI23
aI70
aI80
aI160
aI15
aI15
aI55
aI28
aI91
aI50
aI149
aI91
aI157
aI181
aI157
aI181
aI152
aI120
aI80
aI80
aI120
aI153
aI80
aI121
aI110
aI152
aI120
aI152
aI33
aI122
aI114
aI15
aI112
aI91
aI91
aI91
aI111
aI91
aI149
aI143
aI149
aI120
aI108
aI112
aI120
aI55
aI91
aI120
aI112
aI91
aI23
aI110
aI152
aI91
aI33
aI33
aI33
aI13
aI181
aI181
aI181
aI110
aI70
aI69
aI91
aI91
aI23
aI8
aI23
aI110
aI144
aI144
aI91
aI127
aI127
aI138
aI122
aI112
aI180
aI110
aI8
aI8
aI110
aI8
aI9
aI70
aI70
aI70
aI70
aI70
aI8
aI8
aI91
aI181
aI181
aI91
aI36
aI91
aI91
aI111
aI180
aI19
aI19
aI112
aI112
aI180
aI44
aI152
aI139
aI70
aI70
aa(lp89
I152
aI70
aI152
aI104
aI152
aI152
aI2
aI33
aI70
aI61
aI91
aI91
aI70
aI104
aI91
aI111
aI160
aI91
aI16
aI157
aI110
aI19
aI48
aI12
aI19
aI48
aI36
aI19
aI94
aI157
aI110
aI70
aI144
aI16
aI111
aI70
aI70
aI110
aI91
aI15
aI91
aI152
aI70
aI70
aI110
aI104
aI160
aI70
aI33
aI33
aI104
aI8
aa(lp90
I55
aI91
aI122
aI7
aI97
aI159
aI50
aI91
aI180
aI149
aI122
aI69
aI159
aI46
aI152
aI91
aI91
aI48
aI90
aI182
aI91
aI17
aI55
aI21
aI21
aI149
aI21
aI90
aI9
aI110
aI7
aI159
aI91
aI157
aI91
aI91
aI16
aI97
aI8
aI91
aI157
aI55
aI91
aI152
aI91
aI159
aI122
aI120
aI91
aa(lp91
I8
aI16
aI110
aI91
aI91
aI91
aI8
aI104
aI182
aI104
aI152
aI91
aI157
aI91
aI91
aI136
aI91
aI91
aI16
aI62
aI160
aI160
aI19
aI19
aI19
aI19
aI91
aI120
aI120
aI120
aI157
aI157
aI91
aI48
aI110
aI149
aI149
aI149
aI91
aI91
aI8
aI157
aI157
aI91
aI152
aI120
aI91
aI80
aI8
aI91
aI91
aI91
aI23
aI23
aI149
aI122
aI16
aI113
aI16
aI55
aI86
aI50
aI8
aI182
aI110
aI152
aI149
aI91
aI48
aI152
aI152
aa(lp92
I121
aI69
aI152
aI152
aI8
aI91
aI160
aI160
aI160
aI152
aI17
aI90
aI112
aI182
aI21
aI149
aI21
aI149
aI160
aI160
aI110
aI52
aI152
aI70
aI137
aI160
aI8
aI18
aI91
aI91
aI91
aI48
aI181
aI18
aI125
aI125
aI152
aI8
aI36
aI62
aI117
aI137
aI91
aI62
aI62
aI52
aI70
aI95
aI9
aI9
aI137
aI112
aI91
aI91
aI170
aI170
aI18
aI6
aI36
aI91
aI23
aI153
aI70
aI137
aI180
aI18
aI18
aI6
aI112
aI80
aI8
aI91
aI23
aI23
aI110
aI110
aI70
aI8
aI8
aI36
aI36
aI91
aI110
aI62
aI62
aI62
aI62
aI120
aI98
aI160
aI160
aI91
aI160
aI160
aI10
aI23
aI52
aI91
aa(lp93
I90
aI94
aI157
aI61
aI61
aI160
aI70
aI120
aI94
aI12
aI120
aI138
aI33
aI25
aI33
aI91
aI91
aI25
aI33
aI90
aI70
aI152
aI94
aI149
aI33
aI6
aI94
aI120
aI12
aI12
aI12
aI120
aI120
aI120
aI120
aI104
aI109
aI0
aI120
aI120
aI120
aI138
aI91
aI112
aI110
aI110
aI33
aI104
aI94
aa(lp94
I161
aI69
aI69
aI110
aI8
aI80
aI110
aI170
aI91
aI112
aI160
aI170
aI23
aI117
aI91
aI160
aI34
aI161
aI69
aI69
aI181
aI91
aI23
aI91
aI160
aI33
aI137
aI8
aI120
aI137
aI161
aI69
aI149
aI122
aI91
aI122
aI112
aI62
aI48
aI112
aI110
aI112
aI23
aI8
aI145
aI153
aI80
aI23
aI55
aI23
aI48
aI8
aI91
aI170
aI110
aI139
aI170
aI112
aI55
aI91
aI137
aI152
aI170
aI121
aI160
aI144
aI181
aa(lp95
I104
aI55
aI48
aI48
aI12
aI157
aI60
aI174
aI160
aI160
aI104
aI110
aI152
aI48
aI108
aI48
aI48
aI91
aI91
aI160
aI120
aI91
aI157
aI152
aI127
aI160
aI157
aI110
aI91
aI91
aI152
aI152
aI112
aI69
aI114
aI91
aI94
aI71
aa(lp96
I62
aI62
aI62
aI122
aI122
aI61
aI36
aI36
aI36
aI36
aI36
aI36
aI62
aI112
aI91
aI0
aI0
aI62
aI120
aI120
aI122
aI60
aI22
aI60
aI103
aI48
aI111
aI117
aI120
aI157
aI71
aI83
aI69
aI16
aI0
aI48
aI122
aI69
aI55
aI120
aI120
aI69
aI112
aI122
aI55
aI122
aI122
aI122
aI182
aI71
aI71
aI69
aI149
aI91
aI94
aI24
aI22
aI60
aI69
aI111
aI91
aI117
aI70
aI34
aI34
aI122
aI149
aI120
aI17
aI60
aI86
aI86
aI91
aI55
aI120
aI0
aI0
aI35
aI69
aI91
aI62
aI62
aI36
aI122
aI120
aI94
aI94
aI91
aI34
aI60
aI34
aI55
aI58
aI122
aI62
aI62
aI91
aI36
aI36
aI110
aI62
aI18
aI149
aI152
aI80
aI80
aI110
aI60
aI122
aI120
aI60
aI55
aI120
aI7
aI60
aI0
aI62
aI91
aI120
aI120
aI34
aI138
aI122
aI120
aI34
aI91
aI16
aI6
aI91
aI29
aI134
aI62
aI120
aI71
aI23
aI62
aI69
aI55
aI91
aI106
aI91
aI112
aI181
aI137
aI178
aI34
aI122
aI149
aI120
aI64
aI64
aI6
aI36
aI122
aI138
aI36
aI120
aI64
aa(lp97
I98
aI55
aI139
aI6
aI127
aI107
aI91
aI91
aI48
aI61
aI61
aI160
aI122
aI91
aI110
aI91
aI41
aI120
aI127
aI173
aI8
aI60
aI91
aI152
aI70
aI70
aI17
aI91
aI55
aI55
aI48
aI6
aI91
aI112
aI180
aI48
aI71
aI60
aI112
aI104
aI91
aI104
aI91
aI138
aI91
aI152
aI91
aI91
aI91
aI16
aI70
aI91
aI152
aI138
aI104
aI104
aI96
aI138
aI8
aI69
aI90
aI138
aI152
aI36
aI91
aI121
aI149
aI160
aI160
aI152
aI152
aI152
aI91
aI152
aI90
aI104
aI122
aI122
aI91
aI157
aI91
aI91
aI152
aI91
aI166
aI33
aI166
aI62
aI104
aI48
aI48
aI23
aI160
aI114
aI70
aI70
aI120
aI112
aI97
aI55
aI91
aI48
aI48
aI91
aI48
aI70
aI120
aI138
aI69
aI69
aI120
aI8
aI70
aI152
aI70
aI144
aI152
aI152
aI152
aI152
aI172
aI152
aI152
aI23
aI55
aI104
aI70
aI104
aI24
aI91
aI112
aI112
aI91
aI91
aI17
aI139
aI8
aI138
aI70
aI71
aI62
aI160
aI91
aI138
aI91
aI91
aI71
aI152
aI23
aI91
aa(lp98
I64
aI64
aI122
aI23
aI8
aI91
aI122
aI122
aI122
aI91
aI60
aI91
aI117
aI91
aI91
aI65
aI120
aI149
aI144
aI167
aI112
aI122
aI122
aI23
aI122
aI122
aI122
aI178
aI110
aI80
aa(lp99
I23
aI8
aI110
aI112
aI23
aI112
aI112
aI98
aI80
aI80
aI80
aI8
aI8
aI170
aI8
aI8
aI8
aI152
aI182
aI182
aI8
aI160
aI8
aI8
aI8
aI69
aI69
aI8
aI8
aI8
aI110
aI8
aI110
aI80
aI8
aI8
aI110
aI8
aI23
aI8
aI8
aI91
aI120
aI91
aI152
aI71
aI157
aI80
aI80
aI8
aI8
aI8
aI23
aI23
aI23
aI8
aI110
aI152
aI121
aI8
aI112
aI8
aI80
aI110
aa(lp100
I23
aI53
aI180
aI6
aI152
aI98
aI149
aI152
aI104
aI95
aI152
aI149
aI16
aI48
aI53
aI146
aI157
aI157
aI90
aI160
aI149
aI152
aI48
aI112
aI33
aI152
aI70
aI149
aI121
aI95
aI111
aI8
aI121
aI121
aI48
aI48
aI70
aI91
aI91
aI43
aI138
aI160
aI180
aI0
aI69
aI138
aI69
aI160
aI112
aI70
aI112
aI144
aI159
aI122
aI110
aI61
aI61
aI149
aa(lp101
I110
aI23
aI112
aI7
aI143
aI112
aI62
aI55
aI108
aI152
aI114
aI120
aI18
aI160
aI160
aI23
aI46
aI81
aI131
aI113
aI46
aI46
aI18
aI144
aI142
aI144
aI33
aI80
aI120
aI120
aI182
aI55
aI182
aI120
aI182
aI120
aI182
aI55
aI120
aI23
aI91
aI181
aI23
aI182
aI181
aI23
aI181
aI91
aI112
aI160
aI108
aI91
aI46
aI112
aI81
aI23
aI112
aI62
aI120
aI18
aI112
aI7
aI160
aI152
aI114
aI23
aI143
aI55
aI152
aI157
aI112
aI18
aI160
aI7
aI114
aI23
aI152
aI62
aI143
aI55
aI120
aI160
aI46
aI108
aI112
aI81
aI70
aI70
aI96
aI104
aI104
aa(lp102
I60
aI6
aI104
aI35
aI81
aI104
aI6
aI152
aI91
aI55
aI80
aI48
aI48
aI146
aI160
aI2
aI121
aI104
aI110
aI80
aI143
aI160
aI81
aI69
aI60
aI104
aI48
aI33
aI104
aI56
aI104
aI95
aI95
aI19
aI19
aI19
aI19
aI23
aI137
aI143
aI143
aI152
aI149
aI149
aI23
aI157
aI60
aI91
aI120
aI18
aI152
aI152
aI16
aI16
aI149
aI48
aI62
aI149
aI104
aI137
aI137
aI16
aI16
aI170
aI180
aI2
aI61
aI137
aI2
aI48
aI104
aI104
aI112
aI104
aI139
aI120
aI122
aI122
aI160
aI110
aI8
aI91
aI149
aI149
aI149
aI55
aI36
aI19
aI19
aI19
aI19
aI91
aI149
aI120
aI152
aI120
aI19
aI19
aI161
aI160
aa(lp103
I157
aI23
aI139
aI139
aI110
aI91
aI91
aI8
aI8
aI180
aI91
aI70
aI144
aI112
aI91
aI144
aI91
aI91
aI144
aI91
aI91
aI91
aI91
aI91
aI23
aI70
aI70
aa(lp104
I152
aI78
aI91
aI152
aI173
aI80
aI110
aI111
aI55
aI55
aI95
aI95
aI95
aI149
aI149
aI111
aI23
aI137
aI78
aI173
aI80
aI120
aI80
aa(lp105
I91
aI94
aI120
aI120
aI94
aI139
aI55
aI120
aI55
aI120
aI55
aI120
aI120
aI120
aI181
aI144
aI16
aI80
aI0
aI91
aI60
aI60
aI120
aI91
aI120
aI91
aI120
aI117
aI120
aI55
aI95
aI95
aI13
aI95
aI70
aI48
aI95
aI111
aI95
aI95
aI95
aI95
aI95
aI9
aI70
aI95
aI54
aI95
aI95
aI167
aI95
aI95
aI95
aI33
aI33
aI95
aI95
aI70
aI95
aI95
aI95
aI95
aI95
aI33
aI94
aI8
aI91
aI117
aI91
aI110
aI157
aI104
aI55
aI159
aI55
aI55
aI55
aI55
aI152
aI181
aI48
aI13
aI55
aI91
aI8
aI16
aI16
aI23
aI91
aI91
aI120
aI91
aI120
aI120
aI117
aI117
aI91
aI127
aI152
aI91
aI91
aI110
aI136
aI104
aI8
aI111
aI70
aI160
aI170
aI127
aI60
aa(lp106
I91
aI122
aI122
aI122
aI122
aI91
aI180
aI152
aI33
aI61
aI112
aI33
aI112
aI70
aI91
aI160
aI160
aI160
aI50
aI120
aI120
aI91
aI91
aI120
aI120
aI160
aI160
aI160
aI160
aI91
aI8
aI70
aI120
aI91
aI120
aI91
aI91
aI120
aI94
aI6
aI94
aI94
aI28
aI120
aI50
aI50
aI110
aI122
aI120
aI50
aI120
aI112
aI48
aI112
aI28
aI70
aI50
aI160
aI160
aI160
aI28
aI16
aI91
aI70
aI15
aI15
aI15
aI70
aI91
aI50
aI91
aa(lp107
I91
aI91
aI23
aI160
aI112
aI48
aI55
aI91
aI55
aI60
aI8
aI18
aI91
aI70
aI80
aI9
aI91
aI112
aI152
aI23
aI8
aI34
aI152
aI34
aI110
aI120
aI23
aI23
aI110
aI91
aI182
aI17
aa(lp108
I69
aI48
aI153
aI94
aI50
aI55
aI55
aI182
aI149
aI120
aI60
aI55
aI120
aI91
aI80
aI120
aI136
aI15
aI55
aI144
aI55
aI33
aI94
aI104
aI104
aI52
aI48
aI48
aI60
aI55
aI15
aI91
aI122
aI55
aI110
aI18
aI144
aI112
aI157
aI55
aI33
aI23
aI182
aI121
aI55
aa(lp109
I91
aI91
aI91
aI110
aI8
aI112
aI112
aI22
aI120
aI137
aI137
aI91
aI91
aI121
aI91
aI70
aI70
aI91
aI182
aI70
aI70
aI182
aI108
aI112
aI91
aI112
aI112
aI54
aI13
aI48
aI48
aI101
aI48
aI91
aI91
aI13
aI13
aI91
aI157
aI114
aI160
aI112
aI91
aI182
aI91
aI153
aI80
aI91
aI182
aI91
aI182
aI112
aI91
aI91
aI91
aI67
aI55
aI12
aI157
aI60
aI182
aI182
aI182
aI182
aI101
aI34
aI78
aI112
aI160
aI23
aI144
aI112
aI34
aa(lp110
I91
aI70
aI70
aI21
aI23
aI55
aI23
aI80
aI122
aI91
aI48
aI23
aI13
aI94
aI170
aI152
aI160
aI152
aI120
aI170
aI112
aI170
aI180
aI110
aa(lp111
I142
aI55
aI117
aI142
aI55
aI60
aI91
aI55
aI36
aI110
aI80
aI166
aI112
aI23
aI149
aI91
aI55
aI157
aI120
aI120
aI120
aI112
aI144
aI112
aI91
aI91
aI91
aI91
aI120
aI142
aI91
aI91
aI91
aI142
aI175
aI95
aI95
aI95
aI117
aI120
aI55
aI121
aI62
aI62
aI166
aI55
aI33
aI152
aI91
aI70
aI121
aI121
aI144
aI48
aI70
aI91
aI62
aI91
aI55
aI120
aI120
aI120
aI70
aI70
aI157
aI112
aI157
aI9
aI112
aI112
aI48
aI71
aI62
aI55
aI91
aI152
aI60
aI91
aI55
aI120
aI122
aI122
aI55
aI122
aI120
aI120
aI91
aI55
aI104
aI25
aI70
aI70
aI104
aI13
aI55
aI112
aI157
aI182
aI182
aI70
aI90
aI33
aI70
aI70
aI70
aI70
aI48
aI48
aa(lp112
I110
aI8
aI110
aI112
aI30
aI157
aI160
aI160
aI160
aI160
aI129
aI112
aI8
aI95
aI95
aI157
aI95
aI55
aI149
aI8
aI8
aI55
aI91
aI86
aI86
aI11
aI91
aI122
aI111
aI86
aI55
aI86
aI149
aI91
aI17
aI81
aI60
aI114
aI160
aI90
aI160
aI62
aI160
aI90
aI160
aI160
aI160
aI60
aI157
aI80
aI80
aI55
aI55
aI62
aI120
aI117
aI112
aI120
aI55
aI120
aI36
aI67
aI25
aI80
aI149
aI149
aI91
aI103
aI149
aI91
aI149
aI149
aI149
aI80
aI112
aI23
aI153
aI55
aI67
aI175
aI152
aI48
aI35
aI48
aI94
aI152
aI95
aI129
aa(lp113
I138
aI69
aI149
aI70
aI70
aI91
aI34
aI91
aI104
aI94
aI12
aI157
aI104
aI23
aI33
aI152
aI23
aI46
aI61
aI94
aI46
aI46
aI91
aI48
aI91
aI91
aI70
aI70
aI70
aI94
aI142
aI48
aI142
aI48
aI91
aI36
aI152
aI152
aI91
aI110
aI69
aI138
aI111
aI181
aI160
aI104
aI94
aI48
aI48
aI144
aI138
aI70
aI33
aI70
aI46
aI46
aa(lp114
I34
aI121
aI55
aI170
aI55
aI8
aI8
aI121
aI157
aI144
aI121
aI170
aI180
aI91
aI19
aI19
aI19
aI91
aI91
aI170
aI182
aI60
aI121
aI23
aI23
aI55
aI161
aI60
aI35
aI110
aI149
aI80
aI34
aI91
aa(lp115
I8
aI8
aI138
aI58
aI48
aI8
aI152
aI8
aI70
aI152
aI110
aI152
aI22
aI152
aI23
aI121
aI8
aI8
aI149
aI112
aI104
aI91
aI91
aI91
aI91
aI142
aI104
aI181
aI181
aI142
aI113
aI55
aI91
aI91
aI8
aI48
aI91
aI8
aI48
aI8
aI159
aI8
aI110
aI182
aI143
aI152
aI152
aI152
aI159
aI144
aI152
aI55
aI91
aI152
aI152
aI113
aI80
aI8
aI8
aI23
aI8
aI110
aI180
aI91
aI91
aI180
aI159
aI142
aI142
aI152
aI70
aI18
aI8
aI160
aI144
aI153
aI70
aI160
aI91
aI91
aI160
aI21
aI21
aa(lp116
I16
aI55
aI91
aI121
aI91
aI91
aI120
aI110
aI91
aI160
aI23
aI80
aI91
aI181
aI23
aI144
aI91
aI91
aI91
aI58
aI91
aa(lp117
I120
aI91
aI112
aI60
aI15
aI142
aI94
aI23
aI160
aI152
aI80
aI91
aI91
aI33
aI60
aI8
aI112
aI48
aI9
aI142
aI120
aI120
aI149
aI165
aI48
aI48
aI48
aI23
aI149
aI48
aI16
aI142
aI152
aI112
aI15
aI142
aI142
aI142
aI80
aI142
aI152
aI91
aI8
aI111
aI16
aI172
aI48
aI48
aI17
aI112
aI78
aI152
aI70
aI181
aI8
aI120
aI91
aI23
aI91
aI120
aI120
aI91
aI110
aI60
aI70
aI91
aI152
aI91
aa(lp118
I181
aI91
aI55
aI60
aI157
aI117
aI48
aI121
aI91
aI60
aI144
aI157
aI161
aI69
aI33
aI33
aI69
aI70
aI144
aI91
aI16
aI152
aI8
aI152
aI91
aI91
aI91
aI98
aI23
aI8
aI139
aI180
aI80
aI170
aI90
aI121
aI110
aI78
aI8
aI157
aI152
aI91
aI91
aa(lp119
I160
aI144
aI70
aI36
aI48
aI160
aI36
aI152
aI91
aI91
aI91
aI33
aI91
aI111
aI7
aI91
aI90
aI136
aI134
aI182
aI91
aI48
aI122
aI146
aI36
aI91
aI70
aI15
aI70
aI70
aI61
aI91
aI91
aI70
aI117
aI70
aI36
aI36
aI33
aI80
aI144
aI70
aI70
aI160
aI70
aI112
aI36
aI70
aI90
aI70
aI90
aI70
aI70
aI70
aI48
aI70
aI91
aI70
aI107
aI182
aI48
aI91
aI157
aI70
aI33
aI70
aI33
aI24
aI98
aI70
aI122
aI117
aI0
aI24
aI55
aI43
aI161
aI122
aI144
aI70
aI8
aI70
aI17
aI110
aI8
aI90
aI91
aI70
aI70
aI144
aI136
aI91
aI160
aI36
aI36
aI43
aI70
aI36
aI43
aI91
aI48
aI70
aI8
aI70
aI122
aI70
aI70
aa(lp120
I70
aI114
aI91
aI152
aI139
aI114
aI21
aI181
aI48
aI48
aI144
aI70
aI112
aI112
aI70
aI152
aI69
aI83
aI36
aI137
aI94
aI36
aI6
aI90
aI36
aI111
aI114
aI91
aI91
aI8
aI8
aI6
aI111
aI120
aI70
aI70
aI91
aI91
aI91
aI91
aI91
aI157
aI160
aI152
aI70
aI157
aI111
aI91
aI91
aI36
aI70
aI110
aI152
aI62
aI55
aI36
aI36
aI157
aI110
aI112
aI17
aI114
aI91
aI181
aI181
aI8
aI55
aI8
aI138
aI181
aI110
aI138
aI91
aI137
aI23
aI180
aI23
aI70
aI180
aI70
aI36
aI149
aI36
aI149
aI149
aI36
aI36
aI180
aI149
aI149
aI96
aa(lp121
I104
aI117
aI48
aI157
aI127
aI91
aI104
aI110
aI12
aI55
aI12
aI104
aI138
aI48
aI70
aI143
aI113
aI48
aI178
aI138
aI91
aI152
aa(lp122
I9
aI60
aI152
aI80
aI48
aI48
aI48
aI48
aI48
aI152
aI180
aI91
aI139
aI152
aI110
aI91
aI110
aI139
aI83
aI62
aI152
aI120
aI120
aI80
aI8
aI8
aI80
aI152
aI152
aI104
aI23
aI182
aI152
aI44
aI80
aI61
aI124
aI91
aI91
aI120
aI137
aI80
aI80
aI149
aI152
aI120
aI91
aI149
aI16
aI23
aI160
aI55
aI142
aI48
aI48
aI91
aI152
aI80
aI62
aI80
aa(lp123
I70
aI134
aI21
aI43
aI152
aI152
aI16
aI91
aI70
aI70
aI110
aI48
aI104
aI104
aI112
aI69
aI144
aI70
aI6
aI61
aI121
aI91
aI91
aI91
aI152
aI70
aI104
aI112
aI6
aI152
aI181
aI70
aI181
aI70
aI2
aI70
aI70
aI23
aI117
aI44
aI70
aI180
aI18
aI112
aI44
aI48
aI70
aI181
aI70
aI33
aI112
aI7
aI94
aI152
aa(lp124
I91
aI110
aI55
aI97
aI16
aI143
aI8
aI8
aI55
aI137
aI137
aI122
aI41
aI117
aI152
aI152
aI182
aI149
aI152
aI120
aI120
aI149
aI149
aI152
aI112
aI112
aI55
aI8
aI152
aI91
aI16
aI112
aI62
aI62
aI134
aI182
aI182
aI152
aI8
aI91
aI23
aI160
aI8
aI80
aI173
aI97
aI97
aI97
aI97
aI152
aI16
aI97
aI143
aI152
aI91
aI91
aI91
aI152
aI94
aI97
aI143
aI16
aI120
aI25
aI8
aI182
aI165
aI104
aI60
aI104
aI173
aI173
aI182
aI94
aI94
aI17
aa(lp125
I48
aI180
aI48
aI142
aI104
aI121
aI104
aI180
aI8
aI8
aI181
aI8
aI55
aI8
aI117
aI144
aI110
aI170
aI110
aI110
aI48
aI180
aI48
aI144
aI48
aI48
aa(lp126
I139
aI110
aI139
aI162
aI55
aI111
aI122
aI91
aI91
aI91
aI60
aI110
aI91
aI91
aI120
aI91
aI91
aI80
aI7
aI152
aI91
aI138
aI60
aI91
aI160
aI120
aI8
aI91
aI160
aI91
aI23
aa(lp127
I48
aI70
aI113
aI70
aI180
aI111
aI152
aI48
aI48
aI112
aI91
aI70
aI104
aI111
aI70
aI86
aI104
aI113
aI94
aI70
aI182
aI16
aI104
aI46
aI144
aI110
aI91
aI112
aI61
aI104
aI48
aI104
aI17
aI160
aI91
aI91
aI91
aI104
aI104
aa(lp128
I17
aI144
aI120
aI152
aI138
aI149
aI110
aI8
aI8
aI8
aI163
aI137
aI91
aI91
aI91
aI26
aI160
aI112
aI149
aI181
aI90
aI149
aI33
aI161
aI161
aI19
aI152
aI160
aI152
aI160
aI160
aI91
aI91
aI91
aI91
aI91
aI34
aI159
aI91
aI91
aI91
aI7
aI23
aI152
aI33
aI91
aI149
aI91
aI149
aI7
aI159
aI149
aI180
aI91
aI71
aI91
aI71
aI36
aI152
aI91
aI91
aI25
aI19
aI91
aI91
aI91
aI91
aI19
aI91
aI19
aI159
aI48
aI48
aI48
aa(lp129
I8
aI80
aI8
aI120
aI120
aI149
aI18
aI6
aI76
aI110
aI153
aI91
aI120
aI33
aI180
aI25
aI161
aI69
aI121
aI161
aI91
aI69
aI120
aI143
aI120
aI8
aI8
aI120
aI149
aI149
aI143
aI149
aI69
aI69
aI48
aI18
aI23
aI121
aI91
aI120
aI48
aI161
aI69
aI69
aI48
aa(lp130
I48
aI48
aI120
aI21
aI48
aI144
aI120
aI120
aI110
aI70
aI23
aI180
aI170
aI55
aI71
aI8
aI8
aa(lp131
I15
aI25
aI7
aI15
aI91
aI139
aI61
aI91
aI61
aI19
aI19
aI161
aI19
aI19
aI33
aI107
aI98
aI110
aI98
aI8
aI157
aI12
aI117
aI180
aI8
aa(lp132
I8
aI8
aI104
aI157
aI157
aI157
aI91
aI91
aI69
aI157
aI48
aI91
aI157
aI110
aI113
aI120
aI91
aI120
aI120
aI157
aI120
aI62
aI120
aI55
aI55
aI91
aI91
aI91
aI91
aI104
aI91
aI120
aI62
aI91
aI91
aI91
aI104
aI91
aI62
aI8
aI175
aI55
aI17
aI175
aI55
aI157
aI159
aI160
aI157
aI91
aI91
aI91
aI91
aI13
aI13
aI12
aI171
aI104
aI104
aI120
aI120
aI91
aI62
aI62
aI62
aI91
aI91
aI91
aI91
aI91
aI91
aI91
aI91
aI91
aI91
aI62
aI104
aI138
aI138
aI138
aI138
aI138
aI91
aI91
aI104
aI104
aI91
aI91
aI91
aa(lp133
I157
aI104
aI104
aI121
aI53
aI48
aI60
aI91
aI48
aI159
aI48
aI60
aI2
aI48
aI91
aI181
aI152
aI138
aI12
aI48
aI104
aI48
aI48
aI12
aI60
aI94
aI60
aI152
aI91
aI60
aI60
aI48
aI60
aI152
aI91
aI110
aI60
aI181
aa(lp134
I8
aI121
aI95
aI95
aI95
aI104
aI142
aI8
aI95
aI95
aI95
aI170
aI23
aI91
aI120
aI152
aI120
aI55
aI55
aI122
aI55
aI122
aI8
aI80
aI80
aI91
aI112
aI157
aI61
aI86
aI95
aI55
aI181
aI181
aI181
aI122
aI80
aI96
aI111
aI111
aI111
aI143
aI143
aI55
aI62
aI55
aI33
aI53
aI149
aI170
aI91
aI55
aI17
aI120
aI23
aI122
aI23
aI48
aI110
aI48
aI117
aI157
aI55
aI8
aI55
aI91
aI48
aI91
aI48
aI55
aI91
aI55
aI55
aI91
aa(lp135
I91
aI181
aI70
aI160
aI152
aI17
aI160
aI152
aI138
aI120
aI152
aI33
aI160
aI122
aI69
aI110
aI91
aI152
aI91
aI149
aI152
aI9
aI152
aI70
aI152
aI95
aI95
aI152
aI8
aI48
aI48
aI91
aI152
aI91
aI91
aI91
aI91
aI91
aI91
aI91
aI159
aI91
aI160
aI91
aI91
aI112
aI91
aI91
aI91
aI91
aI55
aI91
aI91
aI91
aI97
aI8
aI108
aI111
aI55
aI110
aI60
aI112
aI104
aI138
aI170
aI8
aI8
aI49
aI180
aI152
aI110
aI152
aI70
aI152
aI70
aI157
aI91
aI121
aI91
aI121
aI144
aI91
aa(lp136
I91
aI112
aI50
aI33
aI43
aI33
aI33
aI112
aI91
aI117
aI55
aI153
aI80
aI103
aI96
aI96
aI110
aI120
aI73
aI117
aI117
aI91
aI91
aI160
aI136
aI160
aI103
aI91
aI23
aI160
aI91
aI50
aI55
aI55
aI91
aI50
aa(lp137
I61
aI61
aI61
aI90
aI170
aI180
aI110
aI170
aI70
aI111
aI8
aI70
aI110
aI91
aI17
aI120
aI152
aI90
aI48
aI48
aI48
aI160
aI182
aI23
aI120
aI91
aI61
aI110
aI61
aI94
aI61
aI61
aI48
aI144
aI152
aI48
aa(lp138
I121
aI144
aI139
aI98
aI80
aI23
aI121
aI121
aI110
aI139
aI8
aI91
aI117
aI170
aI91
aI71
aI8
aI8
aI9
aI91
aI139
aI121
aI8
aI107
aI163
aI23
aa(lp139
I62
aI60
aI91
aI112
aI152
aI142
aI80
aI76
aI181
aI110
aI26
aI157
aI181
aI91
aI157
aI111
aI61
aI61
aI61
aI165
aI144
aI76
aI80
aI120
aI157
aI157
aI104
aI23
aI91
aI160
aI91
aI157
aI23
aI91
aI181
aI157
aI91
aI55
aI55
aI91
aI91
aI91
aI91
aa(lp140
I80
aI80
aI80
aI8
aI80
aI16
aI152
aI113
aI91
aI91
aI91
aI159
aI152
aI12
aI91
aI55
aI60
aI101
aI97
aI97
aI97
aI60
aI60
aI62
aI97
aI97
aI97
aI16
aI55
aI161
aI8
aI91
aI181
aI101
aI16
aI152
aI91
aI152
aI91
aI176
aI60
aI159
aI117
aI55
aI55
aI117
aI104
aI62
aI55
aI91
aI91
aI16
aI55
aI182
aI6
aI23
aI170
aI95
aI95
aI157
aI60
aI152
aI21
aI160
aI110
aI60
aI138
aI111
aI91
aI91
aI91
aI103
aI91
aI91
aI86
aI103
aI103
aI95
aI103
aI91
aI16
aI91
aI101
aI24
aI152
aI139
aI152
aI91
aI127
aI127
aI152
aI103
aI160
aI137
aI91
aI120
aa(lp141
I152
aI111
aI112
aI61
aI33
aI91
aI91
aI55
aI62
aI15
aI91
aI61
aI55
aI122
aI91
aI122
aI91
aI122
aI122
aI144
aI33
aI33
aI91
aI110
aI110
aI48
aI23
aI9
aI48
aI170
aI94
aI55
aI70
aI33
aI33
aI15
aI70
aI2
aI160
aI182
aI91
aI55
aI91
aI112
aI94
aI182
aI91
aI180
aI94
aI9
aI8
aI48
aI166
aI48
aI182
aI70
aI101
aI152
aI17
aI182
aI48
aI149
aI91
aI91
aI91
aI55
aI91
aI182
aI91
aI36
aI44
aI91
aI48
aI112
aI91
aI8
aI91
aI55
aI109
aI91
aI120
aI8
aI182
aI15
aI91
aI112
aI23
aa(lp142
I144
aI110
aI48
aI48
aI71
aI71
aI104
aI152
aI152
aI71
aI112
aI69
aI69
aI69
aI91
aI121
aI94
aI69
aI115
aI70
aI8
aI48
aI48
aI144
aI19
aI91
aI91
aI104
aI149
aI104
aI71
aI91
aI19
aI104
aI152
aI48
aI115
aI160
aI98
aI48
aI149
aI71
aI152
aI117
aI112
aI115
aI112
aI95
aI95
aI95
aI19
aI48
aI95
aI142
aI91
aI19
aI142
aI19
aI144
aI91
aI36
aI104
aI149
aI36
aI182
aI12
aI48
aI69
aI117
aI69
aI96
aI144
aI91
aI48
aI48
aI71
aI48
aI69
aI157
aI157
aI157
aI157
aI149
aI71
aI22
aI122
aI113
aI55
aI152
aI144
aI48
aI48
aI144
aI48
aI48
aI149
aI80
aI91
aI91
aI122
aI117
aI12
aI144
aI26
aa(lp143
I115
aI120
aI149
aI149
aI124
aI124
aI133
aI142
aI12
aI142
aI125
aI97
aI97
aI97
aI51
aI97
aI149
aI70
aI70
aI70
aI69
aI160
aI33
aI91
aI69
aI71
aI91
aI144
aI144
aI48
aI90
aI44
aI91
aI160
aI160
aI160
aI70
aI70
aI152
aI7
aI8
aI8
aI149
aI152
aI70
aI60
aI70
aI152
aI152
aI70
aI142
aI23
aI117
aI7
aI110
aI152
aI152
aI61
aI80
aI80
aI152
aI91
aI91
aI91
aa.