(lp0
(lp1
I160
aI160
a(lp2
I4
aaI139
a(lp3
I4
aaI152
aI160
aI152
a(lp4
I4
aaI122
a(lp5
I9
aa(lp6
I9
aa(lp7
I9
aaI41
aI62
a(lp8
I9
aaI122
aI122
aI122
aI122
aI122
aI122
aI122
aI122
a(lp9
I5
aaI122
a(lp10
I4
aa(lp11
I9
aaI152
a(lp12
I9
aaI112
a(lp13
I9
aaI160
aI160
aI160
aI160
a(lp14
I9
aaI64
a(lp15
I9
aa(lp16
I5
aa(lp17
I0
aI1
aI2
aI3
aI5
aI6
aI7
aI8
aI9
aa(lp18
I9
aa(lp19
I0
aI1
aI6
aaI149
aI9
a(lp20
I4
aaI160
aI160
aI160
aI160
a(lp21
I5
aaI122
aI122
a(lp22
I0
aI1
aaI160
aI181
aI9
aa(lp23
(lp24
I5
aa(lp25
I4
aI9
aa(lp26
I5
aa(lp27
I5
aa(lp28
I5
aaI94
a(lp29
I5
aa(lp30
I9
aaI152
aI101
aI101
aI160
a(lp31
I9
aa(lp32
I3
aI4
aI7
aI9
aaI152
aI121
aI95
a(lp33
I0
aI1
aa(lp34
I5
aaI170
aI152
a(lp35
I0
aI1
aI2
aI3
aI5
aI6
aI7
aI8
aI9
aaI112
aI167
a(lp36
I4
aI9
aaI18
aI170
aI112
aI33
aI33
aI152
aI181
aI111
a(lp37
I4
aaI152
a(lp38
I4
aaI152
a(lp39
I4
aaI152
aI121
a(lp40
I8
aa(lp41
I8
aa(lp42
I8
aa(lp43
I8
aaa(lp44
I61
aI94
a(lp45
I9
aaI17
a(lp46
I5
aaI61
aI16
a(lp47
I5
aaI122
a(lp48
I9
aaI152
a(lp49
I0
aI1
aI2
aI3
aI5
aI6
aI7
aI8
aI9
aa(lp50
I0
aI1
aa(lp51
I0
aI1
aa(lp52
I4
aa(lp53
I0
aI1
aa(lp54
I5
aa(lp55
I5
aa(lp56
I9
aaI61
a(lp57
I3
aI4
aI7
aI9
aaI61
a(lp58
I9
aa(lp59
I9
aaI152
a(lp60
I5
aaI152
aI152
a(lp61
I4
aI9
aaI112
aa(lp62
(lp63
I4
aa(lp64
I9
aa(lp65
I2
aI7
aaI112
aI122
a(lp66
I4
aaI112
aI112
aI160
a(lp67
I8
aa(lp68
I3
aI4
aI7
aI9
aaI60
aI33
a(lp69
I9
aa(lp70
I3
aI4
aI7
aI9
aaI60
a(lp71
I9
aa(lp72
I3
aI4
aI7
aI9
aa(lp73
I3
aa(lp74
I9
aaI112
aI160
aI62
a(lp75
I9
aa(lp76
I0
aI1
aaI181
a(lp77
I9
aaI94
a(lp78
I2
aI7
aa(lp79
I9
aa(lp80
I9
aa(lp81
I9
aa(lp82
I9
aaI152
aI112
a(lp83
I2
aI7
aaI112
aI62
aI62
a(lp84
I5
aaI62
a(lp85
I9
aaI19
aI19
aI19
aI13
a(lp86
I5
aa(lp87
I2
aI7
aa(lp88
I5
aa(lp89
I9
aa(lp90
I5
aa(lp91
I9
aaI64
aI62
aI64
aI62
a(lp92
I9
aa(lp93
I3
aaI62
a(lp94
I9
aaI160
a(lp95
I2
aI7
aa(lp96
I9
aa(lp97
I8
aa(lp98
I5
aaI62
a(lp99
I3
aI4
aI7
aI9
aa(lp100
I2
aI7
aa(lp101
I2
aI7
aa(lp102
I9
aa(lp103
I9
aa(lp104
I9
aaI18
a(lp105
I9
aa(lp106
I5
aaI152
a(lp107
I2
aI7
aa(lp108
I9
aa(lp109
I9
aa(lp110
I2
aI7
aa(lp111
I2
aI7
aa(lp112
I5
aa(lp113
I5
aaI62
a(lp114
I5
aaI62
a(lp115
I0
aI1
aI2
aI3
aI5
aI6
aI7
aI8
aI9
aa(lp116
I5
aaI153
a(lp117
I9
aa(lp118
I9
aaI13
aI112
aI122
aI62
aI132
aI62
a(lp119
I9
aaI15
aI152
a(lp120
I2
aI7
aa(lp121
I2
aI3
aI4
aI6
aI7
aI8
aa(lp122
I2
aI7
aa(lp123
I9
aaa(lp124
I16
aI7
aI152
a(lp125
I3
aaI101
a(lp126
I3
aI4
aI7
aI9
aa(lp127
I9
aa(lp128
I0
aI1
aaI16
a(lp129
I2
aI7
aa(lp130
I2
aI7
aa(lp131
I9
aa(lp132
I9
aaI60
a(lp133
I0
aI1
aaI16
aI170
a(lp134
I4
aI9
aa(lp135
I0
aI1
aI6
aa(lp136
I0
aI1
aI6
aaI152
a(lp137
I5
aa(lp138
I5
aaI16
a(lp139
I4
aI9
aa(lp140
I0
aI1
aI2
aI3
aI5
aI6
aI7
aI8
aI9
aa(lp141
I8
aaI161
aI122
aI112
aI112
aI16
a(lp142
I2
aI7
aa(lp143
I2
aI7
aa(lp144
I9
aaI16
a(lp145
I4
aa(lp146
I9
aa(lp147
I9
aa(lp148
I5
aa(lp149
I9
aa(lp150
I9
aa(lp151
I4
aa(lp152
I9
aa(lp153
I5
aa(lp154
I5
aaI152
a(lp155
I3
aI4
aI7
aI9
aa(lp156
I5
aa(lp157
I5
aa(lp158
I0
aI1
aa(lp159
I2
aI3
aI4
aI6
aI7
aI8
aa(lp160
I3
aI4
aI7
aI9
aa(lp161
I3
aI4
aI7
aI9
aa(lp162
I2
aI3
aI4
aI6
aI7
aI8
aa(lp163
I4
aI9
aaa(lp164
I64
aI121
aI121
a(lp165
I9
aa(lp166
I3
aI4
aI7
aI9
aa(lp167
I2
aI3
aI4
aI6
aI7
aI8
aaI97
a(lp168
I5
aaI117
a(lp169
I9
aa(lp170
I4
aa(lp171
I9
aaI61
a(lp172
I4
aa(lp173
I9
aa(lp174
I2
aI7
aa(lp175
I8
aa(lp176
I0
aI1
aa(lp177
I0
aI1
aa(lp178
I0
aI1
aa(lp179
I8
aaI111
a(lp180
I0
aI1
aI2
aI3
aI5
aI6
aI7
aI8
aI9
aa(lp181
I0
aI1
aI6
aaI64
aI160
aI160
aI160
a(lp182
I8
aaI138
a(lp183
I0
aI1
aI2
aI3
aI5
aI6
aI7
aI8
aI9
aaI152
aI36
aI34
a(lp184
I0
aI1
aaI34
aI112
aI112
a(lp185
I4
aa(lp186
I8
aa(lp187
I8
aaI142
a(lp188
I4
aaI112
aI34
aI138
a(lp189
I4
aaI36
aI34
a(lp190
I1
aI4
aI6
aI8
aa(lp191
I4
aa(lp192
I9
aaI96
a(lp193
I4
aaa(lp194
I60
a(lp195
I5
aaI160
aI112
a(lp196
I0
aI1
aI2
aI3
aI5
aI6
aI7
aI8
aI9
aaI16
aI112
aI16
a(lp197
I9
aa(lp198
I9
aa(lp199
I9
aa(lp200
I5
aa(lp201
I1
aI4
aI6
aI8
aaI112
a(lp202
I9
aa(lp203
I9
aa(lp204
I9
aa(lp205
I0
aI1
aI2
aI3
aI5
aI6
aI7
aI8
aI9
aa(lp206
I9
aa(lp207
I9
aa(lp208
I9
aaI178
aI112
aI82
a(lp209
I9
aa(lp210
I5
aaI111
aa(lp211
I90
aI46
aI90
aI15
aI46
a(lp212
I8
aaI46
aI138
aI121
aI46
aI36
aI36
a(lp213
I2
aI3
aI4
aI6
aI7
aI8
aaI90
aI78
aI33
aI46
aI46
a(lp214
I8
aaI152
aI46
a(lp215
I4
aa(lp216
I2
aI7
aaI160
aI160
aI160
aI138
a(lp217
I0
aI1
aI2
aI3
aI5
aI6
aI7
aI8
aI9
aa(lp218
I8
aa(lp219
I8
aaI13
a(lp220
I8
aaI161
aI161
a(lp221
I8
aaI112
aI152
aI152
aI112
aI152
aI112
a(lp222
I1
aI4
aI6
aI8
aa(lp223
I5
aaI161
aa(lp224
I33
a(lp225
I4
aaI152
aI160
a(lp226
I9
aaI122
a(lp227
I9
aaI163
a(lp228
I0
aI1
aaI33
a(lp229
I0
aI1
aaI90
a(lp230
I9
aa(lp231
I9
aaI58
a(lp232
I2
aI7
aaI60
aI139
a(lp233
I9
aaI121
a(lp234
I9
aa(lp235
I5
aaI61
a(lp236
I5
aa(lp237
I8
aaI138
a(lp238
I8
aa(lp239
I9
aa(lp240
I9
aaI146
aI117
aI160
aI170
aI160
aI160
aI160
aI138
aI146
a(lp241
I9
aaI69
a(lp242
I0
aI1
aI2
aI3
aI5
aI6
aI7
aI8
aI9
aa(lp243
I5
aaI121
a(lp244
I4
aa(lp245
I9
aa(lp246
I9
aa(lp247
I3
aI4
aI7
aI9
aa(lp248
I5
aa(lp249
I8
aa(lp250
I8
aa(lp251
I9
aa(lp252
I8
aaI69
a(lp253
I9
aa(lp254
I2
aI7
aa(lp255
I9
aaI170
aI152
aI152
a(lp256
I9
aa(lp257
I9
aaI112
aI152
aI152
aI139
aI146
a(lp258
I5
aaI35
a(lp259
I4
aaI69
a(lp260
I4
aaI35
a(lp261
I9
aaI95
aI94
aI94
a(lp262
I8
aa(lp263
I8
aa(lp264
I9
aa(lp265
I9
aaI163
aI149
a(lp266
I9
aa(lp267
I5
aa(lp268
I5
aaa(lp269
(lp270
I2
aI7
aa(lp271
I2
aI7
aaI167
a(lp272
I2
aI7
aa(lp273
I1
aI4
aI6
aI8
aa(lp274
I8
aaI61
a(lp275
I8
aa(lp276
I5
aaI9
aI9
aI111
aI111
aI152
aI86
aI152
a(lp277
I2
aI7
aa(lp278
I9
aa(lp279
I8
aa(lp280
I8
aaI112
a(lp281
I8
aa(lp282
I8
aa(lp283
I4
aa(lp284
I9
aa(lp285
I9
aa(lp286
I8
aaI138
a(lp287
I8
aa(lp288
I9
aa(lp289
I9
aaI149
aI17
aI69
a(lp290
I0
aI1
aI6
aa(lp291
I0
aI1
aI2
aI3
aI5
aI6
aI7
aI8
aI9
aa(lp292
I0
aI1
aI2
aI3
aI5
aI6
aI7
aI8
aI9
aaI137
aI143
a(lp293
I9
aa(lp294
I0
aI1
aI6
aa(lp295
I2
aI7
aaI61
a(lp296
I3
aI4
aI7
aI9
aa(lp297
I3
aI4
aI7
aI9
aaI160
a(lp298
I3
aI4
aI7
aI9
aa(lp299
I8
aaI96
a(lp300
I8
aaI170
a(lp301
I4
aa(lp302
I4
aa(lp303
I4
aa(lp304
I4
aa(lp305
I8
aaI137
a(lp306
I2
aI7
aaI69
a(lp307
I9
aa(lp308
I9
aaI149
aI19
aI19
aI19
aI113
aI113
aI181
aI181
aI152
a(lp309
I4
aa(lp310
I9
aa(lp311
I8
aa(lp312
I9
aa(lp313
I9
aaI139
a(lp314
I9
aa(lp315
I8
aaI133
a(lp316
I5
aaI170
a(lp317
I5
aa(lp318
I1
aI4
aI6
aI8
aaI170
aI160
a(lp319
I0
aI1
aI2
aI3
aI5
aI6
aI7
aI8
aI9
aa(lp320
I4
aa(lp321
I4
aaI160
a(lp322
I3
aI4
aI7
aI9
aa(lp323
I3
aI4
aI7
aI9
aa(lp324
I3
aI4
aI7
aI9
aa(lp325
I2
aI3
aI4
aI6
aI7
aI8
aaI149
a(lp326
I3
aI4
aI7
aI9
aa(lp327
I3
aI4
aI7
aI9
aaa(lp328
(lp329
I2
aI3
aI4
aI6
aI7
aI8
aaI61
a(lp330
I8
aaI94
a(lp331
I0
aI1
aI2
aI3
aI5
aI6
aI7
aI8
aI9
aa(lp332
I0
aI1
aI2
aI3
aI5
aI6
aI7
aI8
aI9
aaI152
aI21
a(lp333
I1
aI4
aI6
aI8
aaI61
aI61
aI152
aI152
aI61
aI94
aI53
a(lp334
I2
aI3
aI4
aI6
aI7
aI8
aa(lp335
I4
aaI152
aI152
aa(lp336
(lp337
I1
aI4
aI6
aI8
aaI112
aI71
a(lp338
I8
aa(lp339
I8
aaI112
a(lp340
I9
aaI152
aI121
a(lp341
I5
aaI152
a(lp342
I4
aaI137
a(lp343
I0
aI1
aI6
aa(lp344
I0
aI1
aI6
aa(lp345
I0
aI1
aI6
aaI17
aI152
aI161
a(lp346
I8
aaI152
aI112
a(lp347
I8
aaI112
a(lp348
I5
aaI112
a(lp349
I2
aI3
aI4
aI6
aI7
aI8
aaI136
a(lp350
I9
aa(lp351
I8
aa(lp352
I8
aaI160
a(lp353
I0
aI1
aI2
aI3
aI5
aI6
aI7
aI8
aI9
aa(lp354
I0
aI1
aI2
aI3
aI5
aI6
aI7
aI8
aI9
aa(lp355
I9
aa(lp356
I9
aa(lp357
I9
aaI26
a(lp358
I0
aI1
aI2
aI3
aI5
aI6
aI7
aI8
aI9
aaI121
aI121
aI152
a(lp359
I9
aaI112
a(lp360
I8
aaI112
aI112
a(lp361
I9
aa(lp362
I9
aa(lp363
I1
aI4
aI6
aI8
aaI152
aI161
aI161
aI112
aI112
aI58
aI121
aI161
aI112
aI153
a(lp364
I5
aaI83
aa(lp365
(lp366
I3
aI4
aI7
aI9
aa(lp367
I9
aa(lp368
I3
aI4
aI7
aI9
aaI69
a(lp369
I3
aI4
aI7
aI9
aa(lp370
I8
aa(lp371
I0
aI1
aI2
aI3
aI5
aI6
aI7
aI8
aI9
aa(lp372
I3
aI4
aI7
aI9
aa(lp373
I9
aa(lp374
I2
aI3
aI4
aI6
aI7
aI8
aaI149
aI34
a(lp375
I0
aI1
aI2
aI3
aI5
aI6
aI7
aI8
aI9
aa(lp376
I4
aaI19
a(lp377
I0
aI1
aI2
aI3
aI5
aI6
aI7
aI8
aI9
aa(lp378
I2
aI3
aI4
aI6
aI7
aI8
aa(lp379
I2
aI3
aI4
aI6
aI7
aI8
aa(lp380
I8
aaI152
a(lp381
I8
aa(lp382
I8
aaI111
a(lp383
I9
aa(lp384
I2
aI7
aaI160
a(lp385
I1
aI4
aI6
aI8
aa(lp386
I4
aaI117
a(lp387
I8
aaI160
aI152
a(lp388
I4
aaI121
aI121
a(lp389
I1
aI4
aI6
aI8
aa(lp390
I0
aI1
aI2
aI3
aI5
aI6
aI7
aI8
aI9
aa(lp391
I9
aa(lp392
I2
aI3
aI4
aI6
aI7
aI8
aaI19
aI19
aI19
aI18
aI112
a(lp393
I4
aaI90
aI90
aI152
aI152
aI6
aI137
aI6
aI122
a(lp394
I9
aaI34
a(lp395
I9
aaI90
a(lp396
I9
aaI152
aI152
a(lp397
I0
aI1
aI2
aI3
aI5
aI6
aI7
aI8
aI9
aa(lp398
I0
aI1
aI2
aI3
aI5
aI6
aI7
aI8
aI9
aa(lp399
I2
aI3
aI4
aI6
aI7
aI8
aaI111
aI111
a(lp400
I8
aa(lp401
I4
aaI152
a(lp402
I4
aaI34
a(lp403
I4
aa(lp404
I9
aa(lp405
I9
aaI122
a(lp406
I4
aaI160
a(lp407
I5
aa(lp408
I5
aaI113
a(lp409
I9
aa(lp410
I9
aaI152
aa(lp411
(lp412
I4
aa(lp413
I9
aa(lp414
I9
aaI69
aI71
aI160
a(lp415
I5
aaI33
aI64
a(lp416
I5
aa(lp417
I5
aaI112
a(lp418
I0
aI1
aI2
aI3
aI5
aI6
aI7
aI8
aI9
aaI170
aI19
aI19
aI19
aI19
aI19
aI19
a(lp419
I9
aa(lp420
I9
aaI137
aI137
aI33
aI152
aI112
a(lp421
I8
aa(lp422
I0
aI1
aI2
aI3
aI5
aI6
aI7
aI8
aI9
aa(lp423
I0
aI1
aI6
aa(lp424
I9
aaI94
aI153
a(lp425
I5
aaI69
aI137
aI69
aI137
aI19
aI19
aI19
aI181
aI109
aI152
aI33
aI152
a(lp426
I9
aaI33
aI10
a(lp427
I5
aaI10
aa(lp428
(lp429
I4
aa(lp430
I9
aa(lp431
I9
aa(lp432
I9
aaI170
aI146
a(lp433
I4
aaI60
a(lp434
I9
aaI94
aI78
aI17
aI33
a(lp435
I9
aa(lp436
I9
aa(lp437
I9
aaI94
a(lp438
I5
aaI61
a(lp439
I4
aI9
aa(lp440
I4
aI9
aaI160
a(lp441
I9
aaI33
aI33
a(lp442
I8
aa(lp443
I9
aa(lp444
I5
aaI94
aI152
aI149
a(lp445
I9
aaI69
aI69
a(lp446
I9
aa(lp447
I5
aaI54
aI112
aI25
a(lp448
I0
aI1
aI2
aI3
aI5
aI6
aI7
aI8
aI9
aa(lp449
I9
aa(lp450
I4
aa(lp451
I4
aa(lp452
I4
aaa(lp453
(lp454
I9
aa(lp455
I8
aa(lp456
I8
aa(lp457
I8
aaI16
aI78
aI43
a(lp458
I5
aa(lp459
I9
aa(lp460
I5
aaI117
a(lp461
I3
aI4
aI7
aI9
aa(lp462
I0
aI1
aI2
aI3
aI5
aI6
aI7
aI8
aI9
aa(lp463
I9
aa(lp464
I9
aa(lp465
I5
aa(lp466
I0
aI1
aaI121
a(lp467
I0
aI1
aa(lp468
I9
aa(lp469
I4
aa(lp470
I5
aa(lp471
I9
aa(lp472
I9
aa(lp473
I9
aa(lp474
I9
aaI43
a(lp475
I9
aa(lp476
I9
aa(lp477
I9
aa(lp478
I9
aa(lp479
I9
aaa(lp480
(lp481
I9
aa(lp482
I9
aaI152
a(lp483
I5
aaI152
aI152
aI7
a(lp484
I9
aa(lp485
I9
aa(lp486
I9
aaI90
a(lp487
I5
aa(lp488
I5
aa(lp489
I5
aa(lp490
I5
aa(lp491
I9
aa(lp492
I9
aa(lp493
I9
aa(lp494
I5
aaI6
aI138
a(lp495
I4
aI9
aa(lp496
I9
aa(lp497
I4
aI9
aaI94
a(lp498
I5
aa(lp499
I3
aI4
aI7
aI9
aa(lp500
I0
aI1
aI2
aI3
aI5
aI6
aI7
aI8
aI9
aaI112
a(lp501
I9
aaI111
a(lp502
I3
aI4
aI7
aI9
aa(lp503
I3
aI4
aI7
aI9
aa(lp504
I5
aa(lp505
I9
aaa(lp506
(lp507
I2
aI7
aaI28
aI149
a(lp508
I4
aI9
aa(lp509
I9
aaI112
a(lp510
I0
aI1
aI2
aI3
aI5
aI6
aI7
aI8
aI9
aa(lp511
I9
aaI137
aI97
a(lp512
I5
aa(lp513
I2
aI7
aaI170
aI16
aI16
aI97
aI16
aI90
a(lp514
I9
aaI111
aI16
a(lp515
I5
aaI21
aI36
aI36
aI36
aI137
aI36
aI2
aI117
aI138
a(lp516
I9
aa(lp517
I3
aaI152
a(lp518
I9
aa(lp519
I3
aI4
aI7
aI9
aaI138
aI25
a(lp520
I9
aaI18
aI121
a(lp521
I9
aa(lp522
I0
aI1
aaI19
a(lp523
I0
aI1
aa(lp524
I0
aI1
aaI111
aI137
a(lp525
I2
aI3
aI4
aI6
aI7
aI8
aa(lp526
I9
aa(lp527
I8
aa(lp528
I9
aaa(lp529
I160
a(lp530
I5
aaI112
aI113
aI112
aI160
a(lp531
I0
aI1
aI2
aI3
aI5
aI6
aI7
aI8
aI9
aaI112
aI112
a(lp532
I5
aa(lp533
I5
aa(lp534
I5
aa(lp535
I2
aI7
aa(lp536
I5
aaI77
a(lp537
I4
aI9
aa(lp538
I4
aI9
aaI112
aI2
aI152
a(lp539
I0
aI1
aI2
aI3
aI5
aI6
aI7
aI8
aI9
aaI112
aI112
aI112
a(lp540
I0
aI1
aI6
aaI19
a(lp541
I9
aaI19
aI19
aI19
aI162
a(lp542
I9
aaI112
a(lp543
I5
aaI69
a(lp544
I5
aaI18
aI125
a(lp545
I8
aa(lp546
I5
aa(lp547
I9
aa(lp548
I5
aa(lp549
I2
aI7
aa(lp550
I9
aa(lp551
I5
aa(lp552
I5
aa(lp553
I5
aaI152
aI162
aI19
aI19
a(lp554
I3
aI4
aI7
aI9
aaI152
aI18
aI62
aI152
a(lp555
I4
aaI160
a(lp556
I9
aaI77
a(lp557
I9
aa(lp558
I9
aa(lp559
I5
aa(lp560
I5
aa(lp561
I9
aa(lp562
I3
aI4
aI7
aI9
aa(lp563
I9
aaI152
aI152
aa(lp564
(lp565
I9
aa(lp566
I9
aa(lp567
I9
aaI122
a(lp568
I9
aa(lp569
I9
aaI122
aI122
a(lp570
I0
aI1
aI6
aa(lp571
I9
aaI16
a(lp572
I9
aaI16
aI149
a(lp573
I9
aa(lp574
I0
aI1
aa(lp575
I0
aI1
aI6
aaI152
aI62
a(lp576
I9
aaI181
aI152
aI170
aI143
aI143
aI178
a(lp577
I3
aaI16
aI16
aI19
aI19
aI138
a(lp578
I9
aa(lp579
I2
aI7
aaI122
aI19
aI94
a(lp580
I9
aaI60
aI22
aI18
a(lp581
I9
aaI146
aI170
aI152
a(lp582
I0
aI1
aI2
aI3
aI5
aI6
aI7
aI8
aI9
aaI169
a(lp583
I0
aI1
aaI122
aI134
aI44
a(lp584
I5
aa(lp585
I2
aI7
aaI16
a(lp586
I9
aa(lp587
I3
aaI117
a(lp588
I3
aa(lp589
I3
aaI122
aI149
aI62
aI62
aI139
aI69
a(lp590
I2
aI7
aa(lp591
I9
aa(lp592
I5
aaI143
a(lp593
I0
aI1
aI6
aa(lp594
I9
aaI160
a(lp595
I0
aI1
aI6
aaI160
a(lp596
I2
aI7
aa(lp597
I5
aa(lp598
I5
aaI143
aI143
aI137
a(lp599
I5
aa(lp600
I9
aa(lp601
I4
aaa(lp602
I34
aI95
a(lp603
I4
aaI34
aI34
a(lp604
I9
aa(lp605
I4
aaI6
aI6
aI77
aI149
aI124
aI161
aI152
aI152
aI24
a(lp606
I2
aI7
aaI152
aI152
aI133
a(lp607
I9
aaI13
aI34
aI181
a(lp608
I5
aaI77
aI34
aI33
aI33
aI161
aI137
aI95
aI95
a(lp609
I9
aaI95
aI34
aI44
a(lp610
I9
aa(lp611
I3
aI4
aI7
aI9
aaI152
a(lp612
I5
aa(lp613
I3
aI4
aI7
aI9
aa(lp614
I0
aI1
aI2
aI3
aI5
aI6
aI7
aI8
aI9
aaI25
aI34
a(lp615
I9
aaI34
a(lp616
I9
aaI33
a(lp617
I4
aa(lp618
I4
aa(lp619
I9
aa(lp620
I2
aI7
aaI34
aI174
aI174
aI34
a(lp621
I5
aa(lp622
I2
aI7
aa(lp623
I0
aI1
aa(lp624
I9
aa(lp625
I9
aaI33
a(lp626
I4
aaI34
a(lp627
I0
aI1
aI2
aI3
aI5
aI6
aI7
aI8
aI9
aa(lp628
I9
aaI34
a(lp629
I8
aa(lp630
I8
aa(lp631
I8
aa(lp632
I9
aa(lp633
I9
aaI139
a(lp634
I9
aa(lp635
I2
aI3
aI4
aI6
aI7
aI8
aa(lp636
I3
aI4
aI7
aI9
aa(lp637
I4
aaa(lp638
(lp639
I9
aa(lp640
I0
aI1
aI2
aI3
aI5
aI6
aI7
aI8
aI9
aaI152
a(lp641
I4
aaI6
aI46
aI138
a(lp642
I4
aaI152
aI149
a(lp643
I2
aI7
aaI142
aI122
a(lp644
I0
aI1
aa(lp645
I2
aI7
aaI113
a(lp646
I9
aa(lp647
I0
aI1
aa(lp648
I0
aI1
aa(lp649
I4
aaI137
a(lp650
I4
aa(lp651
I9
aa(lp652
I0
aI1
aaI149
aI149
a(lp653
I9
aaI149
aI149
aI149
aI16
a(lp654
I5
aa(lp655
I8
aaI181
aI94
aI94
a(lp656
I8
aaI73
aI61
aI94
aI16
aI94
aI16
a(lp657
I5
aaI94
a(lp658
I9
aa(lp659
I5
aa(lp660
I0
aI1
aI2
aI3
aI5
aI6
aI7
aI8
aI9
aa(lp661
I5
aa(lp662
I9
aa(lp663
I9
aa(lp664
I0
aI1
aI6
aa(lp665
I9
aaI34
aI142
aI17
aI16
a(lp666
I0
aI1
aaI34
a(lp667
I0
aI1
aa(lp668
I0
aI1
aaI94
aI149
aI149
a(lp669
I4
aaI34
aI60
aI2
aI153
a(lp670
I5
aaI34
a(lp671
I9
aa(lp672
I2
aI7
aa(lp673
I5
aa(lp674
I9
aaI7
a(lp675
I5
aaI15
a(lp676
I5
aa(lp677
I5
aaI170
aI170
a(lp678
I5
aa(lp679
I2
aa(lp680
I5
aa(lp681
I5
aa(lp682
I2
aa(lp683
I8
aaI142
aI34
aI34
aI34
a(lp684
I9
aa(lp685
I9
aaI181
a(lp686
I0
aI1
aa(lp687
I4
aa(lp688
I4
aaI112
a(lp689
I9
aaI60
aI7
aI112
aI170
a(lp690
I8
aa(lp691
I8
aaI69
aI64
a(lp692
I8
aaI142
a(lp693
I4
aa(lp694
I9
aa(lp695
I9
aaI16
a(lp696
I9
aa(lp697
I9
aaI181
aI16
aI16
aI16
aI152
a(lp698
I2
aI7
aaI152
aa(lp699
(lp700
I9
aa(lp701
I1
aI4
aI6
aI8
aaI112
aI160
a(lp702
I8
aa(lp703
I0
aI1
aa(lp704
I3
aI4
aI7
aI9
aaI117
a(lp705
I0
aI1
aI6
aaI149
aI149
aI152
aI112
aI152
aI152
a(lp706
I0
aI1
aaI111
aI111
a(lp707
I2
aI7
aa(lp708
I0
aI1
aI6
aa(lp709
I0
aI1
aI6
aa(lp710
I0
aI1
aI6
aa(lp711
I1
aI4
aI6
aI8
aaI33
a(lp712
I0
aI1
aa(lp713
I0
aI1
aaI160
a(lp714
I8
aa(lp715
I9
aa(lp716
I0
aI1
aI6
aaI139
aI21
aI137
aI137
aI142
aI13
aI111
aI17
aI160
a(lp717
I3
aI4
aI7
aI9
aa(lp718
I3
aI4
aI7
aI9
aa(lp719
I9
aa(lp720
I3
aI4
aI7
aI9
aa(lp721
I2
aI3
aI4
aI6
aI7
aI8
aaI17
aI112
aI19
aI152
a(lp722
I9
aaI152
a(lp723
I4
aa(lp724
I8
aa(lp725
I4
aa(lp726
I8
aa(lp727
I0
aI1
aI6
aa(lp728
I0
aI1
aaI127
a(lp729
I0
aI1
aa(lp730
I0
aI1
aa(lp731
I0
aI1
aI2
aI3
aI5
aI6
aI7
aI8
aI9
aa(lp732
I0
aI1
aI6
aaI160
aI160
a(lp733
I0
aI1
aI6
aa(lp734
I0
aI1
aI6
aa(lp735
I0
aI1
aa(lp736
I0
aI1
aa(lp737
I9
aa(lp738
I9
aa(lp739
I9
aa(lp740
I9
aa(lp741
I5
aaa(lp742
I71
a(lp743
I3
aI4
aI7
aI9
aa(lp744
I9
aa(lp745
I5
aa(lp746
I9
aa(lp747
I9
aa(lp748
I8
aa(lp749
I9
aa(lp750
I9
aa(lp751
I9
aa(lp752
I2
aI3
aI4
aI6
aI7
aI8
aa(lp753
I9
aa(lp754
I9
aa(lp755
I9
aa(lp756
I9
aa(lp757
I9
aa(lp758
I2
aI7
aa(lp759
I9
aa(lp760
I3
aI4
aI7
aI9
aa(lp761
I3
aI4
aI7
aI9
aa(lp762
I9
aa(lp763
I9
aa(lp764
I9
aa(lp765
I5
aa(lp766
I9
aa(lp767
I9
aaI60
a(lp768
I0
aI1
aI2
aI3
aI5
aI6
aI7
aI8
aI9
aa(lp769
I9
aa(lp770
I9
aa(lp771
I9
aa(lp772
I9
aa(lp773
I9
aa(lp774
I9
aa(lp775
I9
aa(lp776
I9
aa(lp777
I9
aa(lp778
I9
aa(lp779
I5
aaI170
a(lp780
I3
aI4
aI7
aI9
aaI160
a(lp781
I3
aI4
aI7
aI9
aa(lp782
I3
aI4
aI7
aI9
aa(lp783
I3
aI4
aI7
aI9
aa(lp784
I9
aa(lp785
I9
aa(lp786
I5
aa(lp787
I5
aa(lp788
I1
aI4
aI6
aI8
aa(lp789
I1
aI4
aI6
aI8
aa(lp790
I9
aa(lp791
I9
aaa(lp792
(lp793
I0
aI1
aa(lp794
I0
aI1
aaI152
aI152
aI7
aI138
aI111
a(lp795
I0
aI1
aI2
aI3
aI5
aI6
aI7
aI8
aI9
aa(lp796
I9
aaI122
aI115
aI94
aI7
aI60
aI142
a(lp797
I8
aa(lp798
I0
aI1
aa(lp799
I9
aaI7
aI60
a(lp800
I8
aaI7
aI152
a(lp801
I8
aaI94
aI7
aI111
aI111
a(lp802
I9
aaI111
a(lp803
I1
aI4
aI6
aI8
aa(lp804
I1
aI4
aI6
aI8
aa(lp805
I1
aI4
aI6
aI8
aaI17
aI17
a(lp806
I0
aI1
aa(lp807
I0
aI1
aa(lp808
I0
aI1
aa(lp809
I2
aI3
aI4
aI6
aI7
aI8
aa(lp810
I5
aaI170
aI124
aI71
a(lp811
I9
aaI115
a(lp812
I0
aI1
aI2
aI3
aI5
aI6
aI7
aI8
aI9
aaI60
a(lp813
I9
aaI22
aI86
aI60
a(lp814
I4
aaI86
aI56
aI7
aI61
aI61
a(lp815
I8
aaI62
aI71
a(lp816
I8
aa(lp817
I8
aa(lp818
I8
aa(lp819
I8
aaI86
aI94
a(lp820
I9
aa(lp821
I1
aI4
aI6
aI8
aa(lp822
I1
aI4
aI6
aI8
aaI95
aI62
a(lp823
I9
aaa(lp824
I71
aI71
a(lp825
I8
aaI161
a(lp826
I0
aI1
aa(lp827
I0
aI1
aaI60
a(lp828
I9
aa(lp829
I9
aaI90
a(lp830
I5
aaI21
a(lp831
I0
aI1
aI2
aI3
aI5
aI6
aI7
aI8
aI9
aaI94
a(lp832
I0
aI1
aaI71
aI172
a(lp833
I0
aI1
aI6
aa(lp834
I2
aI7
aa(lp835
I4
aa(lp836
I4
aa(lp837
I9
aaI60
a(lp838
I5
aa(lp839
I1
aI4
aI6
aI8
aaI60
aI121
aI111
aI69
a(lp840
I8
aaI10
a(lp841
I4
aaI71
aI71
a(lp842
I5
aa(lp843
I1
aI4
aI6
aI8
aaI94
aI71
a(lp844
I9
aa(lp845
I9
aa(lp846
I5
aaI77
aI69
aa(lp847
I69
aI69
aI152
a(lp848
I5
aa(lp849
I9
aaI64
a(lp850
I9
aaI94
aI149
aI112
aI149
a(lp851
I9
aa(lp852
I9
aa(lp853
I9
aa(lp854
I9
aaI112
aI95
aI6
aI95
aI95
a(lp855
I1
aI4
aI6
aI8
aaI152
a(lp856
I9
aa(lp857
I9
aaI139
a(lp858
I9
aa(lp859
I9
aaI62
a(lp860
I0
aI1
aa(lp861
I0
aI1
aaI138
a(lp862
I9
aa(lp863
I9
aa(lp864
I9
aa(lp865
I9
aa(lp866
I0
aI1
aaI13
aI43
aI43
a(lp867
I0
aI1
aaI43
a(lp868
I5
aaI121
aI56
a(lp869
I2
aI7
aa(lp870
I4
aa(lp871
I9
aa(lp872
I9
aa(lp873
I9
aaI64
a(lp874
I0
aI1
aI2
aI3
aI5
aI6
aI7
aI8
aI9
aaI16
a(lp875
I9
aa(lp876
I9
aa(lp877
I9
aaI149
a(lp878
I9
aaI112
a(lp879
I0
aI1
aaI90
aI138
aI112
a(lp880
I8
aa(lp881
I9
aa(lp882
I8
aaI16
aI97
a(lp883
I9
aaI43
aI142
aI43
aI17
aI62
aI25
aI62
a(lp884
I9
aaI52
a(lp885
I0
aI1
aI6
aa(lp886
I9
aa(lp887
I9
aaI43
aI112
aI138
a(lp888
I9
aa(lp889
I9
aaI60
a(lp890
I0
aI1
aa(lp891
I9
aaI149
a(lp892
I9
aaI152
a(lp893
I0
aI1
aI6
aa(lp894
I0
aI1
aI6
aaI19
aI19
aI19
a(lp895
I0
aI1
aa(lp896
I4
aaI152
a(lp897
I8
aa(lp898
I5
aaI64
aI6
a(lp899
I9
aa(lp900
I0
aI1
aI6
aaI69
aI69
aa(lp901
(lp902
I4
aa(lp903
I4
aaI6
aI6
a(lp904
I4
aaI35
a(lp905
I4
aaI152
aI181
a(lp906
I8
aa(lp907
I8
aaI62
aI62
a(lp908
I8
aaI71
aI152
aI16
aI111
aI62
aI62
aI62
aI62
a(lp909
I4
aa(lp910
I4
aaI125
a(lp911
I4
aaI16
aI35
a(lp912
I0
aI1
aI2
aI3
aI5
aI6
aI7
aI8
aI9
aaI18
aI138
aI64
a(lp913
I9
aa(lp914
I4
aaI33
a(lp915
I4
aaI152
a(lp916
I4
aa(lp917
I4
aa(lp918
I4
aa(lp919
I2
aI3
aI4
aI6
aI7
aI8
aaI6
a(lp920
I4
aaI58
a(lp921
I4
aaI152
a(lp922
I4
aa(lp923
I4
aa(lp924
I4
aaI127
a(lp925
I8
aa(lp926
I8
aa(lp927
I0
aI1
aa(lp928
I5
aaI152
aI16
aI16
a(lp929
I4
aa(lp930
I4
aaI62
aI112
aI152
a(lp931
I3
aI4
aI7
aI9
aaI121
aI95
aI54
a(lp932
I9
aaI29
aI58
aI134
aI152
a(lp933
I4
aa(lp934
I4
aa(lp935
I4
aa(lp936
I4
aa(lp937
I9
aa(lp938
I9
aa(lp939
I8
aa(lp940
I1
aI4
aI6
aI8
aa(lp941
I9
aa(lp942
I4
aaI16
aI62
aI58
a(lp943
I4
aa(lp944
I2
aI7
aaI53
a(lp945
I9
aa(lp946
I4
aa(lp947
I8
aaI35
a(lp948
I8
aa(lp949
I3
aI4
aI7
aI9
aaa(lp950
(lp951
I9
aaI13
a(lp952
I5
aa(lp953
I0
aI1
aa(lp954
I0
aI1
aI6
aa(lp955
I0
aI1
aI2
aI3
aI5
aI6
aI7
aI8
aI9
aa(lp956
I0
aI1
aa(lp957
I5
aa(lp958
I9
aaa(lp959
(lp960
I9
aaI9
aI138
aI62
aI36
a(lp961
I5
aaI17
a(lp962
I9
aaI16
a(lp963
I3
aI4
aI7
aI9
aa(lp964
I9
aaI122
aI122
aI122
aI16
a(lp965
I9
aa(lp966
I0
aI1
aaI33
aI58
aI117
aI117
a(lp967
I4
aa(lp968
I5
aaI62
a(lp969
I3
aI4
aI7
aI9
aaI117
a(lp970
I5
aaI117
aI170
aI122
a(lp971
I9
aa(lp972
I9
aaI152
aI152
aI152
a(lp973
I5
aa(lp974
I9
aa(lp975
I9
aaI112
aI112
a(lp976
I0
aI1
aI2
aI3
aI5
aI6
aI7
aI8
aI9
aaI117
aI117
a(lp977
I0
aI1
aaI24
aI143
aI122
a(lp978
I9
aa(lp979
I0
aI1
aI2
aI3
aI5
aI6
aI7
aI8
aI9
aa(lp980
I5
aa(lp981
I4
aa(lp982
I4
aa(lp983
I4
aa(lp984
I4
aa(lp985
I4
aa(lp986
I4
aa(lp987
I5
aa(lp988
I5
aa(lp989
I5
aa(lp990
I9
aa(lp991
I5
aaI152
aI17
a(lp992
I0
aI1
aa(lp993
I4
aaI36
aI112
a(lp994
I5
aaI152
aI112
a(lp995
I2
aI7
aaI139
aI138
a(lp996
I5
aa(lp997
I5
aa(lp998
I5
aaI24
aI112
a(lp999
I5
aa(lp1000
I9
aa(lp1001
I0
aI1
aaI159
aI61
aI61
aI61
aI112
aI152
a(lp1002
I5
aaI58
a(lp1003
I0
aI1
aI2
aI3
aI5
aI6
aI7
aI8
aI9
aa(lp1004
I9
aaI159
aI159
aI159
aI139
aI62
a(lp1005
I5
aaI117
aI138
aI7
aI152
aI149
aI152
a(lp1006
I5
aa(lp1007
I9
aa(lp1008
I9
aa(lp1009
I5
aaI149
a(lp1010
I9
aaI9
a(lp1011
I5
aa(lp1012
I5
aa(lp1013
I5
aa(lp1014
I5
aa(lp1015
I9
aa(lp1016
I9
aa(lp1017
I0
aI1
aI6
aa(lp1018
I9
aa(lp1019
I9
aa(lp1020
I3
aI4
aI7
aI9
aaI149
a(lp1021
I5
aaI112
aI149
aI112
aI112
aI149
a(lp1022
I9
aa(lp1023
I0
aI1
aa(lp1024
I0
aI1
aa(lp1025
I8
aaI18
aI143
aI19
a(lp1026
I5
aaI170
aI152
a(lp1027
I0
aI1
aa(lp1028
I0
aI1
aaI112
aa(lp1029
I16
aI152
aI152
a(lp1030
I4
aa(lp1031
I9
aaI64
a(lp1032
I9
aaI149
aI149
a(lp1033
I9
aa(lp1034
I0
aI1
aI2
aI3
aI5
aI6
aI7
aI8
aI9
aa(lp1035
I4
aa(lp1036
I4
aa(lp1037
I4
aa(lp1038
I4
aaI152
aI25
a(lp1039
I9
aa(lp1040
I9
aaI111
aI62
a(lp1041
I5
aaI149
aI137
aI137
aI117
aI149
aI149
aI149
a(lp1042
I9
aa(lp1043
I9
aa(lp1044
I9
aaI149
aI149
aI122
a(lp1045
I0
aI1
aI2
aI3
aI5
aI6
aI7
aI8
aI9
aaI160
aI160
aI24
aI35
aI117
aI122
aI21
a(lp1046
I5
aaI117
aI152
aI137
a(lp1047
I5
aaI44
a(lp1048
I5
aa(lp1049
I5
aa(lp1050
I4
aa(lp1051
I4
aa(lp1052
I4
aa(lp1053
I4
aa(lp1054
I4
aa(lp1055
I5
aa(lp1056
I0
aI1
aaI33
aI137
aI9
aI159
a(lp1057
I4
aa(lp1058
I9
aaI36
aI138
a(lp1059
I5
aa(lp1060
I4
aaI160
a(lp1061
I4
aaI149
aI112
a(lp1062
I9
aa(lp1063
I9
aa(lp1064
I4
aaI60
aI138
aI62
aI25
aI22
aI62
a(lp1065
I9
aa(lp1066
I9
aaI161
aI160
aI160
aI160
aI160
a(lp1067
I9
aa(lp1068
I9
aaI152
aI152
a(lp1069
I9
aaI60
a(lp1070
I9
aa(lp1071
I9
aaI159
aI137
aI137
a(lp1072
I0
aI1
aa(lp1073
I8
aaI0
aI0
a(lp1074
I3
aI4
aI7
aI9
aaI149
aI117
a(lp1075
I5
aa(lp1076
I5
aa(lp1077
I0
aI1
aI2
aI3
aI5
aI6
aI7
aI8
aI9
aaI137
aI137
a(lp1078
I9
aa(lp1079
I5
aaI149
a(lp1080
I9
aaI152
aI62
aI160
aI160
aI160
aI160
a(lp1081
I9
aaa(lp1082
(lp1083
I0
aI1
aI6
aa(lp1084
I5
aaI62
a(lp1085
I0
aI1
aa(lp1086
I3
aI4
aI7
aI9
aa(lp1087
I5
aa(lp1088
I5
aa(lp1089
I5
aaI111
aI122
aI122
aI146
aI170
aI138
aI152
aI152
aI152
aI142
a(lp1090
I2
aI7
aaI61
a(lp1091
I8
aaI122
a(lp1092
I9
aa(lp1093
I5
aa(lp1094
I9
aa(lp1095
I9
aaI149
a(lp1096
I5
aaI122
a(lp1097
I5
aaI122
aI152
aI122
aI122
a(lp1098
I9
aaI152
a(lp1099
I9
aa(lp1100
I5
aa(lp1101
I5
aa(lp1102
I5
aa(lp1103
I5
aaI6
aI166
aI6
aI122
aI122
a(lp1104
I9
aa(lp1105
I0
aI1
aI2
aI3
aI5
aI6
aI7
aI8
aI9
aa(lp1106
I3
aI4
aI7
aI9
aa(lp1107
I3
aI4
aI7
aI9
aaI95
aI95
aI95
a(lp1108
I8
aaI95
a(lp1109
I9
aa(lp1110
I9
aaI122
aI122
a(lp1111
I5
aa(lp1112
I5
aaI122
aI25
aI122
aI122
aI111
a(lp1113
I3
aI4
aI7
aI9
aa(lp1114
I3
aI4
aI7
aI9
aa(lp1115
I9
aaI139
aI122
a(lp1116
I8
aaI122
aI122
aI122
a(lp1117
I8
aa(lp1118
I5
aa(lp1119
I8
aa(lp1120
I8
aa(lp1121
I5
aa(lp1122
I0
aI1
aI2
aI3
aI5
aI6
aI7
aI8
aI9
aaa(lp1123
I62
aI96
aI162
a(lp1124
I4
aa(lp1125
I3
aI4
aI7
aI9
aa(lp1126
I9
aa(lp1127
I4
aaI152
a(lp1128
I5
aaI112
a(lp1129
I4
aaI181
a(lp1130
I0
aI1
aI2
aI3
aI5
aI6
aI7
aI8
aI9
aa(lp1131
I9
aaI149
a(lp1132
I4
aaI19
aI19
aI19
a(lp1133
I9
aaI160
a(lp1134
I2
aI7
aaI160
aI170
aI181
aI62
a(lp1135
I2
aI3
aI4
aI6
aI7
aI8
aa(lp1136
I5
aa(lp1137
I9
aaI69
a(lp1138
I2
aI3
aI4
aI6
aI7
aI8
aa(lp1139
I0
aI1
aI6
aa(lp1140
I0
aI1
aI6
aaI112
a(lp1141
I5
aaI111
aa(lp1142
I15
aI117
aI153
aI18
a(lp1143
I2
aI7
aaI122
aI176
aI86
aI149
a(lp1144
I5
aaI149
aI149
a(lp1145
I5
aa(lp1146
I5
aa(lp1147
I5
aa(lp1148
I0
aI1
aI2
aI3
aI5
aI6
aI7
aI8
aI9
aa(lp1149
I3
aI4
aI7
aI9
aaI152
a(lp1150
I0
aI1
aa(lp1151
I2
aI7
aa(lp1152
I0
aI1
aa(lp1153
I4
aa(lp1154
I5
aaI71
a(lp1155
I5
aa(lp1156
I9
aa(lp1157
I0
aI1
aaI71
aI71
a(lp1158
I3
aI4
aI7
aI9
aaI149
aI60
aI86
aI122
aI170
aI149
aa(lp1159
I60
a(lp1160
I1
aI4
aI6
aI8
aaI61
aI152
aI112
a(lp1161
I0
aI1
aa(lp1162
I9
aaI33
aI90
a(lp1163
I4
aa(lp1164
I9
aa(lp1165
I9
aaI111
a(lp1166
I4
aaI152
aI61
aI62
aI152
aI49
aI111
aI94
aI94
aI117
aI117
a(lp1167
I3
aI4
aI7
aI9
aa(lp1168
I8
aa(lp1169
I0
aI1
aI2
aI3
aI5
aI6
aI7
aI8
aI9
aa(lp1170
I0
aI1
aI2
aI3
aI5
aI6
aI7
aI8
aI9
aaI36
aI81
a(lp1171
I8
aaI15
aI36
aI152
aI36
aI81
aI16
aI152
aI117
aI60
aI64
a(lp1172
I5
aa(lp1173
I9
aa(lp1174
I9
aaI111
aI60
a(lp1175
I9
aaI33
aI111
aI121
aI149
aI81
aI152
aI111
a(lp1176
I4
aaI121
aI121
aI121
aI9
a(lp1177
I9
aaI9
aI111
aI149
aI149
a(lp1178
I4
aa(lp1179
I9
aaI94
a(lp1180
I5
aa(lp1181
I5
aaI152
aI111
aI9
a(lp1182
I8
aa(lp1183
I8
aaI64
aI54
aI112
aI33
a(lp1184
I4
aaI112
aI94
aI33
aI160
a(lp1185
I9
aaI62
aI117
aI160
aI160
aI97
aI16
aI16
aI160
aI2
a(lp1186
I8
aa(lp1187
I8
aaI112
a(lp1188
I8
aaI81
aI9
aI81
a(lp1189
I4
aaI175
aI149
aI111
a(lp1190
I5
aa(lp1191
I3
aI4
aI7
aI9
aaI81
a(lp1192
I9
aaI152
a(lp1193
I9
aaI62
aI81
aI72
aI81
aI15
aI160
aI62
aa(lp1194
I36
a(lp1195
I9
aa(lp1196
I9
aaI117
a(lp1197
I5
aa(lp1198
I5
aa(lp1199
I5
aa(lp1200
I2
aI7
aaI29
aI6
aI19
a(lp1201
I9
aa(lp1202
I0
aI1
aI6
aa(lp1203
I0
aI1
aI6
aa(lp1204
I2
aI7
aaI181
a(lp1205
I0
aI1
aaI60
a(lp1206
I0
aI1
aaI94
aI117
aI36
aI7
aI137
a(lp1207
I3
aI4
aI7
aI9
aa(lp1208
I0
aI1
aI6
aa(lp1209
I0
aI1
aI6
aa(lp1210
I0
aI1
aI2
aI3
aI5
aI6
aI7
aI8
aI9
aaI94
aI113
aI16
a(lp1211
I9
aa(lp1212
I3
aI4
aI7
aI9
aa(lp1213
I4
aa(lp1214
I4
aa(lp1215
I4
aaI170
a(lp1216
I0
aI1
aI2
aI3
aI5
aI6
aI7
aI8
aI9
aa(lp1217
I3
aa(lp1218
I0
aI1
aI2
aI3
aI5
aI6
aI7
aI8
aI9
aa(lp1219
I1
aI4
aI6
aI8
aa(lp1220
I5
aa(lp1221
I0
aI1
aI2
aI3
aI5
aI6
aI7
aI8
aI9
aa(lp1222
I5
aaI7
aI86
aI36
aI21
a(lp1223
I5
aaI21
a(lp1224
I5
aaI117
a(lp1225
I9
aa(lp1226
I9
aaI16
aI28
aI28
aI7
a(lp1227
I3
aI4
aI7
aI9
aa(lp1228
I5
aaI18
aI62
aI25
aI7
aI152
aI7
aI16
aI10
aI10
aI10
aI112
aI111
aI170
a(lp1229
I3
aI4
aI7
aI9
aaa(lp1230
(lp1231
I5
aaI170
a(lp1232
I5
aa(lp1233
I3
aI4
aI7
aI9
aa(lp1234
I3
aI4
aI7
aI9
aa(lp1235
I5
aaI44
a(lp1236
I5
aa(lp1237
I0
aI1
aI2
aI3
aI5
aI6
aI7
aI8
aI9
aaI139
aI161
a(lp1238
I9
aaI111
aI69
a(lp1239
I4
aa(lp1240
I0
aI1
aI2
aI3
aI5
aI6
aI7
aI8
aI9
aa(lp1241
I9
aa(lp1242
I9
aaI62
a(lp1243
I3
aI4
aI7
aI9
aaI13
aI13
aa(lp1244
I112
aI152
a(lp1245
I9
aaI112
aI62
a(lp1246
I2
aI7
aaI170
a(lp1247
I9
aaI170
aI142
aI172
aI69
aI127
a(lp1248
I8
aa(lp1249
I8
aa(lp1250
I8
aa(lp1251
I8
aa(lp1252
I8
aa(lp1253
I9
aaI117
a(lp1254
I4
aaI95
a(lp1255
I9
aa(lp1256
I9
aa(lp1257
I9
aa(lp1258
I8
aa(lp1259
I8
aaI117
aI26
aI71
aI26
aI142
aI142
aI117
aI117
a(lp1260
I8
aa(lp1261
I8
aa(lp1262
I8
aa(lp1263
I5
aa(lp1264
I5
aa(lp1265
I2
aI7
aaI117
a(lp1266
I0
aI1
aI2
aI3
aI5
aI6
aI7
aI8
aI9
aa(lp1267
I0
aI1
aI2
aI3
aI5
aI6
aI7
aI8
aI9
aa(lp1268
I5
aa(lp1269
I2
aI3
aI4
aI6
aI7
aI8
aaI170
aI170
a(lp1270
I0
aI1
aI2
aI3
aI5
aI6
aI7
aI8
aI9
aaI94
a(lp1271
I9
aa(lp1272
I9
aa(lp1273
I5
aa(lp1274
I8
aa(lp1275
I8
aa(lp1276
I8
aa(lp1277
I8
aa(lp1278
I8
aa(lp1279
I8
aa(lp1280
I8
aa(lp1281
I5
aa(lp1282
I3
aI4
aI7
aI9
aa(lp1283
I9
aa(lp1284
I9
aa(lp1285
I9
aaI160
aI145
a(lp1286
I9
aa(lp1287
I9
aa(lp1288
I9
aaI90
a(lp1289
I9
aaI33
a(lp1290
I4
aaI181
aI181
a(lp1291
I8
aa(lp1292
I8
aa(lp1293
I8
aaI117
aI117
a(lp1294
I9
aaI152
a(lp1295
I9
aaI117
a(lp1296
I5
aa(lp1297
I0
aI1
aI2
aI3
aI5
aI6
aI7
aI8
aI9
aaI113
aI134
aI113
aI172
a(lp1298
I4
aa(lp1299
I4
aa(lp1300
I2
aI7
aa(lp1301
I9
aa(lp1302
I8
aa(lp1303
I8
aa(lp1304
I9
aaI152
a(lp1305
I9
aa(lp1306
I0
aI1
aI2
aI3
aI5
aI6
aI7
aI8
aI9
aa(lp1307
I4
aa(lp1308
I0
aI1
aI2
aI3
aI5
aI6
aI7
aI8
aI9
aa(lp1309
I9
aa(lp1310
I9
aa(lp1311
I5
aaI181
a(lp1312
I9
aa(lp1313
I8
aa(lp1314
I8
aa(lp1315
I8
aa(lp1316
I8
aa(lp1317
I0
aI1
aI2
aI3
aI5
aI6
aI7
aI8
aI9
aa(lp1318
I0
aI1
aI2
aI3
aI5
aI6
aI7
aI8
aI9
aaa(lp1319
I46
aI46
aI160
aI160
aI170
a(lp1320
I9
aa(lp1321
I3
aI4
aI7
aI9
aa(lp1322
I4
aa(lp1323
I9
aa(lp1324
I9
aa(lp1325
I3
aI4
aI7
aI9
aaI175
a(lp1326
I3
aI4
aI7
aI9
aa(lp1327
I3
aI4
aI7
aI9
aa(lp1328
I4
aa(lp1329
I5
aa(lp1330
I4
aa(lp1331
I4
aaI112
a(lp1332
I4
aaI111
aI111
a(lp1333
I9
aa(lp1334
I0
aI1
aI2
aI3
aI5
aI6
aI7
aI8
aI9
aaI121
a(lp1335
I8
aa(lp1336
I5
aa(lp1337
I8
aa(lp1338
I0
aI1
aI2
aI3
aI5
aI6
aI7
aI8
aI9
aa(lp1339
I3
aI4
aI7
aI9
aaI117
aI112
a(lp1340
I5
aaI149
a(lp1341
I3
aI4
aI7
aI9
aa(lp1342
I0
aI1
aI2
aI3
aI5
aI6
aI7
aI8
aI9
aa(lp1343
I4
aa(lp1344
I8
aaI69
aI17
aI17
aI111
aI139
a(lp1345
I8
aa(lp1346
I3
aI4
aI7
aI9
aa(lp1347
I3
aI4
aI7
aI9
aa(lp1348
I3
aI4
aI7
aI9
aa(lp1349
I3
aI4
aI7
aI9
aaI121
a(lp1350
I4
aI9
aa(lp1351
I3
aI4
aI7
aI9
aa(lp1352
I4
aaI160
aI134
aI161
a(lp1353
I0
aI1
aI2
aI3
aI5
aI6
aI7
aI8
aI9
aa(lp1354
I0
aI1
aI2
aI3
aI5
aI6
aI7
aI8
aI9
aa(lp1355
I0
aI1
aI2
aI3
aI5
aI6
aI7
aI8
aI9
aa(lp1356
I0
aI1
aI2
aI3
aI5
aI6
aI7
aI8
aI9
aaI170
aI69
aI139
a(lp1357
I4
aaI61
aa(lp1358
(lp1359
I9
aa(lp1360
I4
aa(lp1361
I4
aaI152
aI62
a(lp1362
I3
aI4
aI7
aI9
aaI117
a(lp1363
I9
aaI117
a(lp1364
I9
aa(lp1365
I3
aI4
aI7
aI9
aa(lp1366
I5
aaI61
aI152
aI152
aI152
aI160
a(lp1367
I4
aa(lp1368
I4
aa(lp1369
I9
aaI160
a(lp1370
I9
aaI10
a(lp1371
I9
aaI152
aI160
aI152
aI138
aI138
a(lp1372
I4
aaI0
a(lp1373
I0
aI1
aI2
aI3
aI5
aI6
aI7
aI8
aI9
aaI0
a(lp1374
I5
aaI44
a(lp1375
I3
aI4
aI7
aI9
aaI152
aI34
a(lp1376
I9
aaI34
a(lp1377
I0
aI1
aI2
aI3
aI5
aI6
aI7
aI8
aI9
aaI138
aI152
a(lp1378
I9
aaI170
aI111
aI18
a(lp1379
I3
aI4
aI7
aI9
aaI112
a(lp1380
I1
aI4
aI6
aI8
aaI6
a(lp1381
I3
aI4
aI7
aI9
aa(lp1382
I5
aaI149
aI121
a(lp1383
I5
aa(lp1384
I5
aaI46
a(lp1385
I3
aI4
aI7
aI9
aa(lp1386
I4
aI9
aa(lp1387
I9
aa(lp1388
I9
aa(lp1389
I3
aI4
aI7
aI9
aaI6
a(lp1390
I4
aa(lp1391
I9
aaI138
a(lp1392
I3
aI4
aI7
aI9
aaI112
a(lp1393
I2
aI3
aI4
aI6
aI7
aI8
aa(lp1394
I3
aI4
aI7
aI9
aa(lp1395
I3
aI4
aI7
aI9
aa(lp1396
I3
aI4
aI7
aI9
aaI152
a(lp1397
I3
aI4
aI7
aI9
aaa(lp1398
(lp1399
I0
aI1
aa(lp1400
I0
aI1
aaI94
aI121
a(lp1401
I8
aaI121
aI152
aI18
aI21
a(lp1402
I9
aaI9
aI153
aI152
aI149
a(lp1403
I5
aa(lp1404
I5
aa(lp1405
I5
aa(lp1406
I5
aa(lp1407
I0
aI1
aaI121
aI94
aI94
aI13
aI121
aI36
a(lp1408
I9
aaI94
aI122
a(lp1409
I9
aa(lp1410
I9
aa(lp1411
I5
aa(lp1412
I2
aaI152
aI112
aI2
a(lp1413
I5
aa(lp1414
I2
aI7
aa(lp1415
I9
aa(lp1416
I9
aaI36
aI33
aI33
a(lp1417
I0
aI1
aaI94
a(lp1418
I0
aI1
aa(lp1419
I8
aa(lp1420
I8
aa(lp1421
I9
aa(lp1422
I3
aI4
aI7
aI9
aa(lp1423
I4
aaI52
aI19
aI19
aI19
aI160
aI152
aI152
aI52
aI160
aI6
aI160
aI160
a(lp1424
I9
aaI160
a(lp1425
I9
aa(lp1426
I5
aaI21
a(lp1427
I5
aa(lp1428
I5
aa(lp1429
I5
aaI95
a(lp1430
I8
aaI170
aI112
a(lp1431
I2
aI7
aa(lp1432
I5
aaI90
aI152
aI112
a(lp1433
I5
aaI152
aI16
a(lp1434
I9
aa(lp1435
I5
aa(lp1436
I5
aa(lp1437
I9
aaI94
aI94
a(lp1438
I5
aaI117
aI121
aI121
aI181
a(lp1439
I4
aa(lp1440
I9
aa(lp1441
I9
aa(lp1442
I0
aI1
aI2
aI3
aI5
aI6
aI7
aI8
aI9
aa(lp1443
I0
aI1
aI2
aI3
aI5
aI6
aI7
aI8
aI9
aa(lp1444
I0
aI1
aI2
aI3
aI5
aI6
aI7
aI8
aI9
aa(lp1445
I9
aa(lp1446
I9
aaI112
aa(lp1447
(lp1448
I3
aI4
aI7
aI9
aa(lp1449
I5
aa(lp1450
I3
aI4
aI7
aI9
aa(lp1451
I3
aI4
aI7
aI9
aaI181
a(lp1452
I5
aa(lp1453
I5
aa(lp1454
I5
aa(lp1455
I9
aa(lp1456
I5
aaI112
a(lp1457
I5
aa(lp1458
I3
aI4
aI7
aI9
aa(lp1459
I5
aaI132
a(lp1460
I9
aa(lp1461
I3
aI4
aI7
aI9
aa(lp1462
I5
aa(lp1463
I4
aI9
aa(lp1464
I0
aI1
aI2
aI3
aI5
aI6
aI7
aI8
aI9
aa(lp1465
I5
aa(lp1466
I1
aI4
aI6
aI8
aa(lp1467
I3
aI4
aI7
aI9
aaI111
a(lp1468
I5
aa(lp1469
I0
aI1
aI2
aI3
aI5
aI6
aI7
aI8
aI9
aa(lp1470
I5
aa(lp1471
I5
aa(lp1472
I8
aa(lp1473
I8
aa(lp1474
I8
aaI170
aI136
aI170
a(lp1475
I5
aaI170
aI112
aI58
a(lp1476
I5
aaI78
aI112
a(lp1477
I3
aI4
aI7
aI9
aa(lp1478
I4
aa(lp1479
I3
aI4
aI7
aI9
aaI17
a(lp1480
I8
aa(lp1481
I5
aaI71
a(lp1482
I5
aaI112
a(lp1483
I2
aI3
aI4
aI6
aI7
aI8
aa(lp1484
I3
aI4
aI7
aI9
aa(lp1485
I3
aI4
aI7
aI9
aa(lp1486
I5
aaI112
aI152
a(lp1487
I3
aI4
aI7
aI9
aa(lp1488
I0
aI1
aI2
aI3
aI5
aI6
aI7
aI8
aI9
aaI138
aI170
a(lp1489
I3
aI4
aI7
aI9
aa(lp1490
I2
aI3
aI4
aI6
aI7
aI8
aa(lp1491
I0
aI1
aI2
aI3
aI5
aI6
aI7
aI8
aI9
aa(lp1492
I3
aI4
aI7
aI9
aa(lp1493
I3
aI4
aI7
aI9
aa(lp1494
I3
aI4
aI7
aI9
aaI112
a(lp1495
I9
aa(lp1496
I3
aI4
aI7
aI9
aaa(lp1497
I6
a(lp1498
I8
aa(lp1499
I8
aa(lp1500
I8
aa(lp1501
I8
aaI71
aI94
a(lp1502
I8
aa(lp1503
I8
aa(lp1504
I8
aa(lp1505
I9
aaI152
aI152
aI138
a(lp1506
I8
aa(lp1507
I1
aI4
aI6
aI8
aa(lp1508
I2
aI3
aI4
aI6
aI7
aI8
aaI6
aI160
aI160
a(lp1509
I8
aa(lp1510
I8
aa(lp1511
I8
aa(lp1512
I8
aaI112
a(lp1513
I8
aaI78
a(lp1514
I9
aaI152
aI152
a(lp1515
I8
aaI160
aI160
aI160
aI165
a(lp1516
I8
aa(lp1517
I8
aaI34
a(lp1518
I8
aa(lp1519
I8
aaI71
a(lp1520
I1
aI4
aI6
aI8
aa(lp1521
I4
aaI69
a(lp1522
I8
aaI71
a(lp1523
I8
aaI181
a(lp1524
I4
aaI113
a(lp1525
I8
aaI94
a(lp1526
I0
aI1
aI2
aI3
aI5
aI6
aI7
aI8
aI9
aa(lp1527
I0
aI1
aa(lp1528
I4
aaI152
aI152
a(lp1529
I4
aaI94
a(lp1530
I8
aa(lp1531
I8
aaI71
aa(lp1532
I71
aI21
aI21
a(lp1533
I2
aaI7
aI138
aI138
aI69
a(lp1534
I8
aa(lp1535
I8
aaI36
aI36
aI81
aI143
aI143
aI143
aI17
aI36
a(lp1536
I5
aa(lp1537
I9
aa(lp1538
I9
aaI152
aI36
a(lp1539
I0
aI1
aa(lp1540
I0
aI1
aa(lp1541
I9
aa(lp1542
I4
aa(lp1543
I5
aaI97
aI97
a(lp1544
I2
aa(lp1545
I2
aI7
aa(lp1546
I9
aa(lp1547
I3
aI4
aI7
aI9
aa(lp1548
I9
aaI18
aI24
aI24
aI152
aI152
aI18
a(lp1549
I9
aa(lp1550
I9
aaI24
aI24
a(lp1551
I2
aI3
aI4
aI6
aI7
aI8
aaI18
aI117
aI143
a(lp1552
I9
aa(lp1553
I2
aaI162
a(lp1554
I2
aI7
aa(lp1555
I9
aa(lp1556
I9
aa(lp1557
I9
aa(lp1558
I9
aaI36
aI36
a(lp1559
I4
aaI7
aI7
a(lp1560
I0
aI1
aI2
aI3
aI5
aI6
aI7
aI8
aI9
aaI7
a(lp1561
I9
aaI86
aI143
aI143
aI143
aI143
aI33
aI18
a(lp1562
I2
aa(lp1563
I4
aaI7
aI36
aI7
a(lp1564
I8
aaI61
aI86
aI7
aI152
a(lp1565
I8
aaI122
aI22
a(lp1566
I4
aa(lp1567
I2
aa(lp1568
I9
aa(lp1569
I9
aa(lp1570
I9
aaI60
aI7
aI7
aI134
aI36
a(lp1571
I2
aaI112
a(lp1572
I9
aaI134
aI6
aI62
aI62
aI122
aI101
aI36
aI97
aI64
a(lp1573
I4
aaI36
aI36
aI7
aI134
a(lp1574
I2
aaI122
aI143
aI159
aI97
aI143
aI152
aI152
aI152
aI152
a(lp1575
I9
aa(lp1576
I4
aa(lp1577
I2
aaI7
aI152
aI71
a(lp1578
I9
aa(lp1579
I9
aaI121
aI122
aI152
aI7
aI36
aI36
a(lp1580
I9
aaI15
aI134
a(lp1581
I4
aaI18
aI71
aI138
a(lp1582
I9
aaI143
aI97
aI149
aI24
aI24
a(lp1583
I9
aaI86
a(lp1584
I2
aa(lp1585
I5
aaI152
aI152
a(lp1586
I2
aa(lp1587
I5
aa(lp1588
I5
aa(lp1589
I5
aaI6
a(lp1590
I9
aaI152
aI143
aI143
a(lp1591
I9
aaI134
a(lp1592
I9
aa(lp1593
I9
aaI71
aI83
aI7
a(lp1594
I9
aaa(lp1595
(lp1596
I0
aI1
aa(lp1597
I0
aI1
aaI152
aI160
aI160
aI160
aI160
aI138
aI112
a(lp1598
I4
aa(lp1599
I4
aa(lp1600
I4
aa(lp1601
I4
aa(lp1602
I8
aa(lp1603
I8
aa(lp1604
I8
aa(lp1605
I4
aaI111
a(lp1606
I0
aI1
aI2
aI3
aI5
aI6
aI7
aI8
aI9
aaI7
a(lp1607
I4
aa(lp1608
I1
aI4
aI6
aI8
aa(lp1609
I9
aaI137
aI61
aI61
aI64
aI112
a(lp1610
I8
aa(lp1611
I1
aI4
aI6
aI8
aaI61
aI142
a(lp1612
I8
aaI160
aI160
a(lp1613
I8
aaI152
aI78
aI152
aI152
aI112
aI142
aI61
aI121
aI94
aI61
aI160
aI160
aI160
aI149
a(lp1614
I8
aaI33
aI94
aI33
aI33
aI111
aI134
a(lp1615
I4
aa(lp1616
I4
aa(lp1617
I4
aa(lp1618
I4
aaI111
a(lp1619
I4
aa(lp1620
I4
aa(lp1621
I4
aa(lp1622
I4
aa(lp1623
I4
aaI33
aI33
aI94
a(lp1624
I8
aaI134
aI160
aI160
aI160
aI160
aI160
aI160
aI160
aI111
a(lp1625
I8
aaI33
aI152
a(lp1626
I4
aa(lp1627
I4
aaI46
aI152
aI152
a(lp1628
I4
aa(lp1629
I4
aa(lp1630
I4
aaI60
a(lp1631
I9
aa(lp1632
I3
aI4
aI7
aI9
aa(lp1633
I2
aI3
aI4
aI6
aI7
aI8
aaI65
aI65
aI65
a(lp1634
I9
aaI149
a(lp1635
I4
aaI17
aI16
aI90
aI152
aI78
aa(lp1636
(lp1637
I2
aI7
aa(lp1638
I2
aI7
aaI69
aI112
aI112
a(lp1639
I3
aI4
aI7
aI9
aa(lp1640
I5
aa(lp1641
I3
aI4
aI7
aI9
aa(lp1642
I2
aI7
aaI181
a(lp1643
I5
aaI133
a(lp1644
I2
aI7
aa(lp1645
I2
aI7
aa(lp1646
I2
aI3
aI4
aI6
aI7
aI8
aa(lp1647
I9
aaI112
aI170
aI181
aI117
a(lp1648
I5
aa(lp1649
I0
aI1
aI6
aa(lp1650
I0
aI1
aI6
aa(lp1651
I5
aa(lp1652
I0
aI1
aI2
aI3
aI5
aI6
aI7
aI8
aI9
aaI94
a(lp1653
I2
aI7
aa(lp1654
I1
aI4
aI6
aI8
aa(lp1655
I0
aI1
aI2
aI3
aI5
aI6
aI7
aI8
aI9
aa(lp1656
I2
aI7
aa(lp1657
I2
aI7
aaa(lp1658
I139
aI115
a(lp1659
I0
aI1
aa(lp1660
I0
aI1
aI6
aa(lp1661
I5
aa(lp1662
I5
aa(lp1663
I0
aI1
aa(lp1664
I0
aI1
aa(lp1665
I2
aI7
aa(lp1666
I2
aI7
aaI137
a(lp1667
I9
aa(lp1668
I4
aaI152
aI10
aI10
aI61
aI171
aI149
aI10
aI36
a(lp1669
I0
aI1
aI6
aaI112
aI138
aI152
a(lp1670
I2
aI7
aa(lp1671
I8
aaI62
aI36
a(lp1672
I5
aa(lp1673
I0
aI1
aaI36
a(lp1674
I0
aI1
aI2
aI3
aI5
aI6
aI7
aI8
aI9
aaI112
aI10
aI10
a(lp1675
I2
aI7
aaI36
aI36
aa(lp1676
I173
a(lp1677
I9
aa(lp1678
I9
aa(lp1679
I5
aaI170
aI152
aI181
a(lp1680
I9
aa(lp1681
I4
aaI24
a(lp1682
I0
aI1
aI2
aI3
aI5
aI6
aI7
aI8
aI9
aa(lp1683
I9
aaI173
aI152
aI152
aI152
a(lp1684
I8
aa(lp1685
I9
aa(lp1686
I4
aa(lp1687
I9
aa(lp1688
I8
aa(lp1689
I8
aaI94
aI95
a(lp1690
I8
aa(lp1691
I4
aa(lp1692
I4
aaI64
a(lp1693
I4
aaI64
a(lp1694
I8
aa(lp1695
I8
aa(lp1696
I1
aI4
aI6
aI8
aa(lp1697
I5
aa(lp1698
I4
aaI153
aI170
a(lp1699
I5
aaI139
a(lp1700
I9
aaI181
aI152
aI166
a(lp1701
I0
aI1
aa(lp1702
I8
aaI111
aI95
a(lp1703
I0
aI1
aaI181
a(lp1704
I8
aa(lp1705
I0
aI1
aa(lp1706
I5
aaI166
aI152
aI71
aI152
a(lp1707
I9
aa(lp1708
I9
aa(lp1709
I0
aI1
aI6
aaI152
aa(lp1710
(lp1711
I2
aI3
aI4
aI6
aI7
aI8
aa(lp1712
I9
aa(lp1713
I9
aaI160
a(lp1714
I2
aI7
aa(lp1715
I8
aa(lp1716
I8
aa(lp1717
I8
aa(lp1718
I8
aaI112
a(lp1719
I0
aI1
aa(lp1720
I0
aI1
aaI33
aI112
a(lp1721
I0
aI1
aaI89
aI69
a(lp1722
I2
aI3
aI4
aI6
aI7
aI8
aaI113
aI94
aI89
a(lp1723
I0
aI1
aaI60
aI152
aI36
aI152
a(lp1724
I8
aaI83
a(lp1725
I9
aa(lp1726
I9
aa(lp1727
I4
aaI36
aI152
a(lp1728
I9
aa(lp1729
I5
aa(lp1730
I5
aa(lp1731
I5
aa(lp1732
I2
aI7
aaI62
a(lp1733
I2
aI7
aa(lp1734
I2
aI7
aa(lp1735
I2
aI7
aa(lp1736
I9
aaI112
aI152
aI112
aI62
aI112
a(lp1737
I9
aa(lp1738
I9
aa(lp1739
I8
aaI60
aI60
aI36
aI62
aI152
aI62
aI62
a(lp1740
I9
aa(lp1741
I9
aa(lp1742
I9
aa(lp1743
I0
aI1
aa(lp1744
I2
aI7
aa(lp1745
I2
aI7
aa(lp1746
I2
aI7
aa(lp1747
I2
aI7
aa(lp1748
I4
aa(lp1749
I9
aaI36
aI36
aI160
aI13
a(lp1750
I8
aa(lp1751
I9
aa(lp1752
I8
aa(lp1753
I8
aa(lp1754
I8
aa(lp1755
I8
aaI33
aI18
a(lp1756
I9
aa(lp1757
I9
aa(lp1758
I2
aa(lp1759
I9
aa(lp1760
I9
aaI97
a(lp1761
I9
aa(lp1762
I9
aa(lp1763
I9
aaI62
a(lp1764
I9
aa(lp1765
I9
aa(lp1766
I5
aa(lp1767
I0
aI1
aI2
aI3
aI5
aI6
aI7
aI8
aI9
aa(lp1768
I9
aa(lp1769
I2
aI7
aaI160
aI17
aI170
aI33
aI64
aI115
aa(lp1770
I61
aI160
aI61
aI36
aI160
a(lp1771
I9
aaI160
a(lp1772
I9
aaI152
a(lp1773
I2
aI7
aa(lp1774
I2
aI7
aa(lp1775
I2
aI7
aa(lp1776
I9
aaI21
aI142
aI60
a(lp1777
I2
aI3
aI4
aI6
aI7
aI8
aa(lp1778
I3
aI4
aI7
aI9
aa(lp1779
I3
aI4
aI7
aI9
aa(lp1780
I9
aaI149
aI9
aI33
aI152
aI160
aI152
aI21
a(lp1781
I3
aI4
aI7
aI9
aaI121
a(lp1782
I5
aaI13
aI142
a(lp1783
I0
aI1
aa(lp1784
I9
aa(lp1785
I0
aI1
aI2
aI3
aI5
aI6
aI7
aI8
aI9
aa(lp1786
I3
aI4
aI7
aI9
aa(lp1787
I9
aa(lp1788
I3
aI4
aI7
aI9
aa(lp1789
I2
aI3
aI4
aI6
aI7
aI8
aaI170
a(lp1790
I1
aI4
aI6
aI8
aaI19
a(lp1791
I0
aI1
aI6
aaI95
aI95
aI56
aI121
a(lp1792
I2
aI7
aaI94
aI94
aI152
aI152
a(lp1793
I2
aI7
aa(lp1794
I3
aI4
aI7
aI9
aa(lp1795
I3
aI4
aI7
aI9
aa(lp1796
I0
aI1
aa(lp1797
I2
aI7
aaI56
aI127
aI160
aI160
aI69
aa(lp1798
I137
a(lp1799
I4
aaI152
a(lp1800
I9
aa(lp1801
I9
aaI95
aI152
a(lp1802
I2
aI3
aI4
aI6
aI7
aI8
aaI61
aI152
aI25
aI152
a(lp1803
I8
aa(lp1804
I0
aI1
aI2
aI3
aI5
aI6
aI7
aI8
aI9
aa(lp1805
I4
aaI152
aI152
a(lp1806
I3
aI4
aI7
aI9
aa(lp1807
I9
aaI15
a(lp1808
I9
aa(lp1809
I4
aa(lp1810
I4
aa(lp1811
I0
aI1
aI6
aa(lp1812
I5
aa(lp1813
I0
aI1
aI6
aa(lp1814
I0
aI1
aI6
aaI152
aI152
aI137
aI137
aI142
a(lp1815
I4
aa(lp1816
I5
aaI33
aI152
a(lp1817
I5
aaI152
a(lp1818
I4
aaI161
aI62
aI152
aI152
a(lp1819
I9
aaI112
aI60
a(lp1820
I4
aaI112
aI33
aI94
a(lp1821
I0
aI1
aaI161
aI142
aI159
a(lp1822
I1
aI4
aI6
aI8
aaI152
aI152
a(lp1823
I0
aI1
aI6
aa(lp1824
I9
aaI33
aI112
aI71
a(lp1825
I9
aa(lp1826
I0
aI1
aI2
aI3
aI5
aI6
aI7
aI8
aI9
aaI142
aa(lp1827
I60
aI112
aI60
aI69
aI60
a(lp1828
I5
aaI60
aI60
a(lp1829
I0
aI1
aa(lp1830
I8
aa(lp1831
I8
aaI60
aI111
aI60
aI60
a(lp1832
I0
aI1
aI2
aI3
aI5
aI6
aI7
aI8
aI9
aa(lp1833
I4
aa(lp1834
I9
aaI0
aI0
a(lp1835
I2
aI7
aaI60
a(lp1836
I9
aaI152
aI152
a(lp1837
I9
aa(lp1838
I5
aa(lp1839
I9
aaI60
aI60
aI60
aI60
aI60
a(lp1840
I0
aI1
aI6
aa(lp1841
I2
aI7
aaI178
aI60
a(lp1842
I9
aaI178
a(lp1843
I9
aa(lp1844
I2
aI7
aa(lp1845
I2
aI7
aaI60
a(lp1846
I9
aa(lp1847
I9
aa(lp1848
I2
aI7
aa(lp1849
I0
aI1
aaI60
aI60
aI60
aI112
aI60
a(lp1850
I0
aI1
aI6
aa(lp1851
I0
aI1
aI6
aa(lp1852
I0
aI1
aa(lp1853
I2
aI7
aa(lp1854
I0
aI1
aI6
aa(lp1855
I0
aI1
aI6
aaI122
aI0
a(lp1856
I0
aI1
aa(lp1857
I0
aI1
aaI60
a(lp1858
I0
aI1
aaI60
aI122
aI60
aI71
aI60
aI60
a(lp1859
I9
aaI60
aI60
aI60
aI60
aI60
aI60
a(lp1860
I8
aaI60
a(lp1861
I3
aI4
aI7
aI9
aaI60
aa(lp1862
(lp1863
I0
aI1
aI2
aI3
aI5
aI6
aI7
aI8
aI9
aa(lp1864
I5
aaI0
aI152
a(lp1865
I5
aaI160
aI160
aI160
aI160
a(lp1866
I0
aI1
aI2
aI3
aI5
aI6
aI7
aI8
aI9
aaI62
aI62
a(lp1867
I9
aaI160
aI160
aI160
aI160
a(lp1868
I4
aaI138
aI9
aI9
aI138
a(lp1869
I5
aa(lp1870
I9
aa(lp1871
I5
aaI34
a(lp1872
I5
aaI170
a(lp1873
I5
aaI86
aI62
aI62
a(lp1874
I0
aI1
aI2
aI3
aI5
aI6
aI7
aI8
aI9
aaI62
aI62
aI152
a(lp1875
I9
aaI152
aI165
aI65
aI152
aI67
aI160
aI17
aI36
a(lp1876
I4
aaI7
aI36
aI36
aI36
aa(lp1877
(lp1878
I4
aa(lp1879
I4
aa(lp1880
I4
aaI73
aI160
a(lp1881
I0
aI1
aI2
aI3
aI5
aI6
aI7
aI8
aI9
aaI160
aI111
aI111
aI152
aI112
aI152
a(lp1882
I5
aaI22
a(lp1883
I5
aaI160
a(lp1884
I9
aaI160
aI160
aI160
a(lp1885
I0
aI1
aa(lp1886
I0
aI1
aaI152
aI152
aI111
aI111
aI60
a(lp1887
I5
aaI15
aI160
aI17
aI112
aI152
a(lp1888
I9
aa(lp1889
I2
aa(lp1890
I5
aa(lp1891
I2
aI7
aa(lp1892
I4
aaI152
aI152
aI62
aI152
aI152
a(lp1893
I0
aI1
aI2
aI3
aI5
aI6
aI7
aI8
aI9
aaI7
a(lp1894
I9
aaI44
a(lp1895
I4
aa(lp1896
I0
aI1
aaI36
aI111
a(lp1897
I5
aaI149
a(lp1898
I4
aaI44
a(lp1899
I9
aa(lp1900
I8
aa(lp1901
I8
aa(lp1902
I8
aaI71
a(lp1903
I8
aa(lp1904
I5
aaI136
aI181
a(lp1905
I4
aaI33
aI170
a(lp1906
I0
aI1
aI2
aI3
aI5
aI6
aI7
aI8
aI9
aa(lp1907
I0
aI1
aI2
aI3
aI5
aI6
aI7
aI8
aI9
aa(lp1908
I0
aI1
aI2
aI3
aI5
aI6
aI7
aI8
aI9
aaI139
aa(lp1909
I33
a(lp1910
I8
aa(lp1911
I8
aa(lp1912
I2
aI7
aaI44
a(lp1913
I2
aI3
aI4
aI6
aI7
aI8
aaI109
aI112
a(lp1914
I0
aI1
aI6
aaI6
aI94
aI152
aI122
a(lp1915
I2
aI7
aaI122
aI60
a(lp1916
I2
aI7
aa(lp1917
I5
aa(lp1918
I3
aI4
aI7
aI9
aaI112
a(lp1919
I9
aa(lp1920
I4
aaI96
aI152
aI11
a(lp1921
I0
aI1
aI2
aI3
aI5
aI6
aI7
aI8
aI9
aa(lp1922
I1
aI4
aI6
aI8
aaI112
aI69
a(lp1923
I4
aa(lp1924
I3
aI4
aI7
aI9
aaI112
a(lp1925
I4
aaI94
a(lp1926
I1
aI4
aI6
aI8
aaa(lp1927
(lp1928
I9
aa(lp1929
I0
aI1
aa(lp1930
I9
aa(lp1931
I0
aI1
aaI127
aI127
a(lp1932
I0
aI1
aI6
aa(lp1933
I0
aI1
aI6
aaI153
a(lp1934
I5
aa(lp1935
I0
aI1
aI2
aI3
aI5
aI6
aI7
aI8
aI9
aaI60
aI60
aI153
a(lp1936
I5
aaI160
aI160
a(lp1937
I4
aaI33
a(lp1938
I4
aaI127
aI162
aI0
aI0
a(lp1939
I0
aI1
aI6
aa(lp1940
I0
aI1
aa(lp1941
I8
aaI0
aI152
aI152
a(lp1942
I9
aaI152
aI15
aa(lp1943
(lp1944
I9
aaI13
a(lp1945
I9
aa(lp1946
I9
aaI13
a(lp1947
I9
aa(lp1948
I9
aa(lp1949
I4
aaI160
a(lp1950
I9
aaI36
a(lp1951
I2
aI7
aa(lp1952
I1
aI4
aI6
aI8
aa(lp1953
I9
aa(lp1954
I4
aa(lp1955
I9
aa(lp1956
I5
aaI142
aI170
a(lp1957
I9
aa(lp1958
I9
aaI71
aI181
a(lp1959
I5
aa(lp1960
I5
aa(lp1961
I0
aI1
aI6
aa(lp1962
I0
aI1
aI6
aaI16
a(lp1963
I9
aaI139
aI139
aI142
aI142
aI152
aI161
a(lp1964
I9
aa(lp1965
I5
aa(lp1966
I5
aa(lp1967
I4
aI9
aa(lp1968
I2
aI7
aa(lp1969
I2
aI7
aaI152
a(lp1970
I9
aa(lp1971
I5
aa(lp1972
I1
aI4
aI6
aI8
aa(lp1973
I0
aI1
aI2
aI3
aI5
aI6
aI7
aI8
aI9
aaI112
aI166
aI152
a(lp1974
I4
aaI86
aI86
aI139
a(lp1975
I5
aa(lp1976
I3
aI4
aI7
aI9
aa(lp1977
I0
aI1
aI6
aa(lp1978
I5
aaI137
aI160
aI33
a(lp1979
I4
aa(lp1980
I2
aaI170
a(lp1981
I5
aa(lp1982
I9
aa(lp1983
I9
aa(lp1984
I4
aI9
aa(lp1985
I9
aaa(lp1986
(lp1987
I5
aa(lp1988
I5
aa(lp1989
I5
aaI46
a(lp1990
I9
aa(lp1991
I2
aI7
aa(lp1992
I2
aI7
aa(lp1993
I9
aa(lp1994
I3
aI4
aI7
aI9
aa(lp1995
I5
aa(lp1996
I9
aaI18
aI137
aI137
a(lp1997
I8
aaI160
a(lp1998
I9
aa(lp1999
I4
aaI33
aI33
aI167
a(lp2000
I2
aI7
aa(lp2001
I9
aa(lp2002
I9
aa(lp2003
I9
aaI117
a(lp2004
I0
aI1
aI6
aa(lp2005
I2
aI7
aa(lp2006
I0
aI1
aI2
aI3
aI5
aI6
aI7
aI8
aI9
aaI170
a(lp2007
I2
aI7
aa(lp2008
I5
aaI122
a(lp2009
I2
aI7
aa(lp2010
I2
aI7
aa(lp2011
I2
aI7
aa(lp2012
I2
aI7
aaa(lp2013
(lp2014
I4
aa(lp2015
I9
aaI112
aI113
aI152
aI60
a(lp2016
I4
aa(lp2017
I9
aa(lp2018
I9
aa(lp2019
I2
aI3
aI4
aI6
aI7
aI8
aaI152
a(lp2020
I5
aa(lp2021
I9
aaI121
a(lp2022
I9
aa(lp2023
I0
aI1
aI6
aaI149
aI112
aI152
a(lp2024
I0
aI1
aaI149
a(lp2025
I9
aa(lp2026
I0
aI1
aaI2
aI94
a(lp2027
I8
aa(lp2028
I9
aaI113
a(lp2029
I3
aI4
aI7
aI9
aaI152
aI69
aI33
aI69
aI60
a(lp2030
I9
aa(lp2031
I5
aa(lp2032
I9
aaI94
aI160
aI160
a(lp2033
I9
aaI6
a(lp2034
I9
aa(lp2035
I0
aI1
aI2
aI3
aI5
aI6
aI7
aI8
aI9
aa(lp2036
I9
aa(lp2037
I9
aaI152
a(lp2038
I9
aa(lp2039
I9
aa(lp2040
I9
aaI152
a(lp2041
I4
aa(lp2042
I9
aa(lp2043
I9
aa(lp2044
I9
aa(lp2045
I5
aa(lp2046
I5
aaI152
aI152
aI96
a(lp2047
I2
aI7
aa(lp2048
I9
aaI112
aI33
a(lp2049
I9
aaI33
a(lp2050
I9
aa(lp2051
I8
aaI83
a(lp2052
I9
aa(lp2053
I9
aa(lp2054
I9
aa(lp2055
I5
aaa(lp2056
(lp2057
I0
aI1
aI6
aa(lp2058
I9
aa(lp2059
I2
aa(lp2060
I0
aI1
aa(lp2061
I2
aa(lp2062
I2
aa(lp2063
I9
aa(lp2064
I2
aI7
aa(lp2065
I0
aI1
aI2
aI3
aI5
aI6
aI7
aI8
aI9
aaI97
aI181
aI117
aI117
aI16
a(lp2066
I1
aI4
aI6
aI8
aa(lp2067
I2
aaI142
a(lp2068
I3
aI4
aI7
aI9
aaI152
a(lp2069
I9
aa(lp2070
I2
aa(lp2071
I2
aa(lp2072
I2
aa(lp2073
I2
aa(lp2074
I9
aa(lp2075
I8
aa(lp2076
I8
aaI152
a(lp2077
I9
aaI152
aI143
aI62
aI142
aI143
aI17
aI143
aI111
aI143
aI143
aI143
aI62
a(lp2078
I8
aa(lp2079
I8
aa(lp2080
I0
aI1
aaI121
a(lp2081
I0
aI1
aI6
aaI149
a(lp2082
I8
aa(lp2083
I8
aaI121
a(lp2084
I8
aa(lp2085
I2
aa(lp2086
I2
aa(lp2087
I2
aa(lp2088
I4
aa(lp2089
I8
aa(lp2090
I8
aa(lp2091
I8
aa(lp2092
I3
aI4
aI7
aI9
aaI13
aI152
aI152
a(lp2093
I9
aaI52
a(lp2094
I9
aa(lp2095
I9
aa(lp2096
I2
aa(lp2097
I2
aa(lp2098
I2
aa(lp2099
I2
aaI94
aI152
aI60
a(lp2100
I4
aa(lp2101
I9
aa(lp2102
I9
aa(lp2103
I9
aaI94
a(lp2104
I5
aa(lp2105
I9
aa(lp2106
I9
aa(lp2107
I9
aa(lp2108
I9
aa(lp2109
I3
aI4
aI7
aI9
aa(lp2110
I0
aI1
aI2
aI3
aI5
aI6
aI7
aI8
aI9
aa(lp2111
I0
aI1
aa(lp2112
I0
aI1
aa(lp2113
I9
aaI90
aI152
aI152
a(lp2114
I9
aa(lp2115
I9
aa(lp2116
I9
aa(lp2117
I0
aI1
aI6
aaI18
a(lp2118
I0
aI1
aaI160
aa(lp2119
I64
aI94
a(lp2120
I4
aaI138
a(lp2121
I9
aaI170
a(lp2122
I9
aaI112
a(lp2123
I9
aaI33
aI152
a(lp2124
I9
aa(lp2125
I9
aaI60
a(lp2126
I8
aa(lp2127
I8
aa(lp2128
I3
aI4
aI7
aI9
aaI113
a(lp2129
I9
aaI111
aI121
aI33
a(lp2130
I0
aI1
aI2
aI3
aI5
aI6
aI7
aI8
aI9
aaI121
aI7
aI152
aI170
a(lp2131
I2
aI7
aa(lp2132
I9
aaI33
aI111
a(lp2133
I9
aa(lp2134
I0
aI1
aaI60
aI113
aI0
a(lp2135
I0
aI1
aaI60
aI60
a(lp2136
I9
aa(lp2137
I8
aa(lp2138
I8
aaI94
a(lp2139
I2
aI3
aI4
aI6
aI7
aI8
aa(lp2140
I5
aa(lp2141
I1
aI4
aI6
aI8
aa(lp2142
I9
aa(lp2143
I4
aaI160
aI71
aI61
aI112
aa(lp2144
I170
aI152
aI152
a(lp2145
I4
aa(lp2146
I1
aI4
aI6
aI8
aa(lp2147
I1
aI4
aI6
aI8
aa(lp2148
I9
aaI170
a(lp2149
I2
aI3
aI4
aI6
aI7
aI8
aa(lp2150
I0
aI1
aI2
aI3
aI5
aI6
aI7
aI8
aI9
aa(lp2151
I1
aI4
aI6
aI8
aa(lp2152
I0
aI1
aI2
aI3
aI5
aI6
aI7
aI8
aI9
aa(lp2153
I4
aaI152
a(lp2154
I1
aI4
aI6
aI8
aaI152
a(lp2155
I4
aaI152
aI46
aI111
a(lp2156
I4
aI9
aaI139
a(lp2157
I8
aaI111
aI152
aI78
aI46
aI90
a(lp2158
I4
aaa(lp2159
(lp2160
I5
aaI146
aI162
aI112
aI112
aI146
a(lp2161
I3
aI4
aI7
aI9
aaI146
a(lp2162
I2
aI7
aa(lp2163
I2
aI7
aa(lp2164
I2
aI3
aI4
aI6
aI7
aI8
aaI162
a(lp2165
I0
aI1
aI2
aI3
aI5
aI6
aI7
aI8
aI9
aa(lp2166
I9
aa(lp2167
I2
aa(lp2168
I2
aaI146
aI117
aI151
a(lp2169
I3
aaI43
aa(lp2170
I60
aI117
aI117
aI142
a(lp2171
I0
aI1
aI6
aa(lp2172
I0
aI1
aI6
aa(lp2173
I9
aaI138
a(lp2174
I2
aI3
aI4
aI6
aI7
aI8
aaI117
a(lp2175
I9
aaI6
aI160
aI133
aI43
a(lp2176
I0
aI1
aI6
aaI117
a(lp2177
I9
aaI170
aI160
a(lp2178
I9
aaI160
a(lp2179
I4
aa(lp2180
I9
aa(lp2181
I9
aa(lp2182
I0
aI1
aaI95
aI160
aI170
aI96
aI152
aI43
aI19
aI44
a(lp2183
I5
aaI153
a(lp2184
I9
aa(lp2185
I9
aaI160
aI94
aI152
a(lp2186
I0
aI1
aI6
aaI61
a(lp2187
I0
aI1
aI6
aa(lp2188
I0
aI1
aI6
aa(lp2189
I9
aa(lp2190
I9
aa(lp2191
I0
aI1
aI2
aI3
aI5
aI6
aI7
aI8
aI9
aa(lp2192
I7
aa(lp2193
I3
aI4
aI7
aI9
aa(lp2194
I5
aaI71
aI71
aI71
a(lp2195
I2
aI7
aaI60
a(lp2196
I9
aaI160
aI181
aI121
a(lp2197
I0
aI1
aI6
aa(lp2198
I0
aI1
aI6
aaI44
a(lp2199
I0
aI1
aI6
aa(lp2200
I4
aa(lp2201
I4
aaI33
aI33
aI44
aI44
a(lp2202
I2
aI3
aI4
aI6
aI7
aI8
aaI117
aa(lp2203
(lp2204
I8
aaI142
aI112
a(lp2205
I9
aa(lp2206
I9
aaI13
aI152
a(lp2207
I0
aI1
aI2
aI3
aI5
aI6
aI7
aI8
aI9
aa(lp2208
I5
aaI121
a(lp2209
I0
aI1
aaI90
a(lp2210
I0
aI1
aI2
aI3
aI5
aI6
aI7
aI8
aI9
aa(lp2211
I9
aaI2
a(lp2212
I3
aI4
aI7
aI9
aa(lp2213
I5
aa(lp2214
I9
aaI89
a(lp2215
I9
aa(lp2216
I9
aaI160
a(lp2217
I2
aI7
aa(lp2218
I9
aaI0
aI142
aI17
aI112
a(lp2219
I0
aI1
aI2
aI3
aI5
aI6
aI7
aI8
aI9
aaI152
a(lp2220
I0
aI1
aa(lp2221
I9
aa(lp2222
I9
aa(lp2223
I5
aa(lp2224
I0
aI1
aI2
aI3
aI5
aI6
aI7
aI8
aI9
aaI117
a(lp2225
I5
aaI112
aI112
a(lp2226
I3
aI4
aI7
aI9
aa(lp2227
I9
aa(lp2228
I9
aa(lp2229
I9
aa(lp2230
I9
aa(lp2231
I9
aa(lp2232
I9
aa(lp2233
I9
aaI90
a(lp2234
I9
aaI112
aI0
a(lp2235
I2
aI7
aaI152
aI19
aI19
aI19
a(lp2236
I0
aI1
aI6
aaI112
a(lp2237
I3
aI4
aI7
aI9
aaI19
aI19
aI19
aI19
aI19
a(lp2238
I9
aaI19
aI19
a(lp2239
I2
aI7
aa(lp2240
I9
aa(lp2241
I5
aaa(lp2242
I16
aI16
aI111
a(lp2243
I8
aaI112
aI95
a(lp2244
I0
aI1
aI6
aaI121
aI152
aI16
aI13
a(lp2245
I0
aI1
aaI152
aI152
a(lp2246
I2
aI7
aaI160
aI69
a(lp2247
I0
aI1
aaI69
aI69
aI121
a(lp2248
I5
aaI69
aI161
aI161
aI121
aI95
aI60
aI152
a(lp2249
I9
aaI95
aI13
aI60
aI112
aI60
a(lp2250
I5
aaI60
a(lp2251
I8
aaI71
aI134
aI46
a(lp2252
I5
aaI61
a(lp2253
I8
aa(lp2254
I8
aaI95
aI149
a(lp2255
I0
aI1
aaI124
aI137
a(lp2256
I9
aa(lp2257
I9
aaI152
aI160
aI160
a(lp2258
I0
aI1
aI6
aa(lp2259
I0
aI1
aa(lp2260
I0
aI1
aaI69
a(lp2261
I9
aaI121
a(lp2262
I4
aa(lp2263
I9
aaI122
aI160
aI152
aI69
a(lp2264
I0
aI1
aaI13
aI112
aI60
aI95
aI95
a(lp2265
I3
aI4
aI7
aI9
aa(lp2266
I9
aaI122
aI16
aI115
a(lp2267
I0
aI1
aa(lp2268
I0
aI1
aaI115
aI152
a(lp2269
I5
aa(lp2270
I0
aI1
aa(lp2271
I0
aI1
aaI152
aI149
aI160
aI160
aI122
a(lp2272
I3
aI4
aI7
aI9
aa(lp2273
I8
aa(lp2274
I0
aI1
aI2
aI3
aI5
aI6
aI7
aI8
aI9
aaI113
a(lp2275
I8
aaI161
aI161
aI13
a(lp2276
I9
aaI71
aI117
a(lp2277
I9
aa(lp2278
I4
aa(lp2279
I4
aaI174
a(lp2280
I8
aa(lp2281
I8
aa(lp2282
I8
aaI137
aI13
aI19
aI19
aI13
aI19
aI69
aI69
aI69
aI69
aI69
aI160
a(lp2283
I9
aaI149
aI122
a(lp2284
I5
aa(lp2285
I5
aaI69
a(lp2286
I0
aI1
aaI69
a(lp2287
I0
aI1
aaI71
aI71
a(lp2288
I4
aI9
aaI65
a(lp2289
I9
aaI71
aI112
aI138
aI115
aI121
a(lp2290
I8
aa(lp2291
I8
aaa(lp2292
(lp2293
I2
aI7
aaI71
aI71
a(lp2294
I9
aa(lp2295
I5
aa(lp2296
I9
aa(lp2297
I3
aI4
aI7
aI9
aaI61
aI69
aI16
a(lp2298
I3
aI4
aI7
aI9
aaI124
a(lp2299
I4
aa(lp2300
I9
aa(lp2301
I9
aa(lp2302
I9
aaI138
a(lp2303
I9
aa(lp2304
I5
aaI138
aI36
a(lp2305
I2
aI7
aaI61
aI61
a(lp2306
I9
aa(lp2307
I9
aaI112
aI181
aI94
aI181
a(lp2308
I5
aa(lp2309
I3
aI4
aI7
aI9
aaI152
a(lp2310
I2
aI7
aaI61
aI181
aI152
aI112
a(lp2311
I0
aI1
aa(lp2312
I3
aI4
aI7
aI9
aa(lp2313
I3
aI4
aI7
aI9
aaI16
a(lp2314
I9
aa(lp2315
I4
aa(lp2316
I4
aa(lp2317
I9
aa(lp2318
I5
aa(lp2319
I9
aaI60
a(lp2320
I3
aI4
aI7
aI9
aa(lp2321
I9
aa(lp2322
I9
aaI16
aI139
aI161
aI122
a(lp2323
I9
aa(lp2324
I9
aaI101
aI71
aI71
aI138
aI122
aI122
a(lp2325
I4
aa(lp2326
I4
aa(lp2327
I4
aa(lp2328
I4
aa(lp2329
I9
aa(lp2330
I9
aaI152
aI152
a(lp2331
I5
aa(lp2332
I0
aI1
aI2
aI3
aI5
aI6
aI7
aI8
aI9
aaI152
aI61
a(lp2333
I9
aaI139
a(lp2334
I4
aaI60
a(lp2335
I9
aaI60
a(lp2336
I0
aI1
aI6
aaI152
aI61
aI113
a(lp2337
I5
aa(lp2338
I9
aaI152
a(lp2339
I9
aaI16
aI52
a(lp2340
I0
aI1
aI6
aaI69
a(lp2341
I4
aa(lp2342
I4
aaI152
a(lp2343
I9
aa(lp2344
I9
aaI122
aI122
a(lp2345
I5
aaI34
a(lp2346
I8
aaI33
aI152
a(lp2347
I4
aa(lp2348
I4
aa(lp2349
I2
aI7
aa(lp2350
I9
aaI61
aI61
aI61
a(lp2351
I9
aa(lp2352
I9
aaI41
a(lp2353
I2
aI7
aaa(lp2354
I21
a(lp2355
I0
aI1
aI2
aI3
aI5
aI6
aI7
aI8
aI9
aa(lp2356
I9
aa(lp2357
I0
aI1
aI2
aI3
aI5
aI6
aI7
aI8
aI9
aa(lp2358
I9
aa(lp2359
I8
aa(lp2360
I9
aaI152
a(lp2361
I9
aa(lp2362
I9
aa(lp2363
I0
aI1
aI6
aaI137
a(lp2364
I3
aI4
aI7
aI9
aa(lp2365
I5
aa(lp2366
I3
aI4
aI7
aI9
aaI34
aI34
aI152
a(lp2367
I5
aa(lp2368
I5
aa(lp2369
I0
aI1
aI2
aI3
aI5
aI6
aI7
aI8
aI9
aa(lp2370
I9
aa(lp2371
I9
aa(lp2372
I0
aI1
aI2
aI3
aI5
aI6
aI7
aI8
aI9
aaI181
a(lp2373
I5
aa(lp2374
I5
aaI112
a(lp2375
I9
aaI152
aI61
aa(lp2376
I112
aI142
a(lp2377
I8
aaI95
a(lp2378
I8
aaI160
a(lp2379
I9
aa(lp2380
I8
aaI95
aI95
aI95
aI34
a(lp2381
I8
aaI95
aI95
aI115
aI34
a(lp2382
I0
aI1
aI2
aI3
aI5
aI6
aI7
aI8
aI9
aa(lp2383
I4
aa(lp2384
I0
aI1
aI2
aI3
aI5
aI6
aI7
aI8
aI9
aaI161
aI13
aI60
aI60
aI112
a(lp2385
I0
aI1
aI6
aaI71
aI117
a(lp2386
I9
aaI111
aI137
aI58
aI142
aI17
a(lp2387
I9
aaI16
aI121
aI121
a(lp2388
I0
aI1
aa(lp2389
I1
aI4
aI6
aI8
aa(lp2390
I8
aa(lp2391
I8
aa(lp2392
I8
aa(lp2393
I8
aa(lp2394
I8
aa(lp2395
I8
aaI115
aI71
aI60
a(lp2396
I4
aa(lp2397
I9
aaI60
a(lp2398
I9
aa(lp2399
I0
aI1
aI2
aI3
aI5
aI6
aI7
aI8
aI9
aa(lp2400
I8
aa(lp2401
I9
aaI44
aI112
a(lp2402
I9
aaI115
a(lp2403
I5
aa(lp2404
I5
aa(lp2405
I9
aaI94
a(lp2406
I8
aaI35
aI142
aI71
a(lp2407
I8
aa(lp2408
I8
aa(lp2409
I9
aaI181
aI60
a(lp2410
I8
aa(lp2411
I8
aaI142
a(lp2412
I8
aa(lp2413
I8
aa(lp2414
I8
aa(lp2415
I9
aa(lp2416
I5
aa(lp2417
I8
aaI152
aI113
aI112
a(lp2418
I5
aaI112
a(lp2419
I3
aI4
aI7
aI9
aa(lp2420
I0
aI1
aI2
aI3
aI5
aI6
aI7
aI8
aI9
aa(lp2421
I0
aI1
aI2
aI3
aI5
aI6
aI7
aI8
aI9
aa(lp2422
I8
aaI19
aI19
aI138
a(lp2423
I1
aI4
aI6
aI8
aaI61
aI115
aI115
a(lp2424
I1
aI4
aI6
aI8
aa(lp2425
I5
aa(lp2426
I5
aa(lp2427
I5
aa(lp2428
I8
aa(lp2429
I8
aaI95
aI95
aI95
aI95
aI60
aI95
aI60
aI95
aI95
aI95
aI95
aI95
aI95
aI95
aI95
aI95
aI95
aI19
a(lp2430
I8
aa(lp2431
I0
aI1
aI2
aI3
aI5
aI6
aI7
aI8
aI9
aaI60
aI60
aI115
a(lp2432
I5
aaI95
aI95
aI95
aI60
aI111
a(lp2433
I1
aI4
aI6
aI8
aaI121
aI121
aI115
aI115
aI60
a(lp2434
I9
aaI60
aa(lp2435
(lp2436
I9
aa(lp2437
I9
aaI36
aI6
a(lp2438
I9
aa(lp2439
I8
aa(lp2440
I9
aaI149
a(lp2441
I0
aI1
aI6
aaI24
a(lp2442
I9
aaI112
a(lp2443
I5
aaI152
a(lp2444
I9
aa(lp2445
I2
aI3
aI4
aI6
aI7
aI8
aa(lp2446
I1
aI4
aI6
aI8
aa(lp2447
I0
aI1
aI2
aI3
aI5
aI6
aI7
aI8
aI9
aaI161
a(lp2448
I9
aaI111
a(lp2449
I4
aaa(lp2450
(lp2451
I9
aa(lp2452
I9
aa(lp2453
I4
aaI69
a(lp2454
I2
aI7
aaI69
aI36
a(lp2455
I9
aa(lp2456
I5
aa(lp2457
I9
aa(lp2458
I2
aa(lp2459
I2
aaI111
aI36
aI149
a(lp2460
I9
aa(lp2461
I9
aa(lp2462
I5
aa(lp2463
I0
aI1
aaI162
a(lp2464
I9
aaI36
aI24
aI94
a(lp2465
I0
aI1
aI6
aa(lp2466
I4
aaI94
aI35
a(lp2467
I0
aI1
aI6
aaI62
aI112
aI160
aI24
aI76
aI117
a(lp2468
I9
aaI149
a(lp2469
I9
aaI94
a(lp2470
I0
aI1
aaI69
aI69
a(lp2471
I0
aI1
aaI69
a(lp2472
I4
aaI112
a(lp2473
I0
aI1
aI6
aa(lp2474
I8
aaI69
a(lp2475
I8
aa(lp2476
I8
aa(lp2477
I4
aaI69
aI181
a(lp2478
I9
aa(lp2479
I4
aaI137
a(lp2480
I0
aI1
aaI64
a(lp2481
I9
aaI22
a(lp2482
I9
aa(lp2483
I9
aaI112
a(lp2484
I9
aaI21
aI143
a(lp2485
I0
aI1
aI2
aI3
aI5
aI6
aI7
aI8
aI9
aa(lp2486
I0
aI1
aaI94
a(lp2487
I9
aaI170
a(lp2488
I9
aaI94
aI139
aI112
a(lp2489
I5
aaI117
aa(lp2490
I143
a(lp2491
I9
aaI152
a(lp2492
I9
aaI111
a(lp2493
I0
aI1
aI2
aI3
aI5
aI6
aI7
aI8
aI9
aa(lp2494
I2
aI7
aa(lp2495
I2
aI7
aa(lp2496
I4
aaI112
a(lp2497
I9
aaI17
aI138
a(lp2498
I9
aaI95
aI95
aI62
aI111
a(lp2499
I5
aaI170
a(lp2500
I8
aaI7
aI138
aI18
a(lp2501
I2
aI7
aa(lp2502
I4
aaI90
aI33
aI90
a(lp2503
I5
aa(lp2504
I9
aa(lp2505
I5
aa(lp2506
I0
aI1
aa(lp2507
I0
aI1
aI6
aa(lp2508
I0
aI1
aa(lp2509
I4
aa(lp2510
I8
aa(lp2511
I4
aa(lp2512
I8
aaI111
aI60
a(lp2513
I9
aa(lp2514
I9
aa(lp2515
I9
aa(lp2516
I9
aa(lp2517
I8
aa(lp2518
I8
aaI13
a(lp2519
I9
aaI152
a(lp2520
I0
aI1
aa(lp2521
I0
aI1
aaI143
aI13
aI13
a(lp2522
I5
aaI137
aI152
aI152
a(lp2523
I9
aa(lp2524
I9
aaI127
a(lp2525
I4
aaI143
a(lp2526
I9
aa(lp2527
I5
aa(lp2528
I0
aI1
aI2
aI3
aI5
aI6
aI7
aI8
aI9
aa(lp2529
I9
aaI61
a(lp2530
I8
aaI138
a(lp2531
I8
aaI95
aI95
aI95
aI95
a(lp2532
I0
aI1
aaI160
aI138
aI152
aI152
aI159
a(lp2533
I5
aaI138
a(lp2534
I9
aa(lp2535
I9
aaI112
aI152
aI152
aI18
aI44
aI44
a(lp2536
I9
aa(lp2537
I9
aa(lp2538
I0
aI1
aaI138
a(lp2539
I0
aI1
aI2
aI3
aI5
aI6
aI7
aI8
aI9
aaI159
a(lp2540
I4
aa(lp2541
I4
aa(lp2542
I5
aa(lp2543
I9
aaa(lp2544
I94
aI94
a(lp2545
I1
aI4
aI6
aI8
aaI152
a(lp2546
I9
aaI64
a(lp2547
I9
aaI18
aI36
a(lp2548
I9
aaI160
aI36
aI36
a(lp2549
I9
aaI64
aI9
a(lp2550
I0
aI1
aI6
aa(lp2551
I0
aI1
aI6
aa(lp2552
I0
aI1
aI6
aaI149
aI149
aI122
a(lp2553
I2
aI3
aI4
aI6
aI7
aI8
aaI36
aI15
aI36
aI36
aI36
aI36
aI36
a(lp2554
I9
aa(lp2555
I2
aa(lp2556
I9
aa(lp2557
I2
aa(lp2558
I0
aI1
aI6
aa(lp2559
I0
aI1
aI6
aa(lp2560
I0
aI1
aI6
aaI95
aI95
aI95
aI95
aI95
aI95
aI95
aI95
aI95
aI95
aI95
aI95
aI95
aI95
aI95
aI112
aI19
aI112
a(lp2561
I9
aa(lp2562
I9
aa(lp2563
I0
aI1
aI2
aI3
aI5
aI6
aI7
aI8
aI9
aa(lp2564
I9
aa(lp2565
I9
aa(lp2566
I9
aa(lp2567
I2
aa(lp2568
I9
aa(lp2569
I0
aI1
aa(lp2570
I2
aI7
aaI54
a(lp2571
I2
aa(lp2572
I0
aI1
aI6
aa(lp2573
I0
aI1
aI6
aa(lp2574
I0
aI1
aI6
aaa(lp2575
I112
aI152
a(lp2576
I4
aa(lp2577
I0
aI1
aI2
aI3
aI5
aI6
aI7
aI8
aI9
aaI94
a(lp2578
I1
aI4
aI6
aI8
aaI94
aI160
a(lp2579
I0
aI1
aI2
aI3
aI5
aI6
aI7
aI8
aI9
aaI94
a(lp2580
I3
aI4
aI7
aI9
aa(lp2581
I5
aa(lp2582
I3
aI4
aI7
aI9
aaI33
a(lp2583
I5
aa(lp2584
I5
aaI160
aI160
aI94
aI153
a(lp2585
I5
aaI153
a(lp2586
I0
aI1
aI2
aI3
aI5
aI6
aI7
aI8
aI9
aaI53
aI94
aI94
aI94
aI96
a(lp2587
I0
aI1
aI2
aI3
aI5
aI6
aI7
aI8
aI9
aaI94
a(lp2588
I8
aaI94
aI61
aI95
aI95
a(lp2589
I8
aaI95
aI95
a(lp2590
I8
aaI94
a(lp2591
I5
aa(lp2592
I5
aaI94
aI94
aI160
aI94
aI94
aa(lp2593
(lp2594
I2
aI7
aa(lp2595
I2
aI7
aa(lp2596
I3
aI4
aI7
aI9
aa(lp2597
I9
aaI60
a(lp2598
I0
aI1
aI2
aI3
aI5
aI6
aI7
aI8
aI9
aa(lp2599
I2
aI3
aI4
aI6
aI7
aI8
aaI121
a(lp2600
I1
aI4
aI6
aI8
aaI62
aI152
aI62
a(lp2601
I9
aaI60
a(lp2602
I9
aaI160
aI160
a(lp2603
I3
aI4
aI7
aI9
aaI152
a(lp2604
I8
aaI9
aI9
aI121
aI17
aa(lp2605
(lp2606
I5
aa(lp2607
I9
aaI152
a(lp2608
I5
aaI181
aI181
a(lp2609
I9
aa(lp2610
I9
aa(lp2611
I0
aI1
aa(lp2612
I0
aI1
aa(lp2613
I9
aa(lp2614
I5
aa(lp2615
I5
aa(lp2616
I3
aI4
aI7
aI9
aaI113
a(lp2617
I5
aa(lp2618
I3
aI4
aI7
aI9
aaI96
a(lp2619
I9
aa(lp2620
I0
aI1
aI2
aI3
aI5
aI6
aI7
aI8
aI9
aaI121
aI121
aI121
a(lp2621
I9
aaa(lp2622
(lp2623
I9
aaI94
a(lp2624
I2
aI7
aaI178
aI160
a(lp2625
I0
aI1
aI2
aI3
aI5
aI6
aI7
aI8
aI9
aa(lp2626
I5
aaI86
a(lp2627
I0
aI1
aI6
aa(lp2628
I9
aa(lp2629
I0
aI1
aI6
aaI111
aI112
aI112
aI112
aI111
aI149
aI160
aI9
aI139
aI149
aI61
aI18
aI61
aI152
a(lp2630
I4
aaI122
aI22
aI60
a(lp2631
I8
aaI112
a(lp2632
I2
aI7
aaI90
aI112
aI90
aI112
aI112
a(lp2633
I4
aaI90
aI112
aI152
a(lp2634
I4
aaI112
a(lp2635
I4
aaI152
aI112
aI43
a(lp2636
I9
aa(lp2637
I9
aa(lp2638
I5
aaI33
aI33
aI112
aI90
aI94
a(lp2639
I4
aa(lp2640
I4
aaI112
aI160
aI160
aI86
a(lp2641
I0
aI1
aI6
aa(lp2642
I0
aI1
aI6
aaI21
a(lp2643
I4
aaI17
a(lp2644
I0
aI1
aI6
aa(lp2645
I9
aa(lp2646
I9
aa(lp2647
I9
aaI94
aI160
a(lp2648
I9
aaI149
aI69
aI69
aI69
aI95
aI94
aI69
a(lp2649
I0
aI1
aI6
aaI138
a(lp2650
I0
aI1
aaI122
a(lp2651
I5
aa(lp2652
I4
aa(lp2653
I9
aaI19
aI19
aI18
aI152
aI152
a(lp2654
I9
aaI60
aI112
a(lp2655
I9
aaI112
aI90
aI111
aI112
aI152
a(lp2656
I4
aa(lp2657
I4
aa(lp2658
I4
aaI60
a(lp2659
I4
aa(lp2660
I4
aaI18
a(lp2661
I4
aaI60
aI95
aI121
aI121
aI138
aI121
aI121
aI60
aI149
aI149
a(lp2662
I3
aI4
aI7
aI9
aa(lp2663
I0
aI1
aI2
aI3
aI5
aI6
aI7
aI8
aI9
aaI149
a(lp2664
I8
aaI81
aI33
aI181
a(lp2665
I9
aaI81
a(lp2666
I0
aI1
aa(lp2667
I4
aaI86
a(lp2668
I4
aa(lp2669
I9
aa(lp2670
I4
aa(lp2671
I4
aaI90
aI96
aI160
aI160
aI83
a(lp2672
I4
aaI69
a(lp2673
I4
aaI34
aI161
aI178
aI69
a(lp2674
I8
aaI34
a(lp2675
I4
aa(lp2676
I8
aaI111
a(lp2677
I4
aaI69
a(lp2678
I8
aaI178
a(lp2679
I9
aa(lp2680
I4
aa(lp2681
I9
aa(lp2682
I0
aI1
aa(lp2683
I0
aI1
aa(lp2684
I0
aI1
aaa(lp2685
(lp2686
I9
aa(lp2687
I0
aI1
aI6
aaI134
a(lp2688
I5
aaI121
a(lp2689
I3
aI4
aI7
aI9
aaI152
a(lp2690
I9
aa(lp2691
I9
aa(lp2692
I0
aI1
aI2
aI3
aI5
aI6
aI7
aI8
aI9
aaI121
a(lp2693
I1
aI4
aI6
aI8
aaI94
aI69
a(lp2694
I8
aaI33
a(lp2695
I1
aI4
aI6
aI8
aaI61
a(lp2696
I1
aI4
aI6
aI8
aaI94
a(lp2697
I8
aaI152
a(lp2698
I8
aaI17
a(lp2699
I4
aa(lp2700
I3
aI4
aI7
aI9
aa(lp2701
I2
aI3
aI4
aI6
aI7
aI8
aaI95
aI61
aI90
aI90
aI112
a(lp2702
I0
aI1
aI2
aI3
aI5
aI6
aI7
aI8
aI9
aa(lp2703
I1
aI4
aI6
aI8
aaI160
a(lp2704
I4
aaI142
aI181
a(lp2705
I2
aI7
aaI13
aI90
aI61
aI17
aI152
a(lp2706
I2
aI3
aI4
aI6
aI7
aI8
aaI152
aI152
a(lp2707
I1
aI4
aI6
aI8
aaI19
aI19
aI19
aI69
aI181
a(lp2708
I4
aaI13
a(lp2709
I5
aa(lp2710
I3
aI4
aI7
aI9
aaI69
aI83
aI69
aa(lp2711
(lp2712
I0
aI1
aa(lp2713
I8
aaI152
aI112
a(lp2714
I3
aI4
aI7
aI9
aa(lp2715
I8
aaI13
aI22
a(lp2716
I0
aI1
aaI112
aI13
a(lp2717
I8
aaI13
a(lp2718
I8
aaI149
a(lp2719
I0
aI1
aaI69
a(lp2720
I4
aa(lp2721
I4
aa(lp2722
I9
aaI152
aI22
aI13
aI13
a(lp2723
I8
aa(lp2724
I0
aI1
aa(lp2725
I3
aI4
aI7
aI9
aa(lp2726
I0
aI1
aI2
aI3
aI5
aI6
aI7
aI8
aI9
aa(lp2727
I4
aa(lp2728
I0
aI1
aI6
aa(lp2729
I0
aI1
aI6
aaI152
aI113
a(lp2730
I8
aa(lp2731
I0
aI1
aaI94
aI13
aI94
aI142
a(lp2732
I8
aaI22
a(lp2733
I0
aI1
aaI112
aI13
aI13
aa(lp2734
(lp2735
I2
aI3
aI4
aI6
aI7
aI8
aa(lp2736
I3
aI4
aI7
aI9
aa(lp2737
I0
aI1
aaI111
aI13
a(lp2738
I2
aI3
aI4
aI6
aI7
aI8
aaI16
aI13
a(lp2739
I2
aI3
aI4
aI6
aI7
aI8
aaI13
a(lp2740
I2
aI3
aI4
aI6
aI7
aI8
aa(lp2741
I0
aI1
aI2
aI3
aI5
aI6
aI7
aI8
aI9
aaI152
a(lp2742
I1
aI4
aI6
aI8
aa(lp2743
I1
aI4
aI6
aI8
aa(lp2744
I1
aI4
aI6
aI8
aa(lp2745
I4
aaI117
aI152
aI35
aI35
aI35
aI35
a(lp2746
I0
aI1
aI6
aa(lp2747
I0
aI1
aI6
aaI152
aI152
aI15
aI15
aI25
aI149
aa(lp2748
(lp2749
I4
aa(lp2750
I9
aa(lp2751
I9
aaI111
aI111
a(lp2752
I0
aI1
aa(lp2753
I9
aa(lp2754
I0
aI1
aa(lp2755
I0
aI1
aa(lp2756
I9
aaI152
aI152
aI33
aI152
aI13
a(lp2757
I9
aaI111
aI121
a(lp2758
I5
aaI181
aI181
a(lp2759
I5
aa(lp2760
I5
aa(lp2761
I9
aaI152
aI16
a(lp2762
I8
aaI17
aI152
aI149
a(lp2763
I5
aa(lp2764
I5
aa(lp2765
I4
aaI149
a(lp2766
I0
aI1
aa(lp2767
I9
aa(lp2768
I9
aa(lp2769
I4
aa(lp2770
I4
aa(lp2771
I0
aI1
aI2
aI3
aI5
aI6
aI7
aI8
aI9
aa(lp2772
I0
aI1
aI2
aI3
aI5
aI6
aI7
aI8
aI9
aaI114
aa(lp2773
(lp2774
I5
aa(lp2775
I2
aI7
aaI112
a(lp2776
I5
aa(lp2777
I2
aI3
aI4
aI6
aI7
aI8
aa(lp2778
I3
aI4
aI7
aI9
aa(lp2779
I9
aaI112
aI112
aI22
a(lp2780
I5
aaI138
a(lp2781
I9
aa(lp2782
I8
aa(lp2783
I8
aa(lp2784
I0
aI1
aI2
aI3
aI5
aI6
aI7
aI8
aI9
aa(lp2785
I2
aI7
aa(lp2786
I9
aa(lp2787
I9
aa(lp2788
I9
aa(lp2789
I9
aa(lp2790
I5
aaI152
aI7
aI112
a(lp2791
I9
aa(lp2792
I4
aa(lp2793
I1
aI4
aI6
aI8
aa(lp2794
I5
aa(lp2795
I9
aa(lp2796
I2
aI7
aa(lp2797
I9
aa(lp2798
I9
aaI122
a(lp2799
I9
aaI122
aI122
a(lp2800
I2
aI7
aaI149
aI149
aa(lp2801
(lp2802
I8
aaI112
a(lp2803
I8
aa(lp2804
I9
aa(lp2805
I9
aa(lp2806
I2
aI3
aI4
aI6
aI7
aI8
aaI36
a(lp2807
I3
aI4
aI7
aI9
aaI152
a(lp2808
I9
aa(lp2809
I8
aa(lp2810
I9
aaI152
aI152
aI16
aI24
a(lp2811
I9
aaI0
aI24
aI22
aI122
a(lp2812
I2
aI7
aa(lp2813
I2
aI7
aa(lp2814
I9
aa(lp2815
I9
aa(lp2816
I2
aI7
aaI152
aI36
aI34
aI21
a(lp2817
I1
aI4
aI6
aI8
aa(lp2818
I0
aI1
aI2
aI3
aI5
aI6
aI7
aI8
aI9
aaa(lp2819
I111
a(lp2820
I3
aI4
aI7
aI9
aa(lp2821
I2
aI7
aa(lp2822
I8
aa(lp2823
I9
aa(lp2824
I5
aaI94
aI94
a(lp2825
I2
aI7
aa(lp2826
I9
aa(lp2827
I9
aa(lp2828
I9
aa(lp2829
I2
aI7
aa(lp2830
I9
aaI33
a(lp2831
I8
aa(lp2832
I2
aI7
aa(lp2833
I2
aI7
aa(lp2834
I3
aI4
aI7
aI9
aa(lp2835
I0
aI1
aI2
aI3
aI5
aI6
aI7
aI8
aI9
aaI33
a(lp2836
I9
aaI33
a(lp2837
I1
aI4
aI6
aI8
aaI33
aI160
a(lp2838
I9
aa(lp2839
I9
aaI121
aI44
aI152
aI152
aI69
aI160
aI111
a(lp2840
I9
aa(lp2841
I1
aI4
aI6
aI8
aa(lp2842
I9
aa(lp2843
I9
aaI111
aI181
aI111
a(lp2844
I0
aI1
aI2
aI3
aI5
aI6
aI7
aI8
aI9
aa(lp2845
I5
aa(lp2846
I3
aI4
aI7
aI9
aaI33
a(lp2847
I3
aI4
aI7
aI9
aa(lp2848
I3
aI4
aI7
aI9
aa(lp2849
I4
aa(lp2850
I9
aaI181
a(lp2851
I9
aaI117
a(lp2852
I0
aI1
aI6
aa(lp2853
I2
aI7
aa(lp2854
I9
aa(lp2855
I9
aaI21
aI124
aI124
aI152
aI152
aI149
aI56
aI56
a(lp2856
I0
aI1
aa(lp2857
I0
aI1
aI6
aa(lp2858
I0
aI1
aI6
aa(lp2859
I2
aI7
aa(lp2860
I3
aI4
aI7
aI9
aaI112
aI33
a(lp2861
I2
aI3
aI4
aI6
aI7
aI8
aaI33
aI33
aa(lp2862
(lp2863
I0
aI1
aaI94
a(lp2864
I0
aI1
aaI152
aI152
aI114
aI152
a(lp2865
I0
aI1
aI2
aI3
aI5
aI6
aI7
aI8
aI9
aaI33
a(lp2866
I0
aI1
aI2
aI3
aI5
aI6
aI7
aI8
aI9
aa(lp2867
I9
aaI170
a(lp2868
I4
aa(lp2869
I9
aa(lp2870
I0
aI1
aI2
aI3
aI5
aI6
aI7
aI8
aI9
aa(lp2871
I3
aI4
aI7
aI9
aa(lp2872
I0
aI1
aI2
aI3
aI5
aI6
aI7
aI8
aI9
aa(lp2873
I0
aI1
aI2
aI3
aI5
aI6
aI7
aI8
aI9
aa(lp2874
I0
aI1
aI2
aI3
aI5
aI6
aI7
aI8
aI9
aaI111
a(lp2875
I0
aI1
aa(lp2876
I0
aI1
aI6
aa(lp2877
I5
aa(lp2878
I2
aI3
aI4
aI6
aI7
aI8
aa(lp2879
I5
aaI113
a(lp2880
I0
aI1
aa(lp2881
I9
aa(lp2882
I9
aa(lp2883
I9
aa(lp2884
I8
aaI22
aI134
a(lp2885
I4
aa(lp2886
I4
aaI114
aI152
aI17
aI17
a(lp2887
I2
aI7
aaI117
aI21
a(lp2888
I0
aI1
aaI17
aI152
aI62
aI152
aI127
aI15
a(lp2889
I4
aaa(lp2890
(lp2891
I2
aI7
aa(lp2892
I9
aa(lp2893
I9
aa(lp2894
I9
aa(lp2895
I3
aa(lp2896
I8
aa(lp2897
I9
aa(lp2898
I4
aa(lp2899
I5
aa(lp2900
I9
aaI152
a(lp2901
I0
aI1
aI2
aI3
aI5
aI6
aI7
aI8
aI9
aa(lp2902
I5
aaI170
a(lp2903
I8
aa(lp2904
I2
aI3
aI4
aI6
aI7
aI8
aa(lp2905
I3
aI4
aI7
aI9
aa(lp2906
I9
aa(lp2907
I2
aI7
aa(lp2908
I2
aI7
aa(lp2909
I9
aaI170
aI170
aI78
a(lp2910
I9
aa(lp2911
I3
aI4
aI7
aI9
aaI170
aI152
aI9
a(lp2912
I2
aI7
aaI58
aI52
a(lp2913
I7
aa(lp2914
I9
aa(lp2915
I5
aa(lp2916
I9
aa(lp2917
I2
aI7
aaI78
a(lp2918
I9
aaI78
a(lp2919
I9
aa(lp2920
I4
aa(lp2921
I2
aI7
aa(lp2922
I9
aa(lp2923
I2
aI7
aa(lp2924
I2
aI7
aaI90
aI60
a(lp2925
I4
aaI78
aI121
a(lp2926
I3
aI4
aI7
aI9
aaI138
aI58
aI94
a(lp2927
I9
aa(lp2928
I9
aaI94
a(lp2929
I7
aa(lp2930
I5
aaI78
aI153
a(lp2931
I9
aa(lp2932
I9
aa(lp2933
I9
aaa(lp2934
(lp2935
I4
aa(lp2936
I9
aaI160
aI19
aI160
a(lp2937
I9
aaI160
aI61
aI34
a(lp2938
I8
aaI33
aI34
aI134
a(lp2939
I9
aa(lp2940
I3
aI4
aI7
aI9
aaI19
aI19
a(lp2941
I8
aaI17
a(lp2942
I8
aa(lp2943
I8
aa(lp2944
I8
aaI83
a(lp2945
I4
aa(lp2946
I8
aaI152
aI178
aI163
aI152
aI152
a(lp2947
I4
aaI152
aI34
aI152
a(lp2948
I4
aaI61
aI34
aI152
aI34
aI122
a(lp2949
I5
aaI139
a(lp2950
I4
aaI34
a(lp2951
I1
aI4
aI6
aI8
aaI113
a(lp2952
I4
aa(lp2953
I4
aa(lp2954
I9
aa(lp2955
I8
aa(lp2956
I8
aaI149
aI152
aI112
aI6
aI112
aI112
aI21
aI178
aI152
aI21
aI178
a(lp2957
I8
aa(lp2958
I8
aa(lp2959
I8
aa(lp2960
I8
aaI83
aI34
a(lp2961
I0
aI1
aI2
aI3
aI5
aI6
aI7
aI8
aI9
aaI34
aI94
aI94
a(lp2962
I3
aI4
aI7
aI9
aaI152
aI61
aI113
aI160
aI152
a(lp2963
I8
aaI34
a(lp2964
I8
aa(lp2965
I2
aI7
aa(lp2966
I2
aI7
aa(lp2967
I9
aaI34
aI149
aI149
aI149
aI0
aI0
aI61
a(lp2968
I4
aaI60
aI178
a(lp2969
I9
aa(lp2970
I9
aaI134
aI6
a(lp2971
I9
aa(lp2972
I9
aa(lp2973
I9
aaI19
aI71
aI36
aI19
a(lp2974
I9
aaI181
aI181
a(lp2975
I8
aaI94
aI19
aI19
aI160
aI160
aI160
aI52
aI160
aI160
a(lp2976
I4
aaI61
aI112
aI60
a(lp2977
I2
aI3
aI4
aI6
aI7
aI8
aaI152
aI170
a(lp2978
I5
aa(lp2979
I4
aa(lp2980
I5
aa(lp2981
I4
aaI95
aI17
a(lp2982
I0
aI1
aI2
aI3
aI5
aI6
aI7
aI8
aI9
aa(lp2983
I5
aaI160
a(lp2984
I5
aa(lp2985
I1
aI4
aI6
aI8
aaI170
a(lp2986
I5
aa(lp2987
I4
aI9
aa(lp2988
I5
aaI94
aI94
aa(lp2989
(lp2990
I2
aI7
aaI2
a(lp2991
I5
aa(lp2992
I9
aa(lp2993
I9
aa(lp2994
I3
aI4
aI7
aI9
aa(lp2995
I5
aaI111
aI94
aI112
aI137
aI117
aI170
a(lp2996
I0
aI1
aI2
aI3
aI5
aI6
aI7
aI8
aI9
aa(lp2997
I2
aI7
aa(lp2998
I9
aa(lp2999
I4
aaI137
aI149
aI9
aI149
aI9
aI19
a(lp3000
I5
aaI159
aI36
a(lp3001
I9
aa(lp3002
I4
aa(lp3003
I4
aaI61
aI36
aI112
a(lp3004
I3
aI4
aI7
aI9
aaI113
a(lp3005
I4
aa(lp3006
I4
aa(lp3007
I4
aaI94
aI25
a(lp3008
I9
aaI61
aI21
aI60
aI149
a(lp3009
I9
aaI61
a(lp3010
I3
aI4
aI7
aI9
aa(lp3011
I3
aI4
aI7
aI9
aa(lp3012
I4
aa(lp3013
I4
aaI90
aI152
aI152
aI152
aI61
aI113
aI160
aI112
a(lp3014
I5
aa(lp3015
I5
aaI139
aI21
aI181
a(lp3016
I4
aa(lp3017
I9
aaI112
aI112
aa(lp3018
I62
a(lp3019
I4
aaI181
a(lp3020
I0
aI1
aI6
aa(lp3021
I4
aaI121
a(lp3022
I4
aa(lp3023
I5
aa(lp3024
I4
aa(lp3025
I5
aaI160
aI15
aI15
a(lp3026
I2
aI7
aaI28
a(lp3027
I9
aa(lp3028
I3
aaI149
a(lp3029
I9
aa(lp3030
I0
aI1
aI6
aaI181
a(lp3031
I0
aI1
aI6
aaI181
aI152
a(lp3032
I5
aa(lp3033
I5
aa(lp3034
I5
aa(lp3035
I5
aaI153
a(lp3036
I5
aaI121
a(lp3037
I0
aI1
aI2
aI3
aI5
aI6
aI7
aI8
aI9
aaI152
a(lp3038
I5
aaI152
aI33
aI122
aI114
aI15
aI112
a(lp3039
I9
aa(lp3040
I9
aa(lp3041
I9
aaI111
a(lp3042
I9
aaI149
aI143
aI149
a(lp3043
I5
aaI108
aI112
a(lp3044
I5
aa(lp3045
I2
aI7
aa(lp3046
I9
aa(lp3047
I5
aaI112
a(lp3048
I9
aa(lp3049
I5
aa(lp3050
I0
aI1
aI2
aI3
aI5
aI6
aI7
aI8
aI9
aaI152
a(lp3051
I9
aaI33
aI33
aI33
aI13
aI181
aI181
aI181
a(lp3052
I0
aI1
aI2
aI3
aI5
aI6
aI7
aI8
aI9
aa(lp3053
I4
aaI69
a(lp3054
I9
aa(lp3055
I9
aa(lp3056
I5
aa(lp3057
I3
aI4
aI7
aI9
aa(lp3058
I5
aa(lp3059
I0
aI1
aI2
aI3
aI5
aI6
aI7
aI8
aI9
aa(lp3060
I1
aI4
aI6
aI8
aa(lp3061
I1
aI4
aI6
aI8
aa(lp3062
I9
aaI127
aI127
aI138
aI122
aI112
a(lp3063
I2
aI3
aI4
aI6
aI7
aI8
aa(lp3064
I0
aI1
aI2
aI3
aI5
aI6
aI7
aI8
aI9
aa(lp3065
I3
aI4
aI7
aI9
aa(lp3066
I3
aI4
aI7
aI9
aa(lp3067
I0
aI1
aI2
aI3
aI5
aI6
aI7
aI8
aI9
aa(lp3068
I3
aI4
aI7
aI9
aaI9
a(lp3069
I4
aa(lp3070
I4
aa(lp3071
I4
aa(lp3072
I4
aa(lp3073
I4
aa(lp3074
I3
aI4
aI7
aI9
aa(lp3075
I3
aI4
aI7
aI9
aa(lp3076
I9
aaI181
aI181
a(lp3077
I9
aaI36
a(lp3078
I9
aa(lp3079
I9
aaI111
a(lp3080
I2
aI3
aI4
aI6
aI7
aI8
aaI19
aI19
aI112
aI112
a(lp3081
I2
aI3
aI4
aI6
aI7
aI8
aaI44
aI152
aI139
a(lp3082
I4
aa(lp3083
I4
aaa(lp3084
I152
a(lp3085
I4
aaI152
a(lp3086
I0
aI1
aaI152
aI152
aI2
aI33
a(lp3087
I4
aaI61
a(lp3088
I9
aa(lp3089
I9
aa(lp3090
I4
aa(lp3091
I0
aI1
aa(lp3092
I9
aaI111
aI160
a(lp3093
I9
aaI16
a(lp3094
I0
aI1
aI6
aa(lp3095
I0
aI1
aI2
aI3
aI5
aI6
aI7
aI8
aI9
aaI19
a(lp3096
I8
aa(lp3097
I0
aI1
aaI19
a(lp3098
I8
aaI36
aI19
aI94
a(lp3099
I0
aI1
aI6
aa(lp3100
I0
aI1
aI2
aI3
aI5
aI6
aI7
aI8
aI9
aa(lp3101
I4
aa(lp3102
I1
aI4
aI6
aI8
aaI16
aI111
a(lp3103
I4
aa(lp3104
I4
aa(lp3105
I0
aI1
aI2
aI3
aI5
aI6
aI7
aI8
aI9
aa(lp3106
I9
aaI15
a(lp3107
I9
aaI152
a(lp3108
I4
aa(lp3109
I4
aa(lp3110
I0
aI1
aI2
aI3
aI5
aI6
aI7
aI8
aI9
aa(lp3111
I0
aI1
aaI160
a(lp3112
I4
aaI33
aI33
a(lp3113
I0
aI1
aa(lp3114
I3
aI4
aI7
aI9
aaa(lp3115
(lp3116
I2
aI7
aa(lp3117
I9
aaI122
aI7
aI97
aI159
a(lp3118
I3
aa(lp3119
I9
aa(lp3120
I2
aI3
aI4
aI6
aI7
aI8
aaI149
aI122
aI69
aI159
aI46
aI152
a(lp3121
I9
aa(lp3122
I9
aa(lp3123
I8
aaI90
a(lp3124
I4
aa(lp3125
I9
aaI17
a(lp3126
I2
aI7
aaI21
aI21
aI149
aI21
aI90
aI9
a(lp3127
I0
aI1
aI2
aI3
aI5
aI6
aI7
aI8
aI9
aaI7
aI159
a(lp3128
I9
aa(lp3129
I0
aI1
aI6
aa(lp3130
I9
aa(lp3131
I9
aaI16
aI97
a(lp3132
I3
aI4
aI7
aI9
aa(lp3133
I9
aa(lp3134
I0
aI1
aI6
aa(lp3135
I2
aI7
aa(lp3136
I9
aaI152
a(lp3137
I9
aaI159
aI122
a(lp3138
I5
aa(lp3139
I9
aaa(lp3140
(lp3141
I3
aI4
aI7
aI9
aaI16
a(lp3142
I0
aI1
aI2
aI3
aI5
aI6
aI7
aI8
aI9
aa(lp3143
I9
aa(lp3144
I9
aa(lp3145
I9
aa(lp3146
I3
aI4
aI7
aI9
aa(lp3147
I0
aI1
aa(lp3148
I4
aa(lp3149
I0
aI1
aaI152
a(lp3150
I9
aa(lp3151
I0
aI1
aI6
aa(lp3152
I9
aa(lp3153
I9
aaI136
a(lp3154
I9
aa(lp3155
I9
aaI16
aI62
aI160
aI160
aI19
aI19
aI19
aI19
a(lp3156
I9
aa(lp3157
I5
aa(lp3158
I5
aa(lp3159
I5
aa(lp3160
I0
aI1
aI6
aa(lp3161
I0
aI1
aI6
aa(lp3162
I9
aa(lp3163
I8
aa(lp3164
I0
aI1
aI2
aI3
aI5
aI6
aI7
aI8
aI9
aaI149
aI149
aI149
a(lp3165
I9
aa(lp3166
I9
aa(lp3167
I3
aI4
aI7
aI9
aa(lp3168
I0
aI1
aI6
aa(lp3169
I0
aI1
aI6
aa(lp3170
I9
aaI152
a(lp3171
I5
aa(lp3172
I9
aa(lp3173
I5
aa(lp3174
I3
aI4
aI7
aI9
aa(lp3175
I9
aa(lp3176
I9
aa(lp3177
I9
aa(lp3178
I5
aa(lp3179
I5
aaI149
aI122
aI16
aI113
aI16
a(lp3180
I2
aI7
aaI86
a(lp3181
I3
aa(lp3182
I3
aI4
aI7
aI9
aa(lp3183
I4
aa(lp3184
I0
aI1
aI2
aI3
aI5
aI6
aI7
aI8
aI9
aaI152
aI149
a(lp3185
I9
aa(lp3186
I8
aaI152
aI152
aa(lp3187
I121
aI69
aI152
aI152
a(lp3188
I3
aI4
aI7
aI9
aa(lp3189
I9
aaI160
aI160
aI160
aI152
aI17
aI90
aI112
a(lp3190
I4
aaI21
aI149
aI21
aI149
aI160
aI160
a(lp3191
I0
aI1
aI2
aI3
aI5
aI6
aI7
aI8
aI9
aaI52
aI152
a(lp3192
I4
aaI137
aI160
a(lp3193
I3
aI4
aI7
aI9
aaI18
a(lp3194
I9
aa(lp3195
I9
aa(lp3196
I9
aa(lp3197
I8
aaI181
aI18
aI125
aI125
aI152
a(lp3198
I3
aI4
aI7
aI9
aaI36
aI62
aI117
aI137
a(lp3199
I9
aaI62
aI62
aI52
a(lp3200
I4
aaI95
aI9
aI9
aI137
aI112
a(lp3201
I9
aa(lp3202
I9
aaI170
aI170
aI18
aI6
aI36
a(lp3203
I9
aa(lp3204
I5
aaI153
a(lp3205
I4
aaI137
a(lp3206
I2
aI3
aI4
aI6
aI7
aI8
aaI18
aI18
aI6
aI112
a(lp3207
I5
aa(lp3208
I3
aI4
aI7
aI9
aa(lp3209
I9
aa(lp3210
I5
aa(lp3211
I5
aa(lp3212
I0
aI1
aI2
aI3
aI5
aI6
aI7
aI8
aI9
aa(lp3213
I0
aI1
aI2
aI3
aI5
aI6
aI7
aI8
aI9
aa(lp3214
I4
aa(lp3215
I3
aI4
aI7
aI9
aa(lp3216
I3
aI4
aI7
aI9
aaI36
aI36
a(lp3217
I9
aa(lp3218
I0
aI1
aI2
aI3
aI5
aI6
aI7
aI8
aI9
aaI62
aI62
aI62
aI62
a(lp3219
I5
aa(lp3220
I4
aI9
aaI160
aI160
a(lp3221
I9
aaI160
aI160
aI10
a(lp3222
I5
aaI52
a(lp3223
I9
aaa(lp3224
I90
aI94
a(lp3225
I0
aI1
aI6
aaI61
aI61
aI160
a(lp3226
I4
aa(lp3227
I5
aaI94
a(lp3228
I0
aI1
aa(lp3229
I5
aaI138
aI33
aI25
aI33
a(lp3230
I9
aa(lp3231
I9
aaI25
aI33
aI90
a(lp3232
I4
aaI152
aI94
aI149
aI33
aI6
aI94
a(lp3233
I5
aa(lp3234
I0
aI1
aa(lp3235
I0
aI1
aa(lp3236
I0
aI1
aa(lp3237
I5
aa(lp3238
I5
aa(lp3239
I5
aa(lp3240
I5
aa(lp3241
I0
aI1
aaI109
aI0
a(lp3242
I5
aa(lp3243
I5
aa(lp3244
I5
aaI138
a(lp3245
I9
aaI112
a(lp3246
I0
aI1
aI2
aI3
aI5
aI6
aI7
aI8
aI9
aa(lp3247
I0
aI1
aI2
aI3
aI5
aI6
aI7
aI8
aI9
aaI33
a(lp3248
I0
aI1
aaI94
aa(lp3249
I161
aI69
aI69
a(lp3250
I0
aI1
aI2
aI3
aI5
aI6
aI7
aI8
aI9
aa(lp3251
I3
aI4
aI7
aI9
aa(lp3252
I5
aa(lp3253
I0
aI1
aI2
aI3
aI5
aI6
aI7
aI8
aI9
aaI170
a(lp3254
I9
aaI112
aI160
aI170
a(lp3255
I5
aaI117
a(lp3256
I9
aaI160
aI34
aI161
aI69
aI69
aI181
a(lp3257
I9
aa(lp3258
I5
aa(lp3259
I9
aaI160
aI33
aI137
a(lp3260
I3
aI4
aI7
aI9
aa(lp3261
I5
aaI137
aI161
aI69
aI149
aI122
a(lp3262
I9
aaI122
aI112
aI62
a(lp3263
I8
aaI112
a(lp3264
I0
aI1
aI2
aI3
aI5
aI6
aI7
aI8
aI9
aaI112
a(lp3265
I5
aa(lp3266
I3
aI4
aI7
aI9
aaI145
aI153
a(lp3267
I5
aa(lp3268
I5
aa(lp3269
I2
aI7
aa(lp3270
I5
aa(lp3271
I8
aa(lp3272
I3
aI4
aI7
aI9
aa(lp3273
I9
aaI170
a(lp3274
I0
aI1
aI2
aI3
aI5
aI6
aI7
aI8
aI9
aaI139
aI170
aI112
a(lp3275
I2
aI7
aa(lp3276
I9
aaI137
aI152
aI170
aI121
aI160
a(lp3277
I1
aI4
aI6
aI8
aaI181
aa(lp3278
(lp3279
I0
aI1
aa(lp3280
I2
aI7
aa(lp3281
I8
aa(lp3282
I8
aa(lp3283
I0
aI1
aa(lp3284
I0
aI1
aI6
aaI60
aI174
aI160
aI160
a(lp3285
I0
aI1
aa(lp3286
I0
aI1
aI2
aI3
aI5
aI6
aI7
aI8
aI9
aaI152
a(lp3287
I8
aaI108
a(lp3288
I8
aa(lp3289
I8
aa(lp3290
I9
aa(lp3291
I9
aaI160
a(lp3292
I5
aa(lp3293
I9
aa(lp3294
I0
aI1
aI6
aaI152
aI127
aI160
a(lp3295
I0
aI1
aI6
aa(lp3296
I0
aI1
aI2
aI3
aI5
aI6
aI7
aI8
aI9
aa(lp3297
I9
aa(lp3298
I9
aaI152
aI152
aI112
aI69
aI114
a(lp3299
I9
aaI94
aI71
aa(lp3300
I62
aI62
aI62
aI122
aI122
aI61
aI36
aI36
aI36
aI36
aI36
aI36
aI62
aI112
a(lp3301
I9
aaI0
aI0
aI62
a(lp3302
I5
aa(lp3303
I5
aaI122
aI60
aI22
aI60
a(lp3304
I2
aa(lp3305
I8
aaI111
aI117
a(lp3306
I5
aa(lp3307
I0
aI1
aI6
aaI71
aI83
aI69
aI16
aI0
a(lp3308
I8
aaI122
aI69
a(lp3309
I2
aI7
aa(lp3310
I5
aa(lp3311
I5
aaI69
aI112
aI122
a(lp3312
I2
aI7
aaI122
aI122
aI122
a(lp3313
I4
aaI71
aI71
aI69
aI149
a(lp3314
I9
aaI94
aI24
aI22
aI60
aI69
aI111
a(lp3315
I9
aaI117
a(lp3316
I4
aaI34
aI34
aI122
aI149
a(lp3317
I5
aaI17
aI60
aI86
aI86
a(lp3318
I9
aa(lp3319
I2
aI7
aa(lp3320
I5
aaI0
aI0
aI35
aI69
a(lp3321
I9
aaI62
aI62
aI36
aI122
a(lp3322
I5
aaI94
aI94
a(lp3323
I9
aaI34
aI60
aI34
a(lp3324
I2
aI7
aaI58
aI122
aI62
aI62
a(lp3325
I9
aaI36
aI36
a(lp3326
I0
aI1
aI2
aI3
aI5
aI6
aI7
aI8
aI9
aaI62
aI18
aI149
aI152
a(lp3327
I5
aa(lp3328
I5
aa(lp3329
I0
aI1
aI2
aI3
aI5
aI6
aI7
aI8
aI9
aaI60
aI122
a(lp3330
I5
aaI60
a(lp3331
I2
aI7
aa(lp3332
I5
aaI7
aI60
aI0
aI62
a(lp3333
I9
aa(lp3334
I5
aa(lp3335
I5
aaI34
aI138
aI122
a(lp3336
I5
aaI34
a(lp3337
I9
aaI16
aI6
a(lp3338
I9
aaI29
aI134
aI62
a(lp3339
I5
aaI71
a(lp3340
I5
aaI62
aI69
a(lp3341
I2
aI7
aa(lp3342
I9
aaI106
a(lp3343
I9
aaI112
aI181
aI137
aI178
aI34
aI122
aI149
a(lp3344
I5
aaI64
aI64
aI6
aI36
aI122
aI138
aI36
a(lp3345
I5
aaI64
aa(lp3346
(lp3347
I4
aI9
aa(lp3348
I2
aI7
aaI139
aI6
aI127
a(lp3349
I9
aa(lp3350
I9
aa(lp3351
I9
aa(lp3352
I8
aaI61
aI61
aI160
aI122
a(lp3353
I9
aa(lp3354
I0
aI1
aI2
aI3
aI5
aI6
aI7
aI8
aI9
aa(lp3355
I9
aaI41
a(lp3356
I5
aaI127
aI173
a(lp3357
I3
aI4
aI7
aI9
aaI60
a(lp3358
I9
aaI152
a(lp3359
I4
aa(lp3360
I4
aaI17
a(lp3361
I9
aa(lp3362
I2
aI7
aa(lp3363
I2
aI7
aa(lp3364
I8
aaI6
a(lp3365
I9
aaI112
a(lp3366
I2
aI3
aI4
aI6
aI7
aI8
aa(lp3367
I8
aaI71
aI60
aI112
a(lp3368
I0
aI1
aa(lp3369
I9
aa(lp3370
I0
aI1
aa(lp3371
I9
aaI138
a(lp3372
I9
aaI152
a(lp3373
I9
aa(lp3374
I9
aa(lp3375
I9
aaI16
a(lp3376
I4
aa(lp3377
I9
aaI152
aI138
a(lp3378
I0
aI1
aa(lp3379
I0
aI1
aaI96
aI138
a(lp3380
I3
aI4
aI7
aI9
aaI69
aI90
aI138
aI152
aI36
a(lp3381
I9
aaI121
aI149
aI160
aI160
aI152
aI152
aI152
a(lp3382
I9
aaI152
aI90
a(lp3383
I0
aI1
aaI122
aI122
a(lp3384
I9
aa(lp3385
I0
aI1
aI6
aa(lp3386
I9
aa(lp3387
I9
aaI152
a(lp3388
I9
aaI166
aI33
aI166
aI62
a(lp3389
I0
aI1
aa(lp3390
I8
aa(lp3391
I8
aa(lp3392
I5
aaI160
aI114
a(lp3393
I4
aa(lp3394
I4
aa(lp3395
I5
aaI112
aI97
a(lp3396
I2
aI7
aa(lp3397
I9
aa(lp3398
I8
aa(lp3399
I8
aa(lp3400
I9
aa(lp3401
I8
aa(lp3402
I4
aa(lp3403
I5
aaI138
aI69
aI69
a(lp3404
I5
aa(lp3405
I3
aI4
aI7
aI9
aa(lp3406
I4
aaI152
a(lp3407
I4
aa(lp3408
I1
aI4
aI6
aI8
aaI152
aI152
aI152
aI152
aI172
aI152
aI152
a(lp3409
I5
aa(lp3410
I2
aI7
aa(lp3411
I0
aI1
aa(lp3412
I4
aa(lp3413
I0
aI1
aaI24
a(lp3414
I9
aaI112
aI112
a(lp3415
I9
aa(lp3416
I9
aaI17
aI139
a(lp3417
I3
aI4
aI7
aI9
aaI138
a(lp3418
I4
aaI71
aI62
aI160
a(lp3419
I9
aaI138
a(lp3420
I9
aa(lp3421
I9
aaI71
aI152
a(lp3422
I5
aa(lp3423
I9
aaa(lp3424
I64
aI64
aI122
a(lp3425
I5
aa(lp3426
I3
aI4
aI7
aI9
aa(lp3427
I9
aaI122
aI122
aI122
a(lp3428
I9
aaI60
a(lp3429
I9
aaI117
a(lp3430
I9
aa(lp3431
I9
aaI65
a(lp3432
I5
aaI149
a(lp3433
I1
aI4
aI6
aI8
aaI167
aI112
aI122
aI122
a(lp3434
I5
aaI122
aI122
aI122
aI178
a(lp3435
I0
aI1
aI2
aI3
aI5
aI6
aI7
aI8
aI9
aa(lp3436
I5
aaa(lp3437
(lp3438
I5
aa(lp3439
I3
aI4
aI7
aI9
aa(lp3440
I0
aI1
aI2
aI3
aI5
aI6
aI7
aI8
aI9
aaI112
a(lp3441
I5
aaI112
aI112
a(lp3442
I4
aI9
aa(lp3443
I5
aa(lp3444
I5
aa(lp3445
I5
aa(lp3446
I3
aI4
aI7
aI9
aa(lp3447
I3
aI4
aI7
aI9
aaI170
a(lp3448
I3
aI4
aI7
aI9
aa(lp3449
I3
aI4
aI7
aI9
aa(lp3450
I3
aI4
aI7
aI9
aaI152
a(lp3451
I4
aa(lp3452
I4
aa(lp3453
I3
aI4
aI7
aI9
aaI160
a(lp3454
I3
aI4
aI7
aI9
aa(lp3455
I3
aI4
aI7
aI9
aa(lp3456
I3
aI4
aI7
aI9
aaI69
aI69
a(lp3457
I3
aI4
aI7
aI9
aa(lp3458
I3
aI4
aI7
aI9
aa(lp3459
I3
aI4
aI7
aI9
aa(lp3460
I0
aI1
aI2
aI3
aI5
aI6
aI7
aI8
aI9
aa(lp3461
I3
aI4
aI7
aI9
aa(lp3462
I0
aI1
aI2
aI3
aI5
aI6
aI7
aI8
aI9
aa(lp3463
I5
aa(lp3464
I3
aI4
aI7
aI9
aa(lp3465
I3
aI4
aI7
aI9
aa(lp3466
I0
aI1
aI2
aI3
aI5
aI6
aI7
aI8
aI9
aa(lp3467
I3
aI4
aI7
aI9
aa(lp3468
I5
aa(lp3469
I3
aI4
aI7
aI9
aa(lp3470
I3
aI4
aI7
aI9
aa(lp3471
I9
aa(lp3472
I5
aa(lp3473
I9
aaI152
aI71
a(lp3474
I0
aI1
aI6
aa(lp3475
I5
aa(lp3476
I5
aa(lp3477
I3
aI4
aI7
aI9
aa(lp3478
I3
aI4
aI7
aI9
aa(lp3479
I3
aI4
aI7
aI9
aa(lp3480
I5
aa(lp3481
I5
aa(lp3482
I5
aa(lp3483
I3
aI4
aI7
aI9
aa(lp3484
I0
aI1
aI2
aI3
aI5
aI6
aI7
aI8
aI9
aaI152
aI121
a(lp3485
I3
aI4
aI7
aI9
aaI112
a(lp3486
I3
aI4
aI7
aI9
aa(lp3487
I5
aa(lp3488
I0
aI1
aI2
aI3
aI5
aI6
aI7
aI8
aI9
aaa(lp3489
(lp3490
I5
aaI53
a(lp3491
I2
aI3
aI4
aI6
aI7
aI8
aaI6
aI152
a(lp3492
I4
aI9
aaI149
aI152
a(lp3493
I0
aI1
aaI95
aI152
aI149
aI16
a(lp3494
I8
aaI53
aI146
a(lp3495
I0
aI1
aI6
aa(lp3496
I0
aI1
aI6
aaI90
aI160
aI149
aI152
a(lp3497
I8
aaI112
aI33
aI152
a(lp3498
I4
aaI149
aI121
aI95
aI111
a(lp3499
I3
aI4
aI7
aI9
aaI121
aI121
a(lp3500
I8
aa(lp3501
I8
aa(lp3502
I4
aa(lp3503
I9
aa(lp3504
I9
aaI43
aI138
aI160
a(lp3505
I2
aI3
aI4
aI6
aI7
aI8
aaI0
aI69
aI138
aI69
aI160
aI112
a(lp3506
I4
aaI112
a(lp3507
I1
aI4
aI6
aI8
aaI159
aI122
a(lp3508
I0
aI1
aI2
aI3
aI5
aI6
aI7
aI8
aI9
aaI61
aI61
aI149
aa(lp3509
(lp3510
I0
aI1
aI2
aI3
aI5
aI6
aI7
aI8
aI9
aa(lp3511
I5
aaI112
aI7
aI143
aI112
aI62
a(lp3512
I2
aI7
aaI108
aI152
aI114
a(lp3513
I5
aaI18
aI160
aI160
a(lp3514
I5
aaI46
aI81
a(lp3515
I7
aaI113
aI46
aI46
aI18
a(lp3516
I1
aI4
aI6
aI8
aaI142
a(lp3517
I1
aI4
aI6
aI8
aaI33
a(lp3518
I5
aa(lp3519
I5
aa(lp3520
I5
aa(lp3521
I4
aa(lp3522
I2
aI7
aa(lp3523
I4
aa(lp3524
I5
aa(lp3525
I4
aa(lp3526
I5
aa(lp3527
I4
aa(lp3528
I2
aI7
aa(lp3529
I5
aa(lp3530
I5
aa(lp3531
I9
aaI181
a(lp3532
I5
aa(lp3533
I4
aaI181
a(lp3534
I5
aaI181
a(lp3535
I9
aaI112
aI160
aI108
a(lp3536
I9
aaI46
aI112
aI81
a(lp3537
I5
aaI112
aI62
a(lp3538
I5
aaI18
aI112
aI7
aI160
aI152
aI114
a(lp3539
I5
aaI143
a(lp3540
I2
aI7
aaI152
a(lp3541
I0
aI1
aI6
aaI112
aI18
aI160
aI7
aI114
a(lp3542
I5
aaI152
aI62
aI143
a(lp3543
I2
aI7
aa(lp3544
I5
aaI160
aI46
aI108
aI112
aI81
a(lp3545
I4
aa(lp3546
I4
aaI96
a(lp3547
I0
aI1
aa(lp3548
I0
aI1
aaa(lp3549
I60
aI6
a(lp3550
I0
aI1
aaI35
aI81
a(lp3551
I0
aI1
aaI6
aI152
a(lp3552
I9
aa(lp3553
I2
aI7
aa(lp3554
I5
aa(lp3555
I8
aa(lp3556
I8
aaI146
aI160
aI2
aI121
a(lp3557
I0
aI1
aa(lp3558
I0
aI1
aI2
aI3
aI5
aI6
aI7
aI8
aI9
aa(lp3559
I5
aaI143
aI160
aI81
aI69
aI60
a(lp3560
I0
aI1
aa(lp3561
I8
aaI33
a(lp3562
I0
aI1
aaI56
a(lp3563
I0
aI1
aaI95
aI95
aI19
aI19
aI19
aI19
a(lp3564
I5
aaI137
aI143
aI143
aI152
aI149
aI149
a(lp3565
I5
aa(lp3566
I0
aI1
aI6
aaI60
a(lp3567
I9
aa(lp3568
I5
aaI18
aI152
aI152
aI16
aI16
aI149
a(lp3569
I8
aaI62
aI149
a(lp3570
I0
aI1
aaI137
aI137
aI16
aI16
aI170
a(lp3571
I2
aI3
aI4
aI6
aI7
aI8
aaI2
aI61
aI137
aI2
a(lp3572
I8
aa(lp3573
I0
aI1
aa(lp3574
I0
aI1
aaI112
a(lp3575
I0
aI1
aaI139
a(lp3576
I5
aaI122
aI122
aI160
a(lp3577
I0
aI1
aI2
aI3
aI5
aI6
aI7
aI8
aI9
aa(lp3578
I3
aI4
aI7
aI9
aa(lp3579
I9
aaI149
aI149
aI149
a(lp3580
I2
aI7
aaI36
aI19
aI19
aI19
aI19
a(lp3581
I9
aaI149
a(lp3582
I5
aaI152
a(lp3583
I5
aaI19
aI19
aI161
aI160
aa(lp3584
(lp3585
I0
aI1
aI6
aa(lp3586
I5
aaI139
aI139
a(lp3587
I0
aI1
aI2
aI3
aI5
aI6
aI7
aI8
aI9
aa(lp3588
I9
aa(lp3589
I9
aa(lp3590
I3
aI4
aI7
aI9
aa(lp3591
I3
aI4
aI7
aI9
aa(lp3592
I2
aI3
aI4
aI6
aI7
aI8
aa(lp3593
I9
aa(lp3594
I4
aa(lp3595
I1
aI4
aI6
aI8
aaI112
a(lp3596
I9
aa(lp3597
I1
aI4
aI6
aI8
aa(lp3598
I9
aa(lp3599
I9
aa(lp3600
I1
aI4
aI6
aI8
aa(lp3601
I9
aa(lp3602
I9
aa(lp3603
I9
aa(lp3604
I9
aa(lp3605
I9
aa(lp3606
I5
aa(lp3607
I4
aa(lp3608
I4
aaa(lp3609
I152
aI78
a(lp3610
I9
aaI152
aI173
a(lp3611
I5
aa(lp3612
I0
aI1
aI2
aI3
aI5
aI6
aI7
aI8
aI9
aaI111
a(lp3613
I2
aI7
aa(lp3614
I2
aI7
aaI95
aI95
aI95
aI149
aI149
aI111
a(lp3615
I5
aaI137
aI78
aI173
a(lp3616
I5
aa(lp3617
I5
aa(lp3618
I5
aaa(lp3619
(lp3620
I9
aaI94
a(lp3621
I5
aa(lp3622
I5
aaI94
aI139
a(lp3623
I2
aI7
aa(lp3624
I5
aa(lp3625
I2
aI7
aa(lp3626
I5
aa(lp3627
I2
aI7
aa(lp3628
I5
aa(lp3629
I5
aa(lp3630
I5
aaI181
a(lp3631
I1
aI4
aI6
aI8
aaI16
a(lp3632
I5
aaI0
a(lp3633
I9
aaI60
aI60
a(lp3634
I5
aa(lp3635
I9
aa(lp3636
I5
aa(lp3637
I9
aa(lp3638
I5
aaI117
a(lp3639
I5
aa(lp3640
I2
aI7
aaI95
aI95
aI13
aI95
a(lp3641
I4
aa(lp3642
I8
aaI95
aI111
aI95
aI95
aI95
aI95
aI95
aI9
a(lp3643
I4
aaI95
aI54
aI95
aI95
aI167
aI95
aI95
aI95
aI33
aI33
aI95
aI95
a(lp3644
I4
aaI95
aI95
aI95
aI95
aI95
aI33
aI94
a(lp3645
I3
aI4
aI7
aI9
aa(lp3646
I9
aaI117
a(lp3647
I9
aa(lp3648
I0
aI1
aI2
aI3
aI5
aI6
aI7
aI8
aI9
aa(lp3649
I0
aI1
aI6
aa(lp3650
I0
aI1
aa(lp3651
I2
aI7
aaI159
a(lp3652
I2
aI7
aa(lp3653
I2
aI7
aa(lp3654
I2
aI7
aa(lp3655
I2
aI7
aaI152
aI181
a(lp3656
I8
aaI13
a(lp3657
I2
aI7
aa(lp3658
I9
aa(lp3659
I3
aI4
aI7
aI9
aaI16
aI16
a(lp3660
I5
aa(lp3661
I9
aa(lp3662
I9
aa(lp3663
I5
aa(lp3664
I9
aa(lp3665
I5
aa(lp3666
I5
aaI117
aI117
a(lp3667
I9
aaI127
aI152
a(lp3668
I9
aa(lp3669
I9
aa(lp3670
I0
aI1
aI2
aI3
aI5
aI6
aI7
aI8
aI9
aaI136
a(lp3671
I0
aI1
aa(lp3672
I3
aI4
aI7
aI9
aaI111
a(lp3673
I4
aaI160
aI170
aI127
aI60
aa(lp3674
(lp3675
I9
aaI122
aI122
aI122
aI122
a(lp3676
I9
aa(lp3677
I2
aI3
aI4
aI6
aI7
aI8
aaI152
aI33
aI61
aI112
aI33
aI112
a(lp3678
I4
aa(lp3679
I9
aaI160
aI160
aI160
a(lp3680
I3
aa(lp3681
I5
aa(lp3682
I5
aa(lp3683
I9
aa(lp3684
I9
aa(lp3685
I5
aa(lp3686
I5
aaI160
aI160
aI160
aI160
a(lp3687
I9
aa(lp3688
I3
aI4
aI7
aI9
aa(lp3689
I4
aa(lp3690
I5
aa(lp3691
I9
aa(lp3692
I5
aa(lp3693
I9
aa(lp3694
I9
aa(lp3695
I5
aaI94
aI6
aI94
aI94
aI28
a(lp3696
I5
aa(lp3697
I3
aa(lp3698
I3
aa(lp3699
I0
aI1
aI2
aI3
aI5
aI6
aI7
aI8
aI9
aaI122
a(lp3700
I5
aa(lp3701
I3
aa(lp3702
I5
aaI112
a(lp3703
I8
aaI112
aI28
a(lp3704
I4
aa(lp3705
I3
aaI160
aI160
aI160
aI28
aI16
a(lp3706
I9
aa(lp3707
I4
aaI15
aI15
aI15
a(lp3708
I4
aa(lp3709
I9
aa(lp3710
I3
aa(lp3711
I9
aaa(lp3712
(lp3713
I9
aa(lp3714
I9
aa(lp3715
I5
aaI160
aI112
a(lp3716
I8
aa(lp3717
I2
aI7
aa(lp3718
I9
aa(lp3719
I2
aI7
aaI60
a(lp3720
I3
aI4
aI7
aI9
aaI18
a(lp3721
I9
aa(lp3722
I4
aa(lp3723
I5
aaI9
a(lp3724
I9
aaI112
aI152
a(lp3725
I5
aa(lp3726
I3
aI4
aI7
aI9
aaI34
aI152
aI34
a(lp3727
I0
aI1
aI2
aI3
aI5
aI6
aI7
aI8
aI9
aa(lp3728
I5
aa(lp3729
I5
aa(lp3730
I5
aa(lp3731
I0
aI1
aI2
aI3
aI5
aI6
aI7
aI8
aI9
aa(lp3732
I9
aa(lp3733
I4
aaI17
aa(lp3734
I69
a(lp3735
I8
aaI153
aI94
a(lp3736
I3
aa(lp3737
I2
aI7
aa(lp3738
I2
aI7
aa(lp3739
I4
aaI149
a(lp3740
I5
aaI60
a(lp3741
I2
aI7
aa(lp3742
I5
aa(lp3743
I9
aa(lp3744
I5
aa(lp3745
I5
aaI136
aI15
a(lp3746
I2
aI7
aa(lp3747
I1
aI4
aI6
aI8
aa(lp3748
I2
aI7
aaI33
aI94
a(lp3749
I0
aI1
aa(lp3750
I0
aI1
aaI52
a(lp3751
I8
aa(lp3752
I8
aaI60
a(lp3753
I2
aI7
aaI15
a(lp3754
I9
aaI122
a(lp3755
I2
aI7
aa(lp3756
I0
aI1
aI2
aI3
aI5
aI6
aI7
aI8
aI9
aaI18
a(lp3757
I1
aI4
aI6
aI8
aaI112
a(lp3758
I0
aI1
aI6
aa(lp3759
I2
aI7
aaI33
a(lp3760
I5
aa(lp3761
I4
aaI121
a(lp3762
I2
aI7
aaa(lp3763
(lp3764
I9
aa(lp3765
I9
aa(lp3766
I9
aa(lp3767
I0
aI1
aI2
aI3
aI5
aI6
aI7
aI8
aI9
aa(lp3768
I3
aI4
aI7
aI9
aaI112
aI112
aI22
a(lp3769
I5
aaI137
aI137
a(lp3770
I9
aa(lp3771
I9
aaI121
a(lp3772
I9
aa(lp3773
I4
aa(lp3774
I4
aa(lp3775
I9
aa(lp3776
I4
aa(lp3777
I4
aa(lp3778
I4
aa(lp3779
I4
aaI108
aI112
a(lp3780
I9
aaI112
aI112
aI54
aI13
a(lp3781
I8
aa(lp3782
I8
aaI101
a(lp3783
I8
aa(lp3784
I9
aa(lp3785
I9
aaI13
aI13
a(lp3786
I9
aa(lp3787
I0
aI1
aI6
aaI114
aI160
aI112
a(lp3788
I9
aa(lp3789
I4
aa(lp3790
I9
aaI153
a(lp3791
I5
aa(lp3792
I9
aa(lp3793
I4
aa(lp3794
I9
aa(lp3795
I4
aaI112
a(lp3796
I9
aa(lp3797
I9
aa(lp3798
I9
aaI67
a(lp3799
I2
aI7
aa(lp3800
I0
aI1
aa(lp3801
I0
aI1
aI6
aaI60
a(lp3802
I4
aa(lp3803
I4
aa(lp3804
I4
aa(lp3805
I4
aaI101
aI34
aI78
aI112
aI160
a(lp3806
I5
aa(lp3807
I1
aI4
aI6
aI8
aaI112
aI34
aa(lp3808
(lp3809
I9
aa(lp3810
I4
aa(lp3811
I4
aaI21
a(lp3812
I5
aa(lp3813
I2
aI7
aa(lp3814
I5
aa(lp3815
I5
aaI122
a(lp3816
I9
aa(lp3817
I8
aa(lp3818
I5
aaI13
aI94
aI170
aI152
aI160
aI152
a(lp3819
I5
aaI170
aI112
aI170
a(lp3820
I2
aI3
aI4
aI6
aI7
aI8
aa(lp3821
I0
aI1
aI2
aI3
aI5
aI6
aI7
aI8
aI9
aaa(lp3822
I142
a(lp3823
I2
aI7
aaI117
aI142
a(lp3824
I2
aI7
aaI60
a(lp3825
I9
aa(lp3826
I2
aI7
aaI36
a(lp3827
I0
aI1
aI2
aI3
aI5
aI6
aI7
aI8
aI9
aa(lp3828
I5
aaI166
aI112
a(lp3829
I5
aaI149
a(lp3830
I9
aa(lp3831
I2
aI7
aa(lp3832
I0
aI1
aI6
aa(lp3833
I5
aa(lp3834
I5
aa(lp3835
I5
aaI112
a(lp3836
I1
aI4
aI6
aI8
aaI112
a(lp3837
I9
aa(lp3838
I9
aa(lp3839
I9
aa(lp3840
I9
aa(lp3841
I5
aaI142
a(lp3842
I9
aa(lp3843
I9
aa(lp3844
I9
aaI142
aI175
aI95
aI95
aI95
aI117
a(lp3845
I5
aa(lp3846
I2
aI7
aaI121
aI62
aI62
aI166
a(lp3847
I2
aI7
aaI33
aI152
a(lp3848
I9
aa(lp3849
I4
aaI121
aI121
a(lp3850
I1
aI4
aI6
aI8
aa(lp3851
I8
aa(lp3852
I4
aa(lp3853
I9
aaI62
a(lp3854
I9
aa(lp3855
I2
aI7
aa(lp3856
I5
aa(lp3857
I5
aa(lp3858
I5
aa(lp3859
I4
aa(lp3860
I4
aa(lp3861
I0
aI1
aI6
aaI112
a(lp3862
I0
aI1
aI6
aaI9
aI112
aI112
a(lp3863
I8
aaI71
aI62
a(lp3864
I2
aI7
aa(lp3865
I9
aaI152
aI60
a(lp3866
I9
aa(lp3867
I2
aI7
aa(lp3868
I5
aaI122
aI122
a(lp3869
I2
aI7
aaI122
a(lp3870
I5
aa(lp3871
I5
aa(lp3872
I9
aa(lp3873
I2
aI7
aa(lp3874
I0
aI1
aaI25
a(lp3875
I4
aa(lp3876
I4
aa(lp3877
I0
aI1
aaI13
a(lp3878
I2
aI7
aaI112
a(lp3879
I0
aI1
aI6
aa(lp3880
I4
aa(lp3881
I4
aa(lp3882
I4
aaI90
aI33
a(lp3883
I4
aa(lp3884
I4
aa(lp3885
I4
aa(lp3886
I4
aa(lp3887
I8
aa(lp3888
I8
aaa(lp3889
(lp3890
I0
aI1
aI2
aI3
aI5
aI6
aI7
aI8
aI9
aa(lp3891
I3
aI4
aI7
aI9
aa(lp3892
I0
aI1
aI2
aI3
aI5
aI6
aI7
aI8
aI9
aaI112
aI30
a(lp3893
I0
aI1
aI6
aaI160
aI160
aI160
aI160
aI129
aI112
a(lp3894
I3
aI4
aI7
aI9
aaI95
aI95
a(lp3895
I0
aI1
aI6
aaI95
a(lp3896
I2
aI7
aaI149
a(lp3897
I3
aI4
aI7
aI9
aa(lp3898
I3
aI4
aI7
aI9
aa(lp3899
I2
aI7
aa(lp3900
I9
aaI86
aI86
aI11
a(lp3901
I9
aaI122
aI111
aI86
a(lp3902
I2
aI7
aaI86
aI149
a(lp3903
I9
aaI17
aI81
aI60
aI114
aI160
aI90
aI160
aI62
aI160
aI90
aI160
aI160
aI160
aI60
a(lp3904
I0
aI1
aI6
aa(lp3905
I5
aa(lp3906
I5
aa(lp3907
I2
aI7
aa(lp3908
I2
aI7
aaI62
a(lp3909
I5
aaI117
aI112
a(lp3910
I5
aa(lp3911
I2
aI7
aa(lp3912
I5
aaI36
aI67
aI25
a(lp3913
I5
aaI149
aI149
a(lp3914
I9
aa(lp3915
I2
aaI149
a(lp3916
I9
aaI149
aI149
aI149
a(lp3917
I5
aaI112
a(lp3918
I5
aaI153
a(lp3919
I2
aI7
aaI67
aI175
aI152
a(lp3920
I8
aaI35
a(lp3921
I8
aaI94
aI152
aI95
aI129
aa(lp3922
I138
aI69
aI149
a(lp3923
I4
aa(lp3924
I4
aa(lp3925
I9
aaI34
a(lp3926
I9
aa(lp3927
I0
aI1
aaI94
a(lp3928
I0
aI1
aa(lp3929
I0
aI1
aI6
aa(lp3930
I0
aI1
aa(lp3931
I5
aaI33
aI152
a(lp3932
I5
aaI46
aI61
aI94
aI46
aI46
a(lp3933
I9
aa(lp3934
I8
aa(lp3935
I9
aa(lp3936
I9
aa(lp3937
I4
aa(lp3938
I4
aa(lp3939
I4
aaI94
aI142
a(lp3940
I8
aaI142
a(lp3941
I8
aa(lp3942
I9
aaI36
aI152
aI152
a(lp3943
I9
aa(lp3944
I0
aI1
aI2
aI3
aI5
aI6
aI7
aI8
aI9
aaI69
aI138
aI111
aI181
aI160
a(lp3945
I0
aI1
aaI94
a(lp3946
I8
aa(lp3947
I8
aa(lp3948
I1
aI4
aI6
aI8
aaI138
a(lp3949
I4
aaI33
a(lp3950
I4
aaI46
aI46
aa(lp3951
I34
aI121
a(lp3952
I2
aI7
aaI170
a(lp3953
I2
aI7
aa(lp3954
I3
aI4
aI7
aI9
aa(lp3955
I3
aI4
aI7
aI9
aaI121
a(lp3956
I0
aI1
aI6
aa(lp3957
I1
aI4
aI6
aI8
aaI121
aI170
a(lp3958
I2
aI3
aI4
aI6
aI7
aI8
aa(lp3959
I9
aaI19
aI19
aI19
a(lp3960
I9
aa(lp3961
I9
aaI170
a(lp3962
I4
aaI60
aI121
a(lp3963
I5
aa(lp3964
I5
aa(lp3965
I2
aI7
aaI161
aI60
aI35
a(lp3966
I0
aI1
aI2
aI3
aI5
aI6
aI7
aI8
aI9
aaI149
a(lp3967
I5
aaI34
a(lp3968
I9
aaa(lp3969
(lp3970
I3
aI4
aI7
aI9
aa(lp3971
I3
aI4
aI7
aI9
aaI138
aI58
a(lp3972
I8
aa(lp3973
I3
aI4
aI7
aI9
aaI152
a(lp3974
I3
aI4
aI7
aI9
aa(lp3975
I4
aaI152
a(lp3976
I0
aI1
aI2
aI3
aI5
aI6
aI7
aI8
aI9
aaI152
aI22
aI152
a(lp3977
I5
aaI121
a(lp3978
I3
aI4
aI7
aI9
aa(lp3979
I3
aI4
aI7
aI9
aaI149
aI112
a(lp3980
I0
aI1
aa(lp3981
I9
aa(lp3982
I9
aa(lp3983
I9
aa(lp3984
I9
aaI142
a(lp3985
I0
aI1
aaI181
aI181
aI142
aI113
a(lp3986
I2
aI7
aa(lp3987
I9
aa(lp3988
I9
aa(lp3989
I3
aI4
aI7
aI9
aa(lp3990
I8
aa(lp3991
I9
aa(lp3992
I3
aI4
aI7
aI9
aa(lp3993
I8
aa(lp3994
I3
aI4
aI7
aI9
aaI159
a(lp3995
I3
aI4
aI7
aI9
aa(lp3996
I0
aI1
aI2
aI3
aI5
aI6
aI7
aI8
aI9
aa(lp3997
I4
aaI143
aI152
aI152
aI152
aI159
a(lp3998
I1
aI4
aI6
aI8
aaI152
a(lp3999
I2
aI7
aa(lp4000
I9
aaI152
aI152
aI113
a(lp4001
I5
aa(lp4002
I3
aI4
aI7
aI9
aa(lp4003
I3
aI4
aI7
aI9
aa(lp4004
I5
aa(lp4005
I3
aI4
aI7
aI9
aa(lp4006
I0
aI1
aI2
aI3
aI5
aI6
aI7
aI8
aI9
aa(lp4007
I2
aI3
aI4
aI6
aI7
aI8
aa(lp4008
I9
aa(lp4009
I9
aa(lp4010
I2
aI3
aI4
aI6
aI7
aI8
aaI159
aI142
aI142
aI152
a(lp4011
I4
aaI18
a(lp4012
I3
aI4
aI7
aI9
aaI160
a(lp4013
I1
aI4
aI6
aI8
aaI153
a(lp4014
I4
aaI160
a(lp4015
I9
aa(lp4016
I9
aaI160
aI21
aI21
aa(lp4017
I16
a(lp4018
I2
aI7
aa(lp4019
I9
aaI121
a(lp4020
I9
aa(lp4021
I9
aa(lp4022
I5
aa(lp4023
I0
aI1
aI2
aI3
aI5
aI6
aI7
aI8
aI9
aa(lp4024
I9
aaI160
a(lp4025
I5
aa(lp4026
I5
aa(lp4027
I9
aaI181
a(lp4028
I5
aa(lp4029
I1
aI4
aI6
aI8
aa(lp4030
I9
aa(lp4031
I9
aa(lp4032
I9
aaI58
a(lp4033
I9
aaa(lp4034
(lp4035
I5
aa(lp4036
I9
aaI112
aI60
aI15
aI142
aI94
a(lp4037
I5
aaI160
aI152
a(lp4038
I5
aa(lp4039
I9
aa(lp4040
I9
aaI33
aI60
a(lp4041
I3
aI4
aI7
aI9
aaI112
a(lp4042
I8
aaI9
aI142
a(lp4043
I5
aa(lp4044
I5
aaI149
aI165
a(lp4045
I8
aa(lp4046
I8
aa(lp4047
I8
aa(lp4048
I5
aaI149
a(lp4049
I8
aaI16
aI142
aI152
aI112
aI15
aI142
aI142
aI142
a(lp4050
I5
aaI142
aI152
a(lp4051
I9
aa(lp4052
I3
aI4
aI7
aI9
aaI111
aI16
aI172
a(lp4053
I8
aa(lp4054
I8
aaI17
aI112
aI78
aI152
a(lp4055
I4
aaI181
a(lp4056
I3
aI4
aI7
aI9
aa(lp4057
I5
aa(lp4058
I9
aa(lp4059
I5
aa(lp4060
I9
aa(lp4061
I5
aa(lp4062
I5
aa(lp4063
I9
aa(lp4064
I0
aI1
aI2
aI3
aI5
aI6
aI7
aI8
aI9
aaI60
a(lp4065
I4
aa(lp4066
I9
aaI152
a(lp4067
I9
aaa(lp4068
I181
a(lp4069
I9
aa(lp4070
I2
aI7
aaI60
a(lp4071
I0
aI1
aI6
aaI117
a(lp4072
I8
aaI121
a(lp4073
I9
aaI60
a(lp4074
I1
aI4
aI6
aI8
aa(lp4075
I0
aI1
aI6
aaI161
aI69
aI33
aI33
aI69
a(lp4076
I4
aa(lp4077
I1
aI4
aI6
aI8
aa(lp4078
I9
aaI16
aI152
a(lp4079
I3
aI4
aI7
aI9
aaI152
a(lp4080
I9
aa(lp4081
I9
aa(lp4082
I9
aa(lp4083
I4
aI9
aa(lp4084
I5
aa(lp4085
I3
aI4
aI7
aI9
aaI139
a(lp4086
I2
aI3
aI4
aI6
aI7
aI8
aa(lp4087
I5
aaI170
aI90
aI121
a(lp4088
I0
aI1
aI2
aI3
aI5
aI6
aI7
aI8
aI9
aaI78
a(lp4089
I3
aI4
aI7
aI9
aa(lp4090
I0
aI1
aI6
aaI152
a(lp4091
I9
aa(lp4092
I9
aaa(lp4093
I160
a(lp4094
I1
aI4
aI6
aI8
aa(lp4095
I4
aaI36
a(lp4096
I8
aaI160
aI36
aI152
a(lp4097
I9
aa(lp4098
I9
aa(lp4099
I9
aaI33
a(lp4100
I9
aaI111
aI7
a(lp4101
I9
aaI90
aI136
aI134
a(lp4102
I4
aa(lp4103
I9
aa(lp4104
I8
aaI122
aI146
aI36
a(lp4105
I9
aa(lp4106
I4
aaI15
a(lp4107
I4
aa(lp4108
I4
aaI61
a(lp4109
I9
aa(lp4110
I9
aa(lp4111
I4
aaI117
a(lp4112
I4
aaI36
aI36
aI33
a(lp4113
I5
aa(lp4114
I1
aI4
aI6
aI8
aa(lp4115
I4
aa(lp4116
I4
aaI160
a(lp4117
I4
aaI112
aI36
a(lp4118
I4
aaI90
a(lp4119
I4
aaI90
a(lp4120
I4
aa(lp4121
I4
aa(lp4122
I4
aa(lp4123
I8
aa(lp4124
I4
aa(lp4125
I9
aa(lp4126
I4
aa(lp4127
I9
aa(lp4128
I4
aa(lp4129
I8
aa(lp4130
I9
aa(lp4131
I0
aI1
aI6
aa(lp4132
I4
aaI33
a(lp4133
I4
aaI33
aI24
a(lp4134
I4
aI9
aa(lp4135
I4
aaI122
aI117
aI0
aI24
a(lp4136
I2
aI7
aaI43
aI161
aI122
a(lp4137
I1
aI4
aI6
aI8
aa(lp4138
I4
aa(lp4139
I3
aI4
aI7
aI9
aa(lp4140
I4
aaI17
a(lp4141
I0
aI1
aI2
aI3
aI5
aI6
aI7
aI8
aI9
aa(lp4142
I3
aI4
aI7
aI9
aaI90
a(lp4143
I9
aa(lp4144
I4
aa(lp4145
I4
aa(lp4146
I1
aI4
aI6
aI8
aaI136
a(lp4147
I9
aaI160
aI36
aI36
aI43
a(lp4148
I4
aaI36
aI43
a(lp4149
I9
aa(lp4150
I8
aa(lp4151
I4
aa(lp4152
I3
aI4
aI7
aI9
aa(lp4153
I4
aaI122
a(lp4154
I4
aa(lp4155
I4
aaa(lp4156
(lp4157
I4
aaI114
a(lp4158
I9
aaI152
aI139
aI114
aI21
aI181
a(lp4159
I8
aa(lp4160
I8
aa(lp4161
I1
aI4
aI6
aI8
aa(lp4162
I4
aaI112
aI112
a(lp4163
I4
aaI152
aI69
aI83
aI36
aI137
aI94
aI36
aI6
aI90
aI36
aI111
aI114
a(lp4164
I9
aa(lp4165
I9
aa(lp4166
I3
aI4
aI7
aI9
aa(lp4167
I3
aI4
aI7
aI9
aaI6
aI111
a(lp4168
I5
aa(lp4169
I4
aa(lp4170
I4
aa(lp4171
I9
aa(lp4172
I9
aa(lp4173
I9
aa(lp4174
I9
aa(lp4175
I9
aa(lp4176
I0
aI1
aI6
aaI160
aI152
a(lp4177
I4
aa(lp4178
I0
aI1
aI6
aaI111
a(lp4179
I9
aa(lp4180
I9
aaI36
a(lp4181
I4
aa(lp4182
I0
aI1
aI2
aI3
aI5
aI6
aI7
aI8
aI9
aaI152
aI62
a(lp4183
I2
aI7
aaI36
aI36
a(lp4184
I0
aI1
aI6
aa(lp4185
I0
aI1
aI2
aI3
aI5
aI6
aI7
aI8
aI9
aaI112
aI17
aI114
a(lp4186
I9
aaI181
aI181
a(lp4187
I3
aI4
aI7
aI9
aa(lp4188
I2
aI7
aa(lp4189
I3
aI4
aI7
aI9
aaI138
aI181
a(lp4190
I0
aI1
aI2
aI3
aI5
aI6
aI7
aI8
aI9
aaI138
a(lp4191
I9
aaI137
a(lp4192
I5
aa(lp4193
I2
aI3
aI4
aI6
aI7
aI8
aa(lp4194
I5
aa(lp4195
I4
aa(lp4196
I2
aI3
aI4
aI6
aI7
aI8
aa(lp4197
I4
aaI36
aI149
aI36
aI149
aI149
aI36
aI36
a(lp4198
I2
aI3
aI4
aI6
aI7
aI8
aaI149
aI149
aI96
aa(lp4199
(lp4200
I0
aI1
aaI117
a(lp4201
I8
aa(lp4202
I0
aI1
aI6
aaI127
a(lp4203
I9
aa(lp4204
I0
aI1
aa(lp4205
I0
aI1
aI2
aI3
aI5
aI6
aI7
aI8
aI9
aa(lp4206
I0
aI1
aa(lp4207
I2
aI7
aa(lp4208
I0
aI1
aa(lp4209
I0
aI1
aaI138
a(lp4210
I8
aa(lp4211
I4
aaI143
aI113
a(lp4212
I8
aaI178
aI138
a(lp4213
I9
aaI152
aa(lp4214
I9
aI60
aI152
a(lp4215
I5
aa(lp4216
I8
aa(lp4217
I8
aa(lp4218
I8
aa(lp4219
I8
aa(lp4220
I8
aaI152
a(lp4221
I2
aI3
aI4
aI6
aI7
aI8
aa(lp4222
I9
aaI139
aI152
a(lp4223
I0
aI1
aI2
aI3
aI5
aI6
aI7
aI8
aI9
aa(lp4224
I9
aa(lp4225
I0
aI1
aI2
aI3
aI5
aI6
aI7
aI8
aI9
aaI139
aI83
aI62
aI152
a(lp4226
I5
aa(lp4227
I5
aa(lp4228
I5
aa(lp4229
I3
aI4
aI7
aI9
aa(lp4230
I3
aI4
aI7
aI9
aa(lp4231
I5
aaI152
aI152
a(lp4232
I0
aI1
aa(lp4233
I5
aa(lp4234
I4
aaI152
aI44
a(lp4235
I5
aaI61
aI124
a(lp4236
I9
aa(lp4237
I9
aa(lp4238
I5
aaI137
a(lp4239
I5
aa(lp4240
I5
aaI149
aI152
a(lp4241
I5
aa(lp4242
I9
aaI149
aI16
a(lp4243
I5
aaI160
a(lp4244
I2
aI7
aaI142
a(lp4245
I8
aa(lp4246
I8
aa(lp4247
I9
aaI152
a(lp4248
I5
aaI62
a(lp4249
I5
aaa(lp4250
(lp4251
I4
aaI134
aI21
aI43
aI152
aI152
aI16
a(lp4252
I9
aa(lp4253
I4
aa(lp4254
I4
aa(lp4255
I0
aI1
aI2
aI3
aI5
aI6
aI7
aI8
aI9
aa(lp4256
I8
aa(lp4257
I0
aI1
aa(lp4258
I0
aI1
aaI112
aI69
a(lp4259
I1
aI4
aI6
aI8
aa(lp4260
I4
aaI6
aI61
aI121
a(lp4261
I9
aa(lp4262
I9
aa(lp4263
I9
aaI152
a(lp4264
I4
aa(lp4265
I0
aI1
aaI112
aI6
aI152
aI181
a(lp4266
I4
aaI181
a(lp4267
I4
aaI2
a(lp4268
I4
aa(lp4269
I4
aa(lp4270
I5
aaI117
aI44
a(lp4271
I4
aa(lp4272
I2
aI3
aI4
aI6
aI7
aI8
aaI18
aI112
aI44
a(lp4273
I8
aa(lp4274
I4
aaI181
a(lp4275
I4
aaI33
aI112
aI7
aI94
aI152
aa(lp4276
(lp4277
I9
aa(lp4278
I0
aI1
aI2
aI3
aI5
aI6
aI7
aI8
aI9
aa(lp4279
I2
aI7
aaI97
aI16
aI143
a(lp4280
I3
aI4
aI7
aI9
aa(lp4281
I3
aI4
aI7
aI9
aa(lp4282
I2
aI7
aaI137
aI137
aI122
aI41
aI117
aI152
aI152
a(lp4283
I4
aaI149
aI152
a(lp4284
I5
aa(lp4285
I5
aaI149
aI149
aI152
aI112
aI112
a(lp4286
I2
aI7
aa(lp4287
I3
aI4
aI7
aI9
aaI152
a(lp4288
I9
aaI16
aI112
aI62
aI62
aI134
a(lp4289
I4
aa(lp4290
I4
aaI152
a(lp4291
I3
aI4
aI7
aI9
aa(lp4292
I9
aa(lp4293
I5
aaI160
a(lp4294
I3
aI4
aI7
aI9
aa(lp4295
I5
aaI173
aI97
aI97
aI97
aI97
aI152
aI16
aI97
aI143
aI152
a(lp4296
I9
aa(lp4297
I9
aa(lp4298
I9
aaI152
aI94
aI97
aI143
aI16
a(lp4299
I5
aaI25
a(lp4300
I3
aI4
aI7
aI9
aa(lp4301
I4
aaI165
a(lp4302
I0
aI1
aaI60
a(lp4303
I0
aI1
aaI173
aI173
a(lp4304
I4
aaI94
aI94
aI17
aa(lp4305
(lp4306
I8
aa(lp4307
I2
aI3
aI4
aI6
aI7
aI8
aa(lp4308
I8
aaI142
a(lp4309
I0
aI1
aaI121
a(lp4310
I0
aI1
aa(lp4311
I2
aI3
aI4
aI6
aI7
aI8
aa(lp4312
I3
aI4
aI7
aI9
aa(lp4313
I3
aI4
aI7
aI9
aaI181
a(lp4314
I3
aI4
aI7
aI9
aa(lp4315
I2
aI7
aa(lp4316
I3
aI4
aI7
aI9
aaI117
a(lp4317
I1
aI4
aI6
aI8
aa(lp4318
I0
aI1
aI2
aI3
aI5
aI6
aI7
aI8
aI9
aaI170
a(lp4319
I0
aI1
aI2
aI3
aI5
aI6
aI7
aI8
aI9
aa(lp4320
I0
aI1
aI2
aI3
aI5
aI6
aI7
aI8
aI9
aa(lp4321
I8
aa(lp4322
I2
aI3
aI4
aI6
aI7
aI8
aa(lp4323
I8
aa(lp4324
I1
aI4
aI6
aI8
aa(lp4325
I8
aa(lp4326
I8
aaa(lp4327
I139
a(lp4328
I0
aI1
aI2
aI3
aI5
aI6
aI7
aI8
aI9
aaI139
aI162
a(lp4329
I2
aI7
aaI111
aI122
a(lp4330
I9
aa(lp4331
I9
aa(lp4332
I9
aaI60
a(lp4333
I0
aI1
aI2
aI3
aI5
aI6
aI7
aI8
aI9
aa(lp4334
I9
aa(lp4335
I9
aa(lp4336
I5
aa(lp4337
I9
aa(lp4338
I9
aa(lp4339
I5
aaI7
aI152
a(lp4340
I9
aaI138
aI60
a(lp4341
I9
aaI160
a(lp4342
I5
aa(lp4343
I3
aI4
aI7
aI9
aa(lp4344
I9
aaI160
a(lp4345
I9
aa(lp4346
I5
aaa(lp4347
(lp4348
I8
aa(lp4349
I4
aaI113
a(lp4350
I4
aa(lp4351
I2
aI3
aI4
aI6
aI7
aI8
aaI111
aI152
a(lp4352
I8
aa(lp4353
I8
aaI112
a(lp4354
I9
aa(lp4355
I4
aa(lp4356
I0
aI1
aaI111
a(lp4357
I4
aaI86
a(lp4358
I0
aI1
aaI113
aI94
a(lp4359
I4
aa(lp4360
I4
aaI16
a(lp4361
I0
aI1
aaI46
a(lp4362
I1
aI4
aI6
aI8
aa(lp4363
I0
aI1
aI2
aI3
aI5
aI6
aI7
aI8
aI9
aa(lp4364
I9
aaI112
aI61
a(lp4365
I0
aI1
aa(lp4366
I8
aa(lp4367
I0
aI1
aaI17
aI160
a(lp4368
I9
aa(lp4369
I9
aa(lp4370
I9
aa(lp4371
I0
aI1
aa(lp4372
I0
aI1
aaa(lp4373
I17
a(lp4374
I1
aI4
aI6
aI8
aa(lp4375
I5
aaI152
aI138
aI149
a(lp4376
I0
aI1
aI2
aI3
aI5
aI6
aI7
aI8
aI9
aa(lp4377
I3
aI4
aI7
aI9
aa(lp4378
I3
aI4
aI7
aI9
aa(lp4379
I3
aI4
aI7
aI9
aaI163
aI137
a(lp4380
I9
aa(lp4381
I9
aa(lp4382
I9
aaI26
aI160
aI112
aI149
aI181
aI90
aI149
aI33
aI161
aI161
aI19
aI152
aI160
aI152
aI160
aI160
a(lp4383
I9
aa(lp4384
I9
aa(lp4385
I9
aa(lp4386
I9
aa(lp4387
I9
aaI34
aI159
a(lp4388
I9
aa(lp4389
I9
aa(lp4390
I9
aaI7
a(lp4391
I5
aaI152
aI33
a(lp4392
I9
aaI149
a(lp4393
I9
aaI149
aI7
aI159
aI149
a(lp4394
I2
aI3
aI4
aI6
aI7
aI8
aa(lp4395
I9
aaI71
a(lp4396
I9
aaI71
aI36
aI152
a(lp4397
I9
aa(lp4398
I9
aaI25
aI19
a(lp4399
I9
aa(lp4400
I9
aa(lp4401
I9
aa(lp4402
I9
aaI19
a(lp4403
I9
aaI19
aI159
a(lp4404
I8
aa(lp4405
I8
aa(lp4406
I8
aaa(lp4407
(lp4408
I3
aI4
aI7
aI9
aa(lp4409
I5
aa(lp4410
I3
aI4
aI7
aI9
aa(lp4411
I5
aa(lp4412
I5
aaI149
aI18
aI6
aI76
a(lp4413
I0
aI1
aI2
aI3
aI5
aI6
aI7
aI8
aI9
aaI153
a(lp4414
I9
aa(lp4415
I5
aaI33
a(lp4416
I2
aI3
aI4
aI6
aI7
aI8
aaI25
aI161
aI69
aI121
aI161
a(lp4417
I9
aaI69
a(lp4418
I5
aaI143
a(lp4419
I5
aa(lp4420
I3
aI4
aI7
aI9
aa(lp4421
I3
aI4
aI7
aI9
aa(lp4422
I5
aaI149
aI149
aI143
aI149
aI69
aI69
a(lp4423
I8
aaI18
a(lp4424
I5
aaI121
a(lp4425
I9
aa(lp4426
I5
aa(lp4427
I8
aaI161
aI69
aI69
a(lp4428
I8
aaa(lp4429
(lp4430
I8
aa(lp4431
I8
aa(lp4432
I5
aaI21
a(lp4433
I8
aa(lp4434
I1
aI4
aI6
aI8
aa(lp4435
I5
aa(lp4436
I5
aa(lp4437
I0
aI1
aI2
aI3
aI5
aI6
aI7
aI8
aI9
aa(lp4438
I4
aa(lp4439
I5
aa(lp4440
I2
aI3
aI4
aI6
aI7
aI8
aaI170
a(lp4441
I2
aI7
aaI71
a(lp4442
I3
aI4
aI7
aI9
aa(lp4443
I3
aI4
aI7
aI9
aaa(lp4444
I15
aI25
aI7
aI15
a(lp4445
I9
aaI139
aI61
a(lp4446
I9
aaI61
aI19
aI19
aI161
aI19
aI19
aI33
a(lp4447
I9
aa(lp4448
I4
aI9
aa(lp4449
I0
aI1
aI2
aI3
aI5
aI6
aI7
aI8
aI9
aa(lp4450
I4
aI9
aa(lp4451
I3
aI4
aI7
aI9
aa(lp4452
I0
aI1
aI6
aa(lp4453
I0
aI1
aaI117
a(lp4454
I2
aI3
aI4
aI6
aI7
aI8
aa(lp4455
I3
aI4
aI7
aI9
aaa(lp4456
(lp4457
I3
aI4
aI7
aI9
aa(lp4458
I3
aI4
aI7
aI9
aa(lp4459
I0
aI1
aa(lp4460
I0
aI1
aI6
aa(lp4461
I0
aI1
aI6
aa(lp4462
I0
aI1
aI6
aa(lp4463
I9
aa(lp4464
I9
aaI69
a(lp4465
I0
aI1
aI6
aa(lp4466
I8
aa(lp4467
I9
aa(lp4468
I0
aI1
aI6
aa(lp4469
I0
aI1
aI2
aI3
aI5
aI6
aI7
aI8
aI9
aaI113
a(lp4470
I5
aa(lp4471
I9
aa(lp4472
I5
aa(lp4473
I5
aa(lp4474
I0
aI1
aI6
aa(lp4475
I5
aaI62
a(lp4476
I5
aa(lp4477
I2
aI7
aa(lp4478
I2
aI7
aa(lp4479
I9
aa(lp4480
I9
aa(lp4481
I9
aa(lp4482
I9
aa(lp4483
I0
aI1
aa(lp4484
I9
aa(lp4485
I5
aaI62
a(lp4486
I9
aa(lp4487
I9
aa(lp4488
I9
aa(lp4489
I0
aI1
aa(lp4490
I9
aaI62
a(lp4491
I3
aI4
aI7
aI9
aaI175
a(lp4492
I2
aI7
aaI17
aI175
a(lp4493
I2
aI7
aa(lp4494
I0
aI1
aI6
aaI159
aI160
a(lp4495
I0
aI1
aI6
aa(lp4496
I9
aa(lp4497
I9
aa(lp4498
I9
aa(lp4499
I9
aaI13
aI13
a(lp4500
I0
aI1
aaI171
a(lp4501
I0
aI1
aa(lp4502
I0
aI1
aa(lp4503
I5
aa(lp4504
I5
aa(lp4505
I9
aaI62
aI62
aI62
a(lp4506
I9
aa(lp4507
I9
aa(lp4508
I9
aa(lp4509
I9
aa(lp4510
I9
aa(lp4511
I9
aa(lp4512
I9
aa(lp4513
I9
aa(lp4514
I9
aa(lp4515
I9
aaI62
a(lp4516
I0
aI1
aaI138
aI138
aI138
aI138
aI138
a(lp4517
I9
aa(lp4518
I9
aa(lp4519
I0
aI1
aa(lp4520
I0
aI1
aa(lp4521
I9
aa(lp4522
I9
aa(lp4523
I9
aaa(lp4524
(lp4525
I0
aI1
aI6
aa(lp4526
I0
aI1
aa(lp4527
I0
aI1
aaI121
aI53
a(lp4528
I8
aaI60
a(lp4529
I9
aa(lp4530
I8
aaI159
a(lp4531
I8
aaI60
aI2
a(lp4532
I8
aa(lp4533
I9
aaI181
aI152
aI138
a(lp4534
I0
aI1
aa(lp4535
I8
aa(lp4536
I0
aI1
aa(lp4537
I8
aa(lp4538
I8
aa(lp4539
I0
aI1
aaI60
aI94
aI60
aI152
a(lp4540
I9
aaI60
aI60
a(lp4541
I8
aaI60
aI152
a(lp4542
I9
aa(lp4543
I0
aI1
aI2
aI3
aI5
aI6
aI7
aI8
aI9
aaI60
aI181
aa(lp4544
(lp4545
I3
aI4
aI7
aI9
aaI121
aI95
aI95
aI95
a(lp4546
I0
aI1
aaI142
a(lp4547
I3
aI4
aI7
aI9
aaI95
aI95
aI95
aI170
a(lp4548
I5
aa(lp4549
I9
aa(lp4550
I5
aaI152
a(lp4551
I5
aa(lp4552
I2
aI7
aa(lp4553
I2
aI7
aaI122
a(lp4554
I2
aI7
aaI122
a(lp4555
I3
aI4
aI7
aI9
aa(lp4556
I5
aa(lp4557
I5
aa(lp4558
I9
aaI112
a(lp4559
I0
aI1
aI6
aaI61
aI86
aI95
a(lp4560
I2
aI7
aaI181
aI181
aI181
aI122
a(lp4561
I5
aaI96
aI111
aI111
aI111
aI143
aI143
a(lp4562
I2
aI7
aaI62
a(lp4563
I2
aI7
aaI33
aI53
aI149
aI170
a(lp4564
I9
aa(lp4565
I2
aI7
aaI17
a(lp4566
I5
aa(lp4567
I5
aaI122
a(lp4568
I5
aa(lp4569
I8
aa(lp4570
I0
aI1
aI2
aI3
aI5
aI6
aI7
aI8
aI9
aa(lp4571
I8
aaI117
a(lp4572
I0
aI1
aI6
aa(lp4573
I2
aI7
aa(lp4574
I3
aI4
aI7
aI9
aa(lp4575
I2
aI7
aa(lp4576
I9
aa(lp4577
I8
aa(lp4578
I9
aa(lp4579
I8
aa(lp4580
I2
aI7
aa(lp4581
I9
aa(lp4582
I2
aI7
aa(lp4583
I2
aI7
aa(lp4584
I9
aaa(lp4585
(lp4586
I9
aaI181
a(lp4587
I4
aaI160
aI152
aI17
aI160
aI152
aI138
a(lp4588
I5
aaI152
aI33
aI160
aI122
aI69
a(lp4589
I0
aI1
aI2
aI3
aI5
aI6
aI7
aI8
aI9
aa(lp4590
I9
aaI152
a(lp4591
I9
aaI149
aI152
aI9
aI152
a(lp4592
I4
aaI152
aI95
aI95
aI152
a(lp4593
I3
aI4
aI7
aI9
aa(lp4594
I8
aa(lp4595
I8
aa(lp4596
I9
aaI152
a(lp4597
I9
aa(lp4598
I9
aa(lp4599
I9
aa(lp4600
I9
aa(lp4601
I9
aa(lp4602
I9
aa(lp4603
I9
aaI159
a(lp4604
I9
aaI160
a(lp4605
I9
aa(lp4606
I9
aaI112
a(lp4607
I9
aa(lp4608
I9
aa(lp4609
I9
aa(lp4610
I9
aa(lp4611
I2
aI7
aa(lp4612
I9
aa(lp4613
I9
aa(lp4614
I9
aaI97
a(lp4615
I3
aI4
aI7
aI9
aaI108
aI111
a(lp4616
I2
aI7
aa(lp4617
I0
aI1
aI2
aI3
aI5
aI6
aI7
aI8
aI9
aaI60
aI112
a(lp4618
I0
aI1
aaI138
aI170
a(lp4619
I3
aI4
aI7
aI9
aa(lp4620
I3
aI4
aI7
aI9
aaI49
a(lp4621
I2
aI3
aI4
aI6
aI7
aI8
aaI152
a(lp4622
I0
aI1
aI2
aI3
aI5
aI6
aI7
aI8
aI9
aaI152
a(lp4623
I4
aaI152
a(lp4624
I4
aa(lp4625
I0
aI1
aI6
aa(lp4626
I9
aaI121
a(lp4627
I9
aaI121
a(lp4628
I1
aI4
aI6
aI8
aa(lp4629
I9
aaa(lp4630
(lp4631
I9
aaI112
a(lp4632
I3
aaI33
aI43
aI33
aI33
aI112
a(lp4633
I9
aaI117
a(lp4634
I2
aI7
aaI153
a(lp4635
I5
aa(lp4636
I2
aaI96
aI96
a(lp4637
I0
aI1
aI2
aI3
aI5
aI6
aI7
aI8
aI9
aa(lp4638
I5
aaI73
aI117
aI117
a(lp4639
I9
aa(lp4640
I9
aaI160
aI136
aI160
a(lp4641
I2
aa(lp4642
I9
aa(lp4643
I5
aaI160
a(lp4644
I9
aa(lp4645
I3
aa(lp4646
I2
aI7
aa(lp4647
I2
aI7
aa(lp4648
I9
aa(lp4649
I3
aaa(lp4650
I61
aI61
aI61
aI90
aI170
a(lp4651
I2
aI3
aI4
aI6
aI7
aI8
aa(lp4652
I0
aI1
aI2
aI3
aI5
aI6
aI7
aI8
aI9
aaI170
a(lp4653
I4
aaI111
a(lp4654
I3
aI4
aI7
aI9
aa(lp4655
I4
aa(lp4656
I0
aI1
aI2
aI3
aI5
aI6
aI7
aI8
aI9
aa(lp4657
I9
aaI17
a(lp4658
I5
aaI152
aI90
a(lp4659
I8
aa(lp4660
I8
aa(lp4661
I8
aaI160
a(lp4662
I4
aa(lp4663
I5
aa(lp4664
I5
aa(lp4665
I9
aaI61
a(lp4666
I0
aI1
aI2
aI3
aI5
aI6
aI7
aI8
aI9
aaI61
aI94
aI61
aI61
a(lp4667
I8
aa(lp4668
I1
aI4
aI6
aI8
aaI152
a(lp4669
I8
aaa(lp4670
I121
a(lp4671
I1
aI4
aI6
aI8
aaI139
a(lp4672
I4
aI9
aa(lp4673
I5
aa(lp4674
I5
aaI121
aI121
a(lp4675
I0
aI1
aI2
aI3
aI5
aI6
aI7
aI8
aI9
aaI139
a(lp4676
I3
aI4
aI7
aI9
aa(lp4677
I9
aaI117
aI170
a(lp4678
I9
aaI71
a(lp4679
I3
aI4
aI7
aI9
aa(lp4680
I3
aI4
aI7
aI9
aaI9
a(lp4681
I9
aaI139
aI121
a(lp4682
I3
aI4
aI7
aI9
aa(lp4683
I9
aaI163
a(lp4684
I5
aaa(lp4685
I62
aI60
a(lp4686
I9
aaI112
aI152
aI142
a(lp4687
I5
aaI76
aI181
a(lp4688
I0
aI1
aI2
aI3
aI5
aI6
aI7
aI8
aI9
aaI26
a(lp4689
I0
aI1
aI6
aaI181
a(lp4690
I9
aa(lp4691
I0
aI1
aI6
aaI111
aI61
aI61
aI61
aI165
a(lp4692
I1
aI4
aI6
aI8
aaI76
a(lp4693
I5
aa(lp4694
I5
aa(lp4695
I0
aI1
aI6
aa(lp4696
I0
aI1
aI6
aa(lp4697
I0
aI1
aa(lp4698
I5
aa(lp4699
I9
aaI160
a(lp4700
I9
aa(lp4701
I0
aI1
aI6
aa(lp4702
I5
aa(lp4703
I9
aaI181
a(lp4704
I0
aI1
aI6
aa(lp4705
I9
aa(lp4706
I2
aI7
aa(lp4707
I2
aI7
aa(lp4708
I9
aa(lp4709
I9
aa(lp4710
I9
aa(lp4711
I9
aaa(lp4712
(lp4713
I5
aa(lp4714
I5
aa(lp4715
I5
aa(lp4716
I3
aI4
aI7
aI9
aa(lp4717
I5
aaI16
aI152
aI113
a(lp4718
I9
aa(lp4719
I9
aa(lp4720
I9
aaI159
aI152
a(lp4721
I0
aI1
aa(lp4722
I9
aa(lp4723
I2
aI7
aaI60
aI101
aI97
aI97
aI97
aI60
aI60
aI62
aI97
aI97
aI97
aI16
a(lp4724
I2
aI7
aaI161
a(lp4725
I3
aI4
aI7
aI9
aa(lp4726
I9
aaI181
aI101
aI16
aI152
a(lp4727
I9
aaI152
a(lp4728
I9
aaI176
aI60
aI159
aI117
a(lp4729
I2
aI7
aa(lp4730
I2
aI7
aaI117
a(lp4731
I0
aI1
aaI62
a(lp4732
I2
aI7
aa(lp4733
I9
aa(lp4734
I9
aaI16
a(lp4735
I2
aI7
aa(lp4736
I4
aaI6
a(lp4737
I5
aaI170
aI95
aI95
a(lp4738
I0
aI1
aI6
aaI60
aI152
aI21
aI160
a(lp4739
I0
aI1
aI2
aI3
aI5
aI6
aI7
aI8
aI9
aaI60
aI138
aI111
a(lp4740
I9
aa(lp4741
I9
aa(lp4742
I9
aa(lp4743
I2
aa(lp4744
I9
aa(lp4745
I9
aaI86
a(lp4746
I2
aa(lp4747
I2
aaI95
a(lp4748
I2
aa(lp4749
I9
aaI16
a(lp4750
I9
aaI101
aI24
aI152
aI139
aI152
a(lp4751
I9
aaI127
aI127
aI152
a(lp4752
I2
aaI160
aI137
a(lp4753
I9
aa(lp4754
I5
aaa(lp4755
I152
aI111
aI112
aI61
aI33
a(lp4756
I9
aa(lp4757
I9
aa(lp4758
I2
aI7
aaI62
aI15
a(lp4759
I9
aaI61
a(lp4760
I2
aI7
aaI122
a(lp4761
I9
aaI122
a(lp4762
I9
aaI122
aI122
a(lp4763
I1
aI4
aI6
aI8
aaI33
aI33
a(lp4764
I9
aa(lp4765
I0
aI1
aI2
aI3
aI5
aI6
aI7
aI8
aI9
aa(lp4766
I0
aI1
aI2
aI3
aI5
aI6
aI7
aI8
aI9
aa(lp4767
I8
aa(lp4768
I5
aaI9
a(lp4769
I8
aaI170
aI94
a(lp4770
I2
aI7
aa(lp4771
I4
aaI33
aI33
aI15
a(lp4772
I4
aaI2
aI160
a(lp4773
I4
aa(lp4774
I9
aa(lp4775
I2
aI7
aa(lp4776
I9
aaI112
aI94
a(lp4777
I4
aa(lp4778
I9
aa(lp4779
I2
aI3
aI4
aI6
aI7
aI8
aaI94
aI9
a(lp4780
I3
aI4
aI7
aI9
aa(lp4781
I8
aaI166
a(lp4782
I8
aa(lp4783
I4
aa(lp4784
I4
aaI101
aI152
aI17
a(lp4785
I4
aa(lp4786
I8
aaI149
a(lp4787
I9
aa(lp4788
I9
aa(lp4789
I9
aa(lp4790
I2
aI7
aa(lp4791
I9
aa(lp4792
I4
aa(lp4793
I9
aaI36
aI44
a(lp4794
I9
aa(lp4795
I8
aaI112
a(lp4796
I9
aa(lp4797
I3
aI4
aI7
aI9
aa(lp4798
I9
aa(lp4799
I2
aI7
aaI109
a(lp4800
I9
aa(lp4801
I5
aa(lp4802
I3
aI4
aI7
aI9
aa(lp4803
I4
aaI15
a(lp4804
I9
aaI112
a(lp4805
I5
aaa(lp4806
(lp4807
I1
aI4
aI6
aI8
aa(lp4808
I0
aI1
aI2
aI3
aI5
aI6
aI7
aI8
aI9
aa(lp4809
I8
aa(lp4810
I8
aaI71
aI71
a(lp4811
I0
aI1
aaI152
aI152
aI71
aI112
aI69
aI69
aI69
a(lp4812
I9
aaI121
aI94
aI69
aI115
a(lp4813
I4
aa(lp4814
I3
aI4
aI7
aI9
aa(lp4815
I8
aa(lp4816
I8
aa(lp4817
I1
aI4
aI6
aI8
aaI19
a(lp4818
I9
aa(lp4819
I9
aa(lp4820
I0
aI1
aaI149
a(lp4821
I0
aI1
aaI71
a(lp4822
I9
aaI19
a(lp4823
I0
aI1
aaI152
a(lp4824
I8
aaI115
aI160
a(lp4825
I4
aI9
aa(lp4826
I8
aaI149
aI71
aI152
aI117
aI112
aI115
aI112
aI95
aI95
aI95
aI19
a(lp4827
I8
aaI95
aI142
a(lp4828
I9
aaI19
aI142
aI19
a(lp4829
I1
aI4
aI6
aI8
aa(lp4830
I9
aaI36
a(lp4831
I0
aI1
aaI149
aI36
a(lp4832
I4
aa(lp4833
I0
aI1
aa(lp4834
I8
aaI69
aI117
aI69
aI96
a(lp4835
I1
aI4
aI6
aI8
aa(lp4836
I9
aa(lp4837
I8
aa(lp4838
I8
aaI71
a(lp4839
I8
aaI69
a(lp4840
I0
aI1
aI6
aa(lp4841
I0
aI1
aI6
aa(lp4842
I0
aI1
aI6
aa(lp4843
I0
aI1
aI6
aaI149
aI71
aI22
aI122
aI113
a(lp4844
I2
aI7
aaI152
a(lp4845
I1
aI4
aI6
aI8
aa(lp4846
I8
aa(lp4847
I8
aa(lp4848
I1
aI4
aI6
aI8
aa(lp4849
I8
aa(lp4850
I8
aaI149
a(lp4851
I5
aa(lp4852
I9
aa(lp4853
I9
aaI122
aI117
a(lp4854
I0
aI1
aa(lp4855
I1
aI4
aI6
aI8
aaI26
aa(lp4856
I115
a(lp4857
I5
aaI149
aI149
aI124
aI124
aI133
aI142
a(lp4858
I0
aI1
aaI142
aI125
aI97
aI97
aI97
aI51
aI97
aI149
a(lp4859
I4
aa(lp4860
I4
aa(lp4861
I4
aaI69
aI160
aI33
a(lp4862
I9
aaI69
aI71
a(lp4863
I9
aa(lp4864
I1
aI4
aI6
aI8
aa(lp4865
I1
aI4
aI6
aI8
aa(lp4866
I8
aaI90
aI44
a(lp4867
I9
aaI160
aI160
aI160
a(lp4868
I4
aa(lp4869
I4
aaI152
aI7
a(lp4870
I3
aI4
aI7
aI9
aa(lp4871
I3
aI4
aI7
aI9
aaI149
aI152
a(lp4872
I4
aaI60
a(lp4873
I4
aaI152
aI152
a(lp4874
I4
aaI142
a(lp4875
I5
aaI117
aI7
a(lp4876
I0
aI1
aI2
aI3
aI5
aI6
aI7
aI8
aI9
aaI152
aI152
aI61
a(lp4877
I5
aa(lp4878
I5
aaI152
a(lp4879
I9
aa(lp4880
I9
aa(lp4881
I9
aaa.