(lp0
(lp1
I160
aI160
aI70
aI139
aI70
aI152
aI160
aI152
aI182
aI122
a(lp2
I3
aa(lp3
I3
aa(lp4
I3
aaI41
aI62
a(lp5
I3
aaI122
aI122
aI122
aI122
aI122
aI122
aI122
aI122
a(lp6
I4
aaI122
aI70
a(lp7
I3
aaI152
a(lp8
I3
aaI112
a(lp9
I3
aaI160
aI160
aI160
aI160
a(lp10
I3
aaI64
a(lp11
I3
aa(lp12
I4
aa(lp13
I0
aI1
aI2
aI3
aI4
aI5
aI6
aI7
aa(lp14
I3
aa(lp15
I0
aI1
aI5
aaI149
aI9
aI70
aI160
aI160
aI160
aI160
a(lp16
I4
aaI122
aI122
a(lp17
I0
aI1
aaI160
aI181
aI9
aa(lp18
(lp19
I4
aa(lp20
I3
aa(lp21
I4
aa(lp22
I4
aa(lp23
I4
aaI94
a(lp24
I4
aa(lp25
I3
aaI152
aI101
aI101
aI160
a(lp26
I3
aa(lp27
I3
aI7
aaI152
aI121
aI95
a(lp28
I0
aI1
aa(lp29
I4
aaI170
aI152
a(lp30
I0
aI1
aI2
aI3
aI4
aI5
aI6
aI7
aaI112
aI167
a(lp31
I3
aaI18
aI170
aI112
aI33
aI33
aI152
aI181
aI111
aI70
aI152
aI70
aI152
aI70
aI152
aI121
a(lp32
I6
aa(lp33
I6
aa(lp34
I6
aa(lp35
I6
aaa(lp36
I61
aI94
a(lp37
I3
aaI17
a(lp38
I4
aaI61
aI16
a(lp39
I4
aaI122
a(lp40
I3
aaI152
a(lp41
I0
aI1
aI2
aI3
aI4
aI5
aI6
aI7
aa(lp42
I0
aI1
aa(lp43
I0
aI1
aaI70
a(lp44
I0
aI1
aa(lp45
I4
aa(lp46
I4
aa(lp47
I3
aaI61
a(lp48
I3
aI7
aaI61
a(lp49
I3
aa(lp50
I3
aaI152
a(lp51
I4
aaI152
aI152
a(lp52
I3
aaI112
aa(lp53
I70
a(lp54
I3
aa(lp55
I2
aaI112
aI122
aI182
aI112
aI112
aI160
a(lp56
I6
aa(lp57
I3
aI7
aaI60
aI33
a(lp58
I3
aa(lp59
I3
aI7
aaI60
a(lp60
I3
aa(lp61
I3
aI7
aa(lp62
I7
aa(lp63
I3
aaI112
aI160
aI62
a(lp64
I3
aa(lp65
I0
aI1
aaI181
a(lp66
I3
aaI94
a(lp67
I2
aa(lp68
I3
aa(lp69
I3
aa(lp70
I3
aa(lp71
I3
aaI152
aI112
a(lp72
I2
aaI112
aI62
aI62
a(lp73
I4
aaI62
a(lp74
I3
aaI19
aI19
aI19
aI13
a(lp75
I4
aa(lp76
I2
aa(lp77
I4
aa(lp78
I3
aa(lp79
I4
aa(lp80
I3
aaI64
aI62
aI64
aI62
a(lp81
I3
aa(lp82
I7
aaI62
a(lp83
I3
aaI160
a(lp84
I2
aa(lp85
I3
aa(lp86
I6
aa(lp87
I4
aaI62
a(lp88
I3
aI7
aa(lp89
I2
aa(lp90
I2
aa(lp91
I3
aa(lp92
I3
aa(lp93
I3
aaI18
a(lp94
I3
aa(lp95
I4
aaI152
a(lp96
I2
aa(lp97
I3
aa(lp98
I3
aa(lp99
I2
aa(lp100
I2
aa(lp101
I4
aa(lp102
I4
aaI62
a(lp103
I4
aaI62
a(lp104
I0
aI1
aI2
aI3
aI4
aI5
aI6
aI7
aa(lp105
I4
aaI153
a(lp106
I3
aa(lp107
I3
aaI13
aI112
aI122
aI62
aI132
aI62
a(lp108
I3
aaI15
aI152
a(lp109
I2
aa(lp110
I2
aI5
aI6
aI7
aa(lp111
I2
aa(lp112
I3
aaa(lp113
I16
aI7
aI152
a(lp114
I7
aaI101
a(lp115
I3
aI7
aa(lp116
I3
aa(lp117
I0
aI1
aaI16
a(lp118
I2
aa(lp119
I2
aa(lp120
I3
aa(lp121
I3
aaI60
a(lp122
I0
aI1
aaI16
aI170
a(lp123
I3
aa(lp124
I0
aI1
aI5
aa(lp125
I0
aI1
aI5
aaI152
a(lp126
I4
aa(lp127
I4
aaI16
a(lp128
I3
aa(lp129
I0
aI1
aI2
aI3
aI4
aI5
aI6
aI7
aa(lp130
I6
aaI161
aI122
aI112
aI112
aI16
a(lp131
I2
aa(lp132
I2
aa(lp133
I3
aaI16
aI70
a(lp134
I3
aa(lp135
I3
aa(lp136
I4
aa(lp137
I3
aa(lp138
I3
aaI70
a(lp139
I3
aa(lp140
I4
aa(lp141
I4
aaI152
a(lp142
I3
aI7
aa(lp143
I4
aa(lp144
I4
aa(lp145
I0
aI1
aa(lp146
I2
aI5
aI6
aI7
aa(lp147
I3
aI7
aa(lp148
I3
aI7
aa(lp149
I2
aI5
aI6
aI7
aa(lp150
I3
aaa(lp151
I64
aI121
aI121
a(lp152
I3
aa(lp153
I3
aI7
aa(lp154
I2
aI5
aI6
aI7
aaI97
a(lp155
I4
aaI117
a(lp156
I3
aaI182
a(lp157
I3
aaI61
aI182
a(lp158
I3
aa(lp159
I2
aa(lp160
I6
aa(lp161
I0
aI1
aa(lp162
I0
aI1
aa(lp163
I0
aI1
aa(lp164
I6
aaI111
a(lp165
I0
aI1
aI2
aI3
aI4
aI5
aI6
aI7
aa(lp166
I0
aI1
aI5
aaI64
aI160
aI160
aI160
a(lp167
I6
aaI138
a(lp168
I0
aI1
aI2
aI3
aI4
aI5
aI6
aI7
aaI152
aI36
aI34
a(lp169
I0
aI1
aaI34
aI112
aI112
aI70
a(lp170
I6
aa(lp171
I6
aaI142
aI182
aI112
aI34
aI138
aI70
aI36
aI34
a(lp172
I1
aI5
aI6
aaI70
a(lp173
I3
aaI96
aI182
aa(lp174
I60
a(lp175
I4
aaI160
aI112
a(lp176
I0
aI1
aI2
aI3
aI4
aI5
aI6
aI7
aaI16
aI112
aI16
a(lp177
I3
aa(lp178
I3
aa(lp179
I3
aa(lp180
I4
aa(lp181
I1
aI5
aI6
aaI112
a(lp182
I3
aa(lp183
I3
aa(lp184
I3
aa(lp185
I0
aI1
aI2
aI3
aI4
aI5
aI6
aI7
aa(lp186
I3
aa(lp187
I3
aa(lp188
I3
aaI178
aI112
aI82
a(lp189
I3
aa(lp190
I4
aaI111
aa(lp191
I90
aI46
aI90
aI15
aI46
a(lp192
I6
aaI46
aI138
aI121
aI46
aI36
aI36
a(lp193
I2
aI5
aI6
aI7
aaI90
aI78
aI33
aI46
aI46
a(lp194
I6
aaI152
aI46
aI70
a(lp195
I2
aaI160
aI160
aI160
aI138
a(lp196
I0
aI1
aI2
aI3
aI4
aI5
aI6
aI7
aa(lp197
I6
aa(lp198
I6
aaI13
a(lp199
I6
aaI161
aI161
a(lp200
I6
aaI112
aI152
aI152
aI112
aI152
aI112
a(lp201
I1
aI5
aI6
aa(lp202
I4
aaI161
aa(lp203
I33
aI70
aI152
aI160
a(lp204
I3
aaI122
a(lp205
I3
aaI163
a(lp206
I0
aI1
aaI33
a(lp207
I0
aI1
aaI90
a(lp208
I3
aa(lp209
I3
aaI58
a(lp210
I2
aaI60
aI139
a(lp211
I3
aaI121
a(lp212
I3
aa(lp213
I4
aaI61
a(lp214
I4
aa(lp215
I6
aaI138
a(lp216
I6
aa(lp217
I3
aa(lp218
I3
aaI146
aI117
aI160
aI170
aI160
aI160
aI160
aI138
aI146
a(lp219
I3
aaI69
a(lp220
I0
aI1
aI2
aI3
aI4
aI5
aI6
aI7
aa(lp221
I4
aaI121
aI182
a(lp222
I3
aa(lp223
I3
aa(lp224
I3
aI7
aa(lp225
I4
aa(lp226
I6
aa(lp227
I6
aa(lp228
I3
aa(lp229
I6
aaI69
a(lp230
I3
aa(lp231
I2
aa(lp232
I3
aaI170
aI152
aI152
a(lp233
I3
aa(lp234
I3
aaI112
aI152
aI152
aI139
aI146
a(lp235
I4
aaI35
aI70
aI69
aI70
aI35
a(lp236
I3
aaI95
aI94
aI94
a(lp237
I6
aa(lp238
I6
aa(lp239
I3
aa(lp240
I3
aaI163
aI149
a(lp241
I3
aa(lp242
I4
aa(lp243
I4
aaa(lp244
(lp245
I2
aa(lp246
I2
aaI167
a(lp247
I2
aa(lp248
I1
aI5
aI6
aa(lp249
I6
aaI61
a(lp250
I6
aa(lp251
I4
aaI9
aI9
aI111
aI111
aI152
aI86
aI152
a(lp252
I2
aa(lp253
I3
aa(lp254
I6
aa(lp255
I6
aaI112
a(lp256
I6
aa(lp257
I6
aaI182
a(lp258
I3
aa(lp259
I3
aa(lp260
I6
aaI138
a(lp261
I6
aa(lp262
I3
aa(lp263
I3
aaI149
aI17
aI69
a(lp264
I0
aI1
aI5
aa(lp265
I0
aI1
aI2
aI3
aI4
aI5
aI6
aI7
aa(lp266
I0
aI1
aI2
aI3
aI4
aI5
aI6
aI7
aaI137
aI143
a(lp267
I3
aa(lp268
I0
aI1
aI5
aa(lp269
I2
aaI61
a(lp270
I3
aI7
aa(lp271
I3
aI7
aaI160
a(lp272
I3
aI7
aa(lp273
I6
aaI96
a(lp274
I6
aaI170
aI182
aI182
aI182
aI182
a(lp275
I6
aaI137
a(lp276
I2
aaI69
a(lp277
I3
aa(lp278
I3
aaI149
aI19
aI19
aI19
aI113
aI113
aI181
aI181
aI152
aI70
a(lp279
I3
aa(lp280
I6
aa(lp281
I3
aa(lp282
I3
aaI139
a(lp283
I3
aa(lp284
I6
aaI133
a(lp285
I4
aaI170
a(lp286
I4
aa(lp287
I1
aI5
aI6
aaI170
aI160
a(lp288
I0
aI1
aI2
aI3
aI4
aI5
aI6
aI7
aaI70
aI70
aI160
a(lp289
I3
aI7
aa(lp290
I3
aI7
aa(lp291
I3
aI7
aa(lp292
I2
aI5
aI6
aI7
aaI149
a(lp293
I3
aI7
aa(lp294
I3
aI7
aaa(lp295
(lp296
I2
aI5
aI6
aI7
aaI61
a(lp297
I6
aaI94
a(lp298
I0
aI1
aI2
aI3
aI4
aI5
aI6
aI7
aa(lp299
I0
aI1
aI2
aI3
aI4
aI5
aI6
aI7
aaI152
aI21
a(lp300
I1
aI5
aI6
aaI61
aI61
aI152
aI152
aI61
aI94
aI53
a(lp301
I2
aI5
aI6
aI7
aaI182
aI152
aI152
aa(lp302
(lp303
I1
aI5
aI6
aaI112
aI71
a(lp304
I6
aa(lp305
I6
aaI112
a(lp306
I3
aaI152
aI121
a(lp307
I4
aaI152
aI182
aI137
a(lp308
I0
aI1
aI5
aa(lp309
I0
aI1
aI5
aa(lp310
I0
aI1
aI5
aaI17
aI152
aI161
a(lp311
I6
aaI152
aI112
a(lp312
I6
aaI112
a(lp313
I4
aaI112
a(lp314
I2
aI5
aI6
aI7
aaI136
a(lp315
I3
aa(lp316
I6
aa(lp317
I6
aaI160
a(lp318
I0
aI1
aI2
aI3
aI4
aI5
aI6
aI7
aa(lp319
I0
aI1
aI2
aI3
aI4
aI5
aI6
aI7
aa(lp320
I3
aa(lp321
I3
aa(lp322
I3
aaI26
a(lp323
I0
aI1
aI2
aI3
aI4
aI5
aI6
aI7
aaI121
aI121
aI152
a(lp324
I3
aaI112
a(lp325
I6
aaI112
aI112
a(lp326
I3
aa(lp327
I3
aa(lp328
I1
aI5
aI6
aaI152
aI161
aI161
aI112
aI112
aI58
aI121
aI161
aI112
aI153
a(lp329
I4
aaI83
aa(lp330
(lp331
I3
aI7
aa(lp332
I3
aa(lp333
I3
aI7
aaI69
a(lp334
I3
aI7
aa(lp335
I6
aa(lp336
I0
aI1
aI2
aI3
aI4
aI5
aI6
aI7
aa(lp337
I3
aI7
aa(lp338
I3
aa(lp339
I2
aI5
aI6
aI7
aaI149
aI34
a(lp340
I0
aI1
aI2
aI3
aI4
aI5
aI6
aI7
aaI182
aI19
a(lp341
I0
aI1
aI2
aI3
aI4
aI5
aI6
aI7
aa(lp342
I2
aI5
aI6
aI7
aa(lp343
I2
aI5
aI6
aI7
aa(lp344
I6
aaI152
a(lp345
I6
aa(lp346
I6
aaI111
a(lp347
I3
aa(lp348
I2
aaI160
a(lp349
I1
aI5
aI6
aaI70
aI117
a(lp350
I6
aaI160
aI152
aI182
aI121
aI121
a(lp351
I1
aI5
aI6
aa(lp352
I0
aI1
aI2
aI3
aI4
aI5
aI6
aI7
aa(lp353
I3
aa(lp354
I2
aI5
aI6
aI7
aaI19
aI19
aI19
aI18
aI112
aI70
aI90
aI90
aI152
aI152
aI6
aI137
aI6
aI122
a(lp355
I3
aaI34
a(lp356
I3
aaI90
a(lp357
I3
aaI152
aI152
a(lp358
I0
aI1
aI2
aI3
aI4
aI5
aI6
aI7
aa(lp359
I0
aI1
aI2
aI3
aI4
aI5
aI6
aI7
aa(lp360
I2
aI5
aI6
aI7
aaI111
aI111
a(lp361
I6
aaI70
aI152
aI70
aI34
aI70
a(lp362
I3
aa(lp363
I3
aaI122
aI70
aI160
a(lp364
I4
aa(lp365
I4
aaI113
a(lp366
I3
aa(lp367
I3
aaI152
aa(lp368
I182
a(lp369
I3
aa(lp370
I3
aaI69
aI71
aI160
a(lp371
I4
aaI33
aI64
a(lp372
I4
aa(lp373
I4
aaI112
a(lp374
I0
aI1
aI2
aI3
aI4
aI5
aI6
aI7
aaI170
aI19
aI19
aI19
aI19
aI19
aI19
a(lp375
I3
aa(lp376
I3
aaI137
aI137
aI33
aI152
aI112
a(lp377
I6
aa(lp378
I0
aI1
aI2
aI3
aI4
aI5
aI6
aI7
aa(lp379
I0
aI1
aI5
aa(lp380
I3
aaI94
aI153
a(lp381
I4
aaI69
aI137
aI69
aI137
aI19
aI19
aI19
aI181
aI109
aI152
aI33
aI152
a(lp382
I3
aaI33
aI10
a(lp383
I4
aaI10
aa(lp384
I70
a(lp385
I3
aa(lp386
I3
aa(lp387
I3
aaI170
aI146
aI70
aI60
a(lp388
I3
aaI94
aI78
aI17
aI33
a(lp389
I3
aa(lp390
I3
aa(lp391
I3
aaI94
a(lp392
I4
aaI61
a(lp393
I3
aa(lp394
I3
aaI160
a(lp395
I3
aaI33
aI33
a(lp396
I6
aa(lp397
I3
aa(lp398
I4
aaI94
aI152
aI149
a(lp399
I3
aaI69
aI69
a(lp400
I3
aa(lp401
I4
aaI54
aI112
aI25
a(lp402
I0
aI1
aI2
aI3
aI4
aI5
aI6
aI7
aa(lp403
I3
aaI182
aI182
aI182
aa(lp404
(lp405
I3
aa(lp406
I6
aa(lp407
I6
aa(lp408
I6
aaI16
aI78
aI43
a(lp409
I4
aa(lp410
I3
aa(lp411
I4
aaI117
a(lp412
I3
aI7
aa(lp413
I0
aI1
aI2
aI3
aI4
aI5
aI6
aI7
aa(lp414
I3
aa(lp415
I3
aa(lp416
I4
aa(lp417
I0
aI1
aaI121
a(lp418
I0
aI1
aa(lp419
I3
aaI70
a(lp420
I4
aa(lp421
I3
aa(lp422
I3
aa(lp423
I3
aa(lp424
I3
aaI43
a(lp425
I3
aa(lp426
I3
aa(lp427
I3
aa(lp428
I3
aa(lp429
I3
aaa(lp430
(lp431
I3
aa(lp432
I3
aaI152
a(lp433
I4
aaI152
aI152
aI7
a(lp434
I3
aa(lp435
I3
aa(lp436
I3
aaI90
a(lp437
I4
aa(lp438
I4
aa(lp439
I4
aa(lp440
I4
aa(lp441
I3
aa(lp442
I3
aa(lp443
I3
aa(lp444
I4
aaI6
aI138
a(lp445
I3
aa(lp446
I3
aa(lp447
I3
aaI94
a(lp448
I4
aa(lp449
I3
aI7
aa(lp450
I0
aI1
aI2
aI3
aI4
aI5
aI6
aI7
aaI112
a(lp451
I3
aaI111
a(lp452
I3
aI7
aa(lp453
I3
aI7
aa(lp454
I4
aa(lp455
I3
aaa(lp456
(lp457
I2
aaI28
aI149
a(lp458
I3
aa(lp459
I3
aaI112
a(lp460
I0
aI1
aI2
aI3
aI4
aI5
aI6
aI7
aa(lp461
I3
aaI137
aI97
a(lp462
I4
aa(lp463
I2
aaI170
aI16
aI16
aI97
aI16
aI90
a(lp464
I3
aaI111
aI16
a(lp465
I4
aaI21
aI36
aI36
aI36
aI137
aI36
aI2
aI117
aI138
a(lp466
I3
aa(lp467
I7
aaI152
a(lp468
I3
aa(lp469
I3
aI7
aaI138
aI25
a(lp470
I3
aaI18
aI121
a(lp471
I3
aa(lp472
I0
aI1
aaI19
a(lp473
I0
aI1
aa(lp474
I0
aI1
aaI111
aI137
a(lp475
I2
aI5
aI6
aI7
aa(lp476
I3
aa(lp477
I6
aa(lp478
I3
aaa(lp479
I160
a(lp480
I4
aaI112
aI113
aI112
aI160
a(lp481
I0
aI1
aI2
aI3
aI4
aI5
aI6
aI7
aaI112
aI112
a(lp482
I4
aa(lp483
I4
aa(lp484
I4
aa(lp485
I2
aa(lp486
I4
aaI77
a(lp487
I3
aa(lp488
I3
aaI112
aI2
aI152
a(lp489
I0
aI1
aI2
aI3
aI4
aI5
aI6
aI7
aaI112
aI112
aI112
a(lp490
I0
aI1
aI5
aaI19
a(lp491
I3
aaI19
aI19
aI19
aI162
a(lp492
I3
aaI112
a(lp493
I4
aaI69
a(lp494
I4
aaI18
aI125
a(lp495
I6
aa(lp496
I4
aa(lp497
I3
aa(lp498
I4
aa(lp499
I2
aa(lp500
I3
aa(lp501
I4
aa(lp502
I4
aa(lp503
I4
aaI152
aI162
aI19
aI19
a(lp504
I3
aI7
aaI152
aI18
aI62
aI152
aI70
aI160
a(lp505
I3
aaI77
a(lp506
I3
aa(lp507
I3
aa(lp508
I4
aa(lp509
I4
aa(lp510
I3
aa(lp511
I3
aI7
aa(lp512
I3
aaI152
aI152
aa(lp513
(lp514
I3
aa(lp515
I3
aa(lp516
I3
aaI122
a(lp517
I3
aa(lp518
I3
aaI122
aI122
a(lp519
I0
aI1
aI5
aa(lp520
I3
aaI16
a(lp521
I3
aaI16
aI149
a(lp522
I3
aa(lp523
I0
aI1
aa(lp524
I0
aI1
aI5
aaI152
aI62
a(lp525
I3
aaI181
aI152
aI170
aI143
aI143
aI178
a(lp526
I7
aaI16
aI16
aI19
aI19
aI138
a(lp527
I3
aa(lp528
I2
aaI122
aI19
aI94
a(lp529
I3
aaI60
aI22
aI18
a(lp530
I3
aaI146
aI170
aI152
a(lp531
I0
aI1
aI2
aI3
aI4
aI5
aI6
aI7
aaI169
a(lp532
I0
aI1
aaI122
aI134
aI44
a(lp533
I4
aa(lp534
I2
aaI16
a(lp535
I3
aa(lp536
I7
aaI117
a(lp537
I7
aa(lp538
I7
aaI122
aI149
aI62
aI62
aI139
aI69
a(lp539
I2
aa(lp540
I3
aa(lp541
I4
aaI143
a(lp542
I0
aI1
aI5
aa(lp543
I3
aaI160
a(lp544
I0
aI1
aI5
aaI160
a(lp545
I2
aa(lp546
I4
aa(lp547
I4
aaI143
aI143
aI137
a(lp548
I4
aa(lp549
I3
aaI182
aa(lp550
I34
aI95
aI182
aI34
aI34
a(lp551
I3
aaI70
aI6
aI6
aI77
aI149
aI124
aI161
aI152
aI152
aI24
a(lp552
I2
aaI152
aI152
aI133
a(lp553
I3
aaI13
aI34
aI181
a(lp554
I4
aaI77
aI34
aI33
aI33
aI161
aI137
aI95
aI95
a(lp555
I3
aaI95
aI34
aI44
a(lp556
I3
aa(lp557
I3
aI7
aaI152
a(lp558
I4
aa(lp559
I3
aI7
aa(lp560
I0
aI1
aI2
aI3
aI4
aI5
aI6
aI7
aaI25
aI34
a(lp561
I3
aaI34
a(lp562
I3
aaI33
aI182
aI182
a(lp563
I3
aa(lp564
I2
aaI34
aI174
aI174
aI34
a(lp565
I4
aa(lp566
I2
aa(lp567
I0
aI1
aa(lp568
I3
aa(lp569
I3
aaI33
aI70
aI34
a(lp570
I0
aI1
aI2
aI3
aI4
aI5
aI6
aI7
aa(lp571
I3
aaI34
a(lp572
I6
aa(lp573
I6
aa(lp574
I6
aa(lp575
I3
aa(lp576
I3
aaI139
a(lp577
I3
aa(lp578
I2
aI5
aI6
aI7
aa(lp579
I3
aI7
aaI182
aa(lp580
(lp581
I3
aa(lp582
I0
aI1
aI2
aI3
aI4
aI5
aI6
aI7
aaI152
aI70
aI6
aI46
aI138
aI182
aI152
aI149
a(lp583
I2
aaI142
aI122
a(lp584
I0
aI1
aa(lp585
I2
aaI113
a(lp586
I3
aa(lp587
I0
aI1
aa(lp588
I0
aI1
aaI70
aI137
aI182
a(lp589
I3
aa(lp590
I0
aI1
aaI149
aI149
a(lp591
I3
aaI149
aI149
aI149
aI16
a(lp592
I4
aa(lp593
I6
aaI181
aI94
aI94
a(lp594
I6
aaI73
aI61
aI94
aI16
aI94
aI16
a(lp595
I4
aaI94
a(lp596
I3
aa(lp597
I4
aa(lp598
I0
aI1
aI2
aI3
aI4
aI5
aI6
aI7
aa(lp599
I4
aa(lp600
I3
aa(lp601
I3
aa(lp602
I0
aI1
aI5
aa(lp603
I3
aaI34
aI142
aI17
aI16
a(lp604
I0
aI1
aaI34
a(lp605
I0
aI1
aa(lp606
I0
aI1
aaI94
aI149
aI149
aI70
aI34
aI60
aI2
aI153
a(lp607
I4
aaI34
a(lp608
I3
aa(lp609
I2
aa(lp610
I4
aa(lp611
I3
aaI7
a(lp612
I4
aaI15
a(lp613
I4
aa(lp614
I4
aaI170
aI170
a(lp615
I4
aa(lp616
I2
aa(lp617
I4
aa(lp618
I4
aa(lp619
I2
aa(lp620
I6
aaI142
aI34
aI34
aI34
a(lp621
I3
aa(lp622
I3
aaI181
a(lp623
I0
aI1
aaI70
aI70
aI112
a(lp624
I3
aaI60
aI7
aI112
aI170
a(lp625
I6
aa(lp626
I6
aaI69
aI64
a(lp627
I6
aaI142
aI70
a(lp628
I3
aa(lp629
I3
aaI16
a(lp630
I3
aa(lp631
I3
aaI181
aI16
aI16
aI16
aI152
a(lp632
I2
aaI152
aa(lp633
(lp634
I3
aa(lp635
I1
aI5
aI6
aaI112
aI160
a(lp636
I6
aa(lp637
I0
aI1
aa(lp638
I3
aI7
aaI117
a(lp639
I0
aI1
aI5
aaI149
aI149
aI152
aI112
aI152
aI152
a(lp640
I0
aI1
aaI111
aI111
a(lp641
I2
aa(lp642
I0
aI1
aI5
aa(lp643
I0
aI1
aI5
aa(lp644
I0
aI1
aI5
aa(lp645
I1
aI5
aI6
aaI33
a(lp646
I0
aI1
aa(lp647
I0
aI1
aaI160
a(lp648
I6
aa(lp649
I3
aa(lp650
I0
aI1
aI5
aaI139
aI21
aI137
aI137
aI142
aI13
aI111
aI17
aI160
a(lp651
I3
aI7
aa(lp652
I3
aI7
aa(lp653
I3
aa(lp654
I3
aI7
aa(lp655
I2
aI5
aI6
aI7
aaI17
aI112
aI19
aI152
a(lp656
I3
aaI152
aI70
a(lp657
I6
aaI70
a(lp658
I6
aa(lp659
I0
aI1
aI5
aa(lp660
I0
aI1
aaI127
a(lp661
I0
aI1
aa(lp662
I0
aI1
aa(lp663
I0
aI1
aI2
aI3
aI4
aI5
aI6
aI7
aa(lp664
I0
aI1
aI5
aaI160
aI160
a(lp665
I0
aI1
aI5
aa(lp666
I0
aI1
aI5
aa(lp667
I0
aI1
aa(lp668
I0
aI1
aa(lp669
I3
aa(lp670
I3
aa(lp671
I3
aa(lp672
I3
aa(lp673
I4
aaa(lp674
I71
a(lp675
I3
aI7
aa(lp676
I3
aa(lp677
I4
aa(lp678
I3
aa(lp679
I3
aa(lp680
I6
aa(lp681
I3
aa(lp682
I3
aa(lp683
I3
aa(lp684
I2
aI5
aI6
aI7
aa(lp685
I3
aa(lp686
I3
aa(lp687
I3
aa(lp688
I3
aa(lp689
I3
aa(lp690
I2
aa(lp691
I3
aa(lp692
I3
aI7
aa(lp693
I3
aI7
aa(lp694
I3
aa(lp695
I3
aa(lp696
I3
aa(lp697
I4
aa(lp698
I3
aa(lp699
I3
aaI60
a(lp700
I0
aI1
aI2
aI3
aI4
aI5
aI6
aI7
aa(lp701
I3
aa(lp702
I3
aa(lp703
I3
aa(lp704
I3
aa(lp705
I3
aa(lp706
I3
aa(lp707
I3
aa(lp708
I3
aa(lp709
I3
aa(lp710
I3
aa(lp711
I4
aaI170
a(lp712
I3
aI7
aaI160
a(lp713
I3
aI7
aa(lp714
I3
aI7
aa(lp715
I3
aI7
aa(lp716
I3
aa(lp717
I3
aa(lp718
I4
aa(lp719
I4
aa(lp720
I1
aI5
aI6
aa(lp721
I1
aI5
aI6
aa(lp722
I3
aa(lp723
I3
aaa(lp724
(lp725
I0
aI1
aa(lp726
I0
aI1
aaI152
aI152
aI7
aI138
aI111
a(lp727
I0
aI1
aI2
aI3
aI4
aI5
aI6
aI7
aa(lp728
I3
aaI122
aI115
aI94
aI7
aI60
aI142
a(lp729
I6
aa(lp730
I0
aI1
aa(lp731
I3
aaI7
aI60
a(lp732
I6
aaI7
aI152
a(lp733
I6
aaI94
aI7
aI111
aI111
a(lp734
I3
aaI111
a(lp735
I1
aI5
aI6
aa(lp736
I1
aI5
aI6
aa(lp737
I1
aI5
aI6
aaI17
aI17
a(lp738
I0
aI1
aa(lp739
I0
aI1
aa(lp740
I0
aI1
aa(lp741
I2
aI5
aI6
aI7
aa(lp742
I4
aaI170
aI124
aI71
a(lp743
I3
aaI115
a(lp744
I0
aI1
aI2
aI3
aI4
aI5
aI6
aI7
aaI60
a(lp745
I3
aaI22
aI86
aI60
aI182
aI86
aI56
aI7
aI61
aI61
a(lp746
I6
aaI62
aI71
a(lp747
I6
aa(lp748
I6
aa(lp749
I6
aa(lp750
I6
aaI86
aI94
a(lp751
I3
aa(lp752
I1
aI5
aI6
aa(lp753
I1
aI5
aI6
aaI95
aI62
a(lp754
I3
aaa(lp755
I71
aI71
a(lp756
I6
aaI161
a(lp757
I0
aI1
aa(lp758
I0
aI1
aaI60
a(lp759
I3
aa(lp760
I3
aaI90
a(lp761
I4
aaI21
a(lp762
I0
aI1
aI2
aI3
aI4
aI5
aI6
aI7
aaI94
a(lp763
I0
aI1
aaI71
aI172
a(lp764
I0
aI1
aI5
aa(lp765
I2
aaI182
aI182
a(lp766
I3
aaI60
a(lp767
I4
aa(lp768
I1
aI5
aI6
aaI60
aI121
aI111
aI69
a(lp769
I6
aaI10
aI182
aI71
aI71
a(lp770
I4
aa(lp771
I1
aI5
aI6
aaI94
aI71
a(lp772
I3
aa(lp773
I3
aa(lp774
I4
aaI77
aI69
aa(lp775
I69
aI69
aI152
a(lp776
I4
aa(lp777
I3
aaI64
a(lp778
I3
aaI94
aI149
aI112
aI149
a(lp779
I3
aa(lp780
I3
aa(lp781
I3
aa(lp782
I3
aaI112
aI95
aI6
aI95
aI95
a(lp783
I1
aI5
aI6
aaI152
a(lp784
I3
aa(lp785
I3
aaI139
a(lp786
I3
aa(lp787
I3
aaI62
a(lp788
I0
aI1
aa(lp789
I0
aI1
aaI138
a(lp790
I3
aa(lp791
I3
aa(lp792
I3
aa(lp793
I3
aa(lp794
I0
aI1
aaI13
aI43
aI43
a(lp795
I0
aI1
aaI43
a(lp796
I4
aaI121
aI56
a(lp797
I2
aaI70
a(lp798
I3
aa(lp799
I3
aa(lp800
I3
aaI64
a(lp801
I0
aI1
aI2
aI3
aI4
aI5
aI6
aI7
aaI16
a(lp802
I3
aa(lp803
I3
aa(lp804
I3
aaI149
a(lp805
I3
aaI112
a(lp806
I0
aI1
aaI90
aI138
aI112
a(lp807
I6
aa(lp808
I3
aa(lp809
I6
aaI16
aI97
a(lp810
I3
aaI43
aI142
aI43
aI17
aI62
aI25
aI62
a(lp811
I3
aaI52
a(lp812
I0
aI1
aI5
aa(lp813
I3
aa(lp814
I3
aaI43
aI112
aI138
a(lp815
I3
aa(lp816
I3
aaI60
a(lp817
I0
aI1
aa(lp818
I3
aaI149
a(lp819
I3
aaI152
a(lp820
I0
aI1
aI5
aa(lp821
I0
aI1
aI5
aaI19
aI19
aI19
a(lp822
I0
aI1
aaI70
aI152
a(lp823
I6
aa(lp824
I4
aaI64
aI6
a(lp825
I3
aa(lp826
I0
aI1
aI5
aaI69
aI69
aa(lp827
I70
aI70
aI6
aI6
aI70
aI35
aI70
aI152
aI181
a(lp828
I6
aa(lp829
I6
aaI62
aI62
a(lp830
I6
aaI71
aI152
aI16
aI111
aI62
aI62
aI62
aI62
aI70
aI70
aI125
aI70
aI16
aI35
a(lp831
I0
aI1
aI2
aI3
aI4
aI5
aI6
aI7
aaI18
aI138
aI64
a(lp832
I3
aaI70
aI33
aI70
aI152
aI70
aI70
aI70
a(lp833
I2
aI5
aI6
aI7
aaI6
aI70
aI58
aI70
aI152
aI70
aI70
aI70
aI127
a(lp834
I6
aa(lp835
I6
aa(lp836
I0
aI1
aa(lp837
I4
aaI152
aI16
aI16
aI70
aI70
aI62
aI112
aI152
a(lp838
I3
aI7
aaI121
aI95
aI54
a(lp839
I3
aaI29
aI58
aI134
aI152
aI70
aI70
aI70
aI70
a(lp840
I3
aa(lp841
I3
aa(lp842
I6
aa(lp843
I1
aI5
aI6
aa(lp844
I3
aaI70
aI16
aI62
aI58
aI70
a(lp845
I2
aaI53
a(lp846
I3
aaI70
a(lp847
I6
aaI35
a(lp848
I6
aa(lp849
I3
aI7
aaa(lp850
(lp851
I3
aaI13
a(lp852
I4
aa(lp853
I0
aI1
aa(lp854
I0
aI1
aI5
aa(lp855
I0
aI1
aI2
aI3
aI4
aI5
aI6
aI7
aa(lp856
I0
aI1
aa(lp857
I4
aa(lp858
I3
aaa(lp859
(lp860
I3
aaI9
aI138
aI62
aI36
a(lp861
I4
aaI17
a(lp862
I3
aaI16
a(lp863
I3
aI7
aa(lp864
I3
aaI122
aI122
aI122
aI16
a(lp865
I3
aa(lp866
I0
aI1
aaI33
aI58
aI117
aI117
aI182
a(lp867
I4
aaI62
a(lp868
I3
aI7
aaI117
a(lp869
I4
aaI117
aI170
aI122
a(lp870
I3
aa(lp871
I3
aaI152
aI152
aI152
a(lp872
I4
aa(lp873
I3
aa(lp874
I3
aaI112
aI112
a(lp875
I0
aI1
aI2
aI3
aI4
aI5
aI6
aI7
aaI117
aI117
a(lp876
I0
aI1
aaI24
aI143
aI122
a(lp877
I3
aa(lp878
I0
aI1
aI2
aI3
aI4
aI5
aI6
aI7
aa(lp879
I4
aaI182
aI182
aI182
aI182
aI182
aI182
a(lp880
I4
aa(lp881
I4
aa(lp882
I4
aa(lp883
I3
aa(lp884
I4
aaI152
aI17
a(lp885
I0
aI1
aaI70
aI36
aI112
a(lp886
I4
aaI152
aI112
a(lp887
I2
aaI139
aI138
a(lp888
I4
aa(lp889
I4
aa(lp890
I4
aaI24
aI112
a(lp891
I4
aa(lp892
I3
aa(lp893
I0
aI1
aaI159
aI61
aI61
aI61
aI112
aI152
a(lp894
I4
aaI58
a(lp895
I0
aI1
aI2
aI3
aI4
aI5
aI6
aI7
aa(lp896
I3
aaI159
aI159
aI159
aI139
aI62
a(lp897
I4
aaI117
aI138
aI7
aI152
aI149
aI152
a(lp898
I4
aa(lp899
I3
aa(lp900
I3
aa(lp901
I4
aaI149
a(lp902
I3
aaI9
a(lp903
I4
aa(lp904
I4
aa(lp905
I4
aa(lp906
I4
aa(lp907
I3
aa(lp908
I3
aa(lp909
I0
aI1
aI5
aa(lp910
I3
aa(lp911
I3
aa(lp912
I3
aI7
aaI149
a(lp913
I4
aaI112
aI149
aI112
aI112
aI149
a(lp914
I3
aa(lp915
I0
aI1
aa(lp916
I0
aI1
aa(lp917
I6
aaI18
aI143
aI19
a(lp918
I4
aaI170
aI152
a(lp919
I0
aI1
aa(lp920
I0
aI1
aaI112
aa(lp921
I16
aI152
aI152
aI182
a(lp922
I3
aaI64
a(lp923
I3
aaI149
aI149
a(lp924
I3
aa(lp925
I0
aI1
aI2
aI3
aI4
aI5
aI6
aI7
aaI70
aI70
aI70
aI70
aI152
aI25
a(lp926
I3
aa(lp927
I3
aaI111
aI62
a(lp928
I4
aaI149
aI137
aI137
aI117
aI149
aI149
aI149
a(lp929
I3
aa(lp930
I3
aa(lp931
I3
aaI149
aI149
aI122
a(lp932
I0
aI1
aI2
aI3
aI4
aI5
aI6
aI7
aaI160
aI160
aI24
aI35
aI117
aI122
aI21
a(lp933
I4
aaI117
aI152
aI137
a(lp934
I4
aaI44
a(lp935
I4
aa(lp936
I4
aaI182
aI182
aI182
aI182
aI182
a(lp937
I4
aa(lp938
I0
aI1
aaI33
aI137
aI9
aI159
aI70
a(lp939
I3
aaI36
aI138
a(lp940
I4
aaI182
aI160
aI70
aI149
aI112
a(lp941
I3
aa(lp942
I3
aaI70
aI60
aI138
aI62
aI25
aI22
aI62
a(lp943
I3
aa(lp944
I3
aaI161
aI160
aI160
aI160
aI160
a(lp945
I3
aa(lp946
I3
aaI152
aI152
a(lp947
I3
aaI60
a(lp948
I3
aa(lp949
I3
aaI159
aI137
aI137
a(lp950
I0
aI1
aa(lp951
I6
aaI0
aI0
a(lp952
I3
aI7
aaI149
aI117
a(lp953
I4
aa(lp954
I4
aa(lp955
I0
aI1
aI2
aI3
aI4
aI5
aI6
aI7
aaI137
aI137
a(lp956
I3
aa(lp957
I4
aaI149
a(lp958
I3
aaI152
aI62
aI160
aI160
aI160
aI160
a(lp959
I3
aaa(lp960
(lp961
I0
aI1
aI5
aa(lp962
I4
aaI62
a(lp963
I0
aI1
aa(lp964
I3
aI7
aa(lp965
I4
aa(lp966
I4
aa(lp967
I4
aaI111
aI122
aI122
aI146
aI170
aI138
aI152
aI152
aI152
aI142
a(lp968
I2
aaI61
a(lp969
I6
aaI122
a(lp970
I3
aa(lp971
I4
aa(lp972
I3
aa(lp973
I3
aaI149
a(lp974
I4
aaI122
a(lp975
I4
aaI122
aI152
aI122
aI122
a(lp976
I3
aaI152
a(lp977
I3
aa(lp978
I4
aa(lp979
I4
aa(lp980
I4
aa(lp981
I4
aaI6
aI166
aI6
aI122
aI122
a(lp982
I3
aa(lp983
I0
aI1
aI2
aI3
aI4
aI5
aI6
aI7
aa(lp984
I3
aI7
aa(lp985
I3
aI7
aaI95
aI95
aI95
a(lp986
I6
aaI95
a(lp987
I3
aa(lp988
I3
aaI122
aI122
a(lp989
I4
aa(lp990
I4
aaI122
aI25
aI122
aI122
aI111
a(lp991
I3
aI7
aa(lp992
I3
aI7
aa(lp993
I3
aaI139
aI122
a(lp994
I6
aaI122
aI122
aI122
a(lp995
I6
aa(lp996
I4
aa(lp997
I6
aa(lp998
I6
aa(lp999
I4
aa(lp1000
I0
aI1
aI2
aI3
aI4
aI5
aI6
aI7
aaa(lp1001
I62
aI96
aI162
aI182
a(lp1002
I3
aI7
aa(lp1003
I3
aaI182
aI152
a(lp1004
I4
aaI112
aI182
aI181
a(lp1005
I0
aI1
aI2
aI3
aI4
aI5
aI6
aI7
aa(lp1006
I3
aaI149
aI70
aI19
aI19
aI19
a(lp1007
I3
aaI160
a(lp1008
I2
aaI160
aI170
aI181
aI62
a(lp1009
I2
aI5
aI6
aI7
aa(lp1010
I4
aa(lp1011
I3
aaI69
a(lp1012
I2
aI5
aI6
aI7
aa(lp1013
I0
aI1
aI5
aa(lp1014
I0
aI1
aI5
aaI112
a(lp1015
I4
aaI111
aa(lp1016
I15
aI117
aI153
aI18
a(lp1017
I2
aaI122
aI176
aI86
aI149
a(lp1018
I4
aaI149
aI149
a(lp1019
I4
aa(lp1020
I4
aa(lp1021
I4
aa(lp1022
I0
aI1
aI2
aI3
aI4
aI5
aI6
aI7
aa(lp1023
I3
aI7
aaI152
a(lp1024
I0
aI1
aa(lp1025
I2
aa(lp1026
I0
aI1
aaI70
a(lp1027
I4
aaI71
a(lp1028
I4
aa(lp1029
I3
aa(lp1030
I0
aI1
aaI71
aI71
a(lp1031
I3
aI7
aaI149
aI60
aI86
aI122
aI170
aI149
aa(lp1032
I60
a(lp1033
I1
aI5
aI6
aaI61
aI152
aI112
a(lp1034
I0
aI1
aa(lp1035
I3
aaI33
aI90
aI70
a(lp1036
I3
aa(lp1037
I3
aaI111
aI70
aI152
aI61
aI62
aI152
aI49
aI111
aI94
aI94
aI117
aI117
a(lp1038
I3
aI7
aa(lp1039
I6
aa(lp1040
I0
aI1
aI2
aI3
aI4
aI5
aI6
aI7
aa(lp1041
I0
aI1
aI2
aI3
aI4
aI5
aI6
aI7
aaI36
aI81
a(lp1042
I6
aaI15
aI36
aI152
aI36
aI81
aI16
aI152
aI117
aI60
aI64
a(lp1043
I4
aa(lp1044
I3
aa(lp1045
I3
aaI111
aI60
a(lp1046
I3
aaI33
aI111
aI121
aI149
aI81
aI152
aI111
aI70
aI121
aI121
aI121
aI9
a(lp1047
I3
aaI9
aI111
aI149
aI149
aI70
a(lp1048
I3
aaI94
a(lp1049
I4
aa(lp1050
I4
aaI152
aI111
aI9
a(lp1051
I6
aa(lp1052
I6
aaI64
aI54
aI112
aI33
aI70
aI112
aI94
aI33
aI160
a(lp1053
I3
aaI62
aI117
aI160
aI160
aI97
aI16
aI16
aI160
aI2
a(lp1054
I6
aa(lp1055
I6
aaI112
a(lp1056
I6
aaI81
aI9
aI81
aI182
aI175
aI149
aI111
a(lp1057
I4
aa(lp1058
I3
aI7
aaI81
a(lp1059
I3
aaI152
a(lp1060
I3
aaI62
aI81
aI72
aI81
aI15
aI160
aI62
aa(lp1061
I36
a(lp1062
I3
aa(lp1063
I3
aaI117
a(lp1064
I4
aa(lp1065
I4
aa(lp1066
I4
aa(lp1067
I2
aaI29
aI6
aI19
a(lp1068
I3
aa(lp1069
I0
aI1
aI5
aa(lp1070
I0
aI1
aI5
aa(lp1071
I2
aaI181
a(lp1072
I0
aI1
aaI60
a(lp1073
I0
aI1
aaI94
aI117
aI36
aI7
aI137
a(lp1074
I3
aI7
aa(lp1075
I0
aI1
aI5
aa(lp1076
I0
aI1
aI5
aa(lp1077
I0
aI1
aI2
aI3
aI4
aI5
aI6
aI7
aaI94
aI113
aI16
a(lp1078
I3
aa(lp1079
I3
aI7
aaI70
aI70
aI70
aI170
a(lp1080
I0
aI1
aI2
aI3
aI4
aI5
aI6
aI7
aa(lp1081
I7
aa(lp1082
I0
aI1
aI2
aI3
aI4
aI5
aI6
aI7
aa(lp1083
I1
aI5
aI6
aa(lp1084
I4
aa(lp1085
I0
aI1
aI2
aI3
aI4
aI5
aI6
aI7
aa(lp1086
I4
aaI7
aI86
aI36
aI21
a(lp1087
I4
aaI21
a(lp1088
I4
aaI117
a(lp1089
I3
aa(lp1090
I3
aaI16
aI28
aI28
aI7
a(lp1091
I3
aI7
aa(lp1092
I4
aaI18
aI62
aI25
aI7
aI152
aI7
aI16
aI10
aI10
aI10
aI112
aI111
aI170
a(lp1093
I3
aI7
aaa(lp1094
(lp1095
I4
aaI170
a(lp1096
I4
aa(lp1097
I3
aI7
aa(lp1098
I3
aI7
aa(lp1099
I4
aaI44
a(lp1100
I4
aa(lp1101
I0
aI1
aI2
aI3
aI4
aI5
aI6
aI7
aaI139
aI161
a(lp1102
I3
aaI111
aI69
aI70
a(lp1103
I0
aI1
aI2
aI3
aI4
aI5
aI6
aI7
aa(lp1104
I3
aa(lp1105
I3
aaI62
a(lp1106
I3
aI7
aaI13
aI13
aa(lp1107
I112
aI152
a(lp1108
I3
aaI112
aI62
a(lp1109
I2
aaI170
a(lp1110
I3
aaI170
aI142
aI172
aI69
aI127
a(lp1111
I6
aa(lp1112
I6
aa(lp1113
I6
aa(lp1114
I6
aa(lp1115
I6
aa(lp1116
I3
aaI117
aI70
aI95
a(lp1117
I3
aa(lp1118
I3
aa(lp1119
I3
aa(lp1120
I6
aa(lp1121
I6
aaI117
aI26
aI71
aI26
aI142
aI142
aI117
aI117
a(lp1122
I6
aa(lp1123
I6
aa(lp1124
I6
aa(lp1125
I4
aa(lp1126
I4
aa(lp1127
I2
aaI117
a(lp1128
I0
aI1
aI2
aI3
aI4
aI5
aI6
aI7
aa(lp1129
I0
aI1
aI2
aI3
aI4
aI5
aI6
aI7
aa(lp1130
I4
aa(lp1131
I2
aI5
aI6
aI7
aaI170
aI170
a(lp1132
I0
aI1
aI2
aI3
aI4
aI5
aI6
aI7
aaI94
a(lp1133
I3
aa(lp1134
I3
aa(lp1135
I4
aa(lp1136
I6
aa(lp1137
I6
aa(lp1138
I6
aa(lp1139
I6
aa(lp1140
I6
aa(lp1141
I6
aa(lp1142
I6
aa(lp1143
I4
aa(lp1144
I3
aI7
aa(lp1145
I3
aa(lp1146
I3
aa(lp1147
I3
aaI160
aI145
a(lp1148
I3
aa(lp1149
I3
aa(lp1150
I3
aaI90
a(lp1151
I3
aaI33
aI70
aI181
aI181
a(lp1152
I6
aa(lp1153
I6
aa(lp1154
I6
aaI117
aI117
a(lp1155
I3
aaI152
a(lp1156
I3
aaI117
a(lp1157
I4
aa(lp1158
I0
aI1
aI2
aI3
aI4
aI5
aI6
aI7
aaI113
aI134
aI113
aI172
aI70
aI70
a(lp1159
I2
aa(lp1160
I3
aa(lp1161
I6
aa(lp1162
I6
aa(lp1163
I3
aaI152
a(lp1164
I3
aa(lp1165
I0
aI1
aI2
aI3
aI4
aI5
aI6
aI7
aaI182
a(lp1166
I0
aI1
aI2
aI3
aI4
aI5
aI6
aI7
aa(lp1167
I3
aa(lp1168
I3
aa(lp1169
I4
aaI181
a(lp1170
I3
aa(lp1171
I6
aa(lp1172
I6
aa(lp1173
I6
aa(lp1174
I6
aa(lp1175
I0
aI1
aI2
aI3
aI4
aI5
aI6
aI7
aa(lp1176
I0
aI1
aI2
aI3
aI4
aI5
aI6
aI7
aaa(lp1177
I46
aI46
aI160
aI160
aI170
a(lp1178
I3
aa(lp1179
I3
aI7
aaI182
a(lp1180
I3
aa(lp1181
I3
aa(lp1182
I3
aI7
aaI175
a(lp1183
I3
aI7
aa(lp1184
I3
aI7
aaI182
a(lp1185
I4
aaI182
aI182
aI112
aI182
aI111
aI111
a(lp1186
I3
aa(lp1187
I0
aI1
aI2
aI3
aI4
aI5
aI6
aI7
aaI121
a(lp1188
I6
aa(lp1189
I4
aa(lp1190
I6
aa(lp1191
I0
aI1
aI2
aI3
aI4
aI5
aI6
aI7
aa(lp1192
I3
aI7
aaI117
aI112
a(lp1193
I4
aaI149
a(lp1194
I3
aI7
aa(lp1195
I0
aI1
aI2
aI3
aI4
aI5
aI6
aI7
aaI182
a(lp1196
I6
aaI69
aI17
aI17
aI111
aI139
a(lp1197
I6
aa(lp1198
I3
aI7
aa(lp1199
I3
aI7
aa(lp1200
I3
aI7
aa(lp1201
I3
aI7
aaI121
a(lp1202
I3
aa(lp1203
I3
aI7
aaI182
aI160
aI134
aI161
a(lp1204
I0
aI1
aI2
aI3
aI4
aI5
aI6
aI7
aa(lp1205
I0
aI1
aI2
aI3
aI4
aI5
aI6
aI7
aa(lp1206
I0
aI1
aI2
aI3
aI4
aI5
aI6
aI7
aa(lp1207
I0
aI1
aI2
aI3
aI4
aI5
aI6
aI7
aaI170
aI69
aI139
aI182
aI61
aa(lp1208
(lp1209
I3
aaI70
aI70
aI152
aI62
a(lp1210
I3
aI7
aaI117
a(lp1211
I3
aaI117
a(lp1212
I3
aa(lp1213
I3
aI7
aa(lp1214
I4
aaI61
aI152
aI152
aI152
aI160
aI182
aI70
a(lp1215
I3
aaI160
a(lp1216
I3
aaI10
a(lp1217
I3
aaI152
aI160
aI152
aI138
aI138
aI70
aI0
a(lp1218
I0
aI1
aI2
aI3
aI4
aI5
aI6
aI7
aaI0
a(lp1219
I4
aaI44
a(lp1220
I3
aI7
aaI152
aI34
a(lp1221
I3
aaI34
a(lp1222
I0
aI1
aI2
aI3
aI4
aI5
aI6
aI7
aaI138
aI152
a(lp1223
I3
aaI170
aI111
aI18
a(lp1224
I3
aI7
aaI112
a(lp1225
I1
aI5
aI6
aaI6
a(lp1226
I3
aI7
aa(lp1227
I4
aaI149
aI121
a(lp1228
I4
aa(lp1229
I4
aaI46
a(lp1230
I3
aI7
aa(lp1231
I3
aa(lp1232
I3
aa(lp1233
I3
aa(lp1234
I3
aI7
aaI6
aI70
a(lp1235
I3
aaI138
a(lp1236
I3
aI7
aaI112
a(lp1237
I2
aI5
aI6
aI7
aa(lp1238
I3
aI7
aa(lp1239
I3
aI7
aa(lp1240
I3
aI7
aaI152
a(lp1241
I3
aI7
aaa(lp1242
(lp1243
I0
aI1
aa(lp1244
I0
aI1
aaI94
aI121
a(lp1245
I6
aaI121
aI152
aI18
aI21
a(lp1246
I3
aaI9
aI153
aI152
aI149
a(lp1247
I4
aa(lp1248
I4
aa(lp1249
I4
aa(lp1250
I4
aa(lp1251
I0
aI1
aaI121
aI94
aI94
aI13
aI121
aI36
a(lp1252
I3
aaI94
aI122
a(lp1253
I3
aa(lp1254
I3
aa(lp1255
I4
aa(lp1256
I2
aaI152
aI112
aI2
a(lp1257
I4
aa(lp1258
I2
aa(lp1259
I3
aa(lp1260
I3
aaI36
aI33
aI33
a(lp1261
I0
aI1
aaI94
a(lp1262
I0
aI1
aa(lp1263
I6
aa(lp1264
I6
aa(lp1265
I3
aa(lp1266
I3
aI7
aaI182
aI52
aI19
aI19
aI19
aI160
aI152
aI152
aI52
aI160
aI6
aI160
aI160
a(lp1267
I3
aaI160
a(lp1268
I3
aa(lp1269
I4
aaI21
a(lp1270
I4
aa(lp1271
I4
aa(lp1272
I4
aaI95
a(lp1273
I6
aaI170
aI112
a(lp1274
I2
aa(lp1275
I4
aaI90
aI152
aI112
a(lp1276
I4
aaI152
aI16
a(lp1277
I3
aa(lp1278
I4
aa(lp1279
I4
aa(lp1280
I3
aaI94
aI94
a(lp1281
I4
aaI117
aI121
aI121
aI181
aI182
a(lp1282
I3
aa(lp1283
I3
aa(lp1284
I0
aI1
aI2
aI3
aI4
aI5
aI6
aI7
aa(lp1285
I0
aI1
aI2
aI3
aI4
aI5
aI6
aI7
aa(lp1286
I0
aI1
aI2
aI3
aI4
aI5
aI6
aI7
aa(lp1287
I3
aa(lp1288
I3
aaI112
aa(lp1289
(lp1290
I3
aI7
aa(lp1291
I4
aa(lp1292
I3
aI7
aa(lp1293
I3
aI7
aaI181
a(lp1294
I4
aa(lp1295
I4
aa(lp1296
I4
aa(lp1297
I3
aa(lp1298
I4
aaI112
a(lp1299
I4
aa(lp1300
I3
aI7
aa(lp1301
I4
aaI132
a(lp1302
I3
aa(lp1303
I3
aI7
aa(lp1304
I4
aa(lp1305
I3
aa(lp1306
I0
aI1
aI2
aI3
aI4
aI5
aI6
aI7
aa(lp1307
I4
aa(lp1308
I1
aI5
aI6
aa(lp1309
I3
aI7
aaI111
a(lp1310
I4
aa(lp1311
I0
aI1
aI2
aI3
aI4
aI5
aI6
aI7
aa(lp1312
I4
aa(lp1313
I4
aa(lp1314
I6
aa(lp1315
I6
aa(lp1316
I6
aaI170
aI136
aI170
a(lp1317
I4
aaI170
aI112
aI58
a(lp1318
I4
aaI78
aI112
a(lp1319
I3
aI7
aaI182
a(lp1320
I3
aI7
aaI17
a(lp1321
I6
aa(lp1322
I4
aaI71
a(lp1323
I4
aaI112
a(lp1324
I2
aI5
aI6
aI7
aa(lp1325
I3
aI7
aa(lp1326
I3
aI7
aa(lp1327
I4
aaI112
aI152
a(lp1328
I3
aI7
aa(lp1329
I0
aI1
aI2
aI3
aI4
aI5
aI6
aI7
aaI138
aI170
a(lp1330
I3
aI7
aa(lp1331
I2
aI5
aI6
aI7
aa(lp1332
I0
aI1
aI2
aI3
aI4
aI5
aI6
aI7
aa(lp1333
I3
aI7
aa(lp1334
I3
aI7
aa(lp1335
I3
aI7
aaI112
a(lp1336
I3
aa(lp1337
I3
aI7
aaa(lp1338
I6
a(lp1339
I6
aa(lp1340
I6
aa(lp1341
I6
aa(lp1342
I6
aaI71
aI94
a(lp1343
I6
aa(lp1344
I6
aa(lp1345
I6
aa(lp1346
I3
aaI152
aI152
aI138
a(lp1347
I6
aa(lp1348
I1
aI5
aI6
aa(lp1349
I2
aI5
aI6
aI7
aaI6
aI160
aI160
a(lp1350
I6
aa(lp1351
I6
aa(lp1352
I6
aa(lp1353
I6
aaI112
a(lp1354
I6
aaI78
a(lp1355
I3
aaI152
aI152
a(lp1356
I6
aaI160
aI160
aI160
aI165
a(lp1357
I6
aa(lp1358
I6
aaI34
a(lp1359
I6
aa(lp1360
I6
aaI71
a(lp1361
I1
aI5
aI6
aaI70
aI69
a(lp1362
I6
aaI71
a(lp1363
I6
aaI181
aI70
aI113
a(lp1364
I6
aaI94
a(lp1365
I0
aI1
aI2
aI3
aI4
aI5
aI6
aI7
aa(lp1366
I0
aI1
aaI70
aI152
aI152
aI70
aI94
a(lp1367
I6
aa(lp1368
I6
aaI71
aa(lp1369
I71
aI21
aI21
a(lp1370
I2
aaI7
aI138
aI138
aI69
a(lp1371
I6
aa(lp1372
I6
aaI36
aI36
aI81
aI143
aI143
aI143
aI17
aI36
a(lp1373
I4
aa(lp1374
I3
aa(lp1375
I3
aaI152
aI36
a(lp1376
I0
aI1
aa(lp1377
I0
aI1
aa(lp1378
I3
aaI70
a(lp1379
I4
aaI97
aI97
a(lp1380
I2
aa(lp1381
I2
aa(lp1382
I3
aa(lp1383
I3
aI7
aa(lp1384
I3
aaI18
aI24
aI24
aI152
aI152
aI18
a(lp1385
I3
aa(lp1386
I3
aaI24
aI24
a(lp1387
I2
aI5
aI6
aI7
aaI18
aI117
aI143
a(lp1388
I3
aa(lp1389
I2
aaI162
a(lp1390
I2
aa(lp1391
I3
aa(lp1392
I3
aa(lp1393
I3
aa(lp1394
I3
aaI36
aI36
aI70
aI7
aI7
a(lp1395
I0
aI1
aI2
aI3
aI4
aI5
aI6
aI7
aaI7
a(lp1396
I3
aaI86
aI143
aI143
aI143
aI143
aI33
aI18
a(lp1397
I2
aaI70
aI7
aI36
aI7
a(lp1398
I6
aaI61
aI86
aI7
aI152
a(lp1399
I6
aaI122
aI22
aI182
a(lp1400
I2
aa(lp1401
I3
aa(lp1402
I3
aa(lp1403
I3
aaI60
aI7
aI7
aI134
aI36
a(lp1404
I2
aaI112
a(lp1405
I3
aaI134
aI6
aI62
aI62
aI122
aI101
aI36
aI97
aI64
aI70
aI36
aI36
aI7
aI134
a(lp1406
I2
aaI122
aI143
aI159
aI97
aI143
aI152
aI152
aI152
aI152
a(lp1407
I3
aaI70
a(lp1408
I2
aaI7
aI152
aI71
a(lp1409
I3
aa(lp1410
I3
aaI121
aI122
aI152
aI7
aI36
aI36
a(lp1411
I3
aaI15
aI134
aI70
aI18
aI71
aI138
a(lp1412
I3
aaI143
aI97
aI149
aI24
aI24
a(lp1413
I3
aaI86
a(lp1414
I2
aa(lp1415
I4
aaI152
aI152
a(lp1416
I2
aa(lp1417
I4
aa(lp1418
I4
aa(lp1419
I4
aaI6
a(lp1420
I3
aaI152
aI143
aI143
a(lp1421
I3
aaI134
a(lp1422
I3
aa(lp1423
I3
aaI71
aI83
aI7
a(lp1424
I3
aaa(lp1425
(lp1426
I0
aI1
aa(lp1427
I0
aI1
aaI152
aI160
aI160
aI160
aI160
aI138
aI112
aI70
aI70
aI70
aI70
a(lp1428
I6
aa(lp1429
I6
aa(lp1430
I6
aaI70
aI111
a(lp1431
I0
aI1
aI2
aI3
aI4
aI5
aI6
aI7
aaI7
aI70
a(lp1432
I1
aI5
aI6
aa(lp1433
I3
aaI137
aI61
aI61
aI64
aI112
a(lp1434
I6
aa(lp1435
I1
aI5
aI6
aaI61
aI142
a(lp1436
I6
aaI160
aI160
a(lp1437
I6
aaI152
aI78
aI152
aI152
aI112
aI142
aI61
aI121
aI94
aI61
aI160
aI160
aI160
aI149
a(lp1438
I6
aaI33
aI94
aI33
aI33
aI111
aI134
aI70
aI70
aI70
aI70
aI111
aI70
aI70
aI70
aI70
aI70
aI33
aI33
aI94
a(lp1439
I6
aaI134
aI160
aI160
aI160
aI160
aI160
aI160
aI160
aI111
a(lp1440
I6
aaI33
aI152
aI70
aI70
aI46
aI152
aI152
aI70
aI70
aI70
aI60
a(lp1441
I3
aa(lp1442
I3
aI7
aa(lp1443
I2
aI5
aI6
aI7
aaI65
aI65
aI65
a(lp1444
I3
aaI149
aI182
aI17
aI16
aI90
aI152
aI78
aa(lp1445
(lp1446
I2
aa(lp1447
I2
aaI69
aI112
aI112
a(lp1448
I3
aI7
aa(lp1449
I4
aa(lp1450
I3
aI7
aa(lp1451
I2
aaI181
a(lp1452
I4
aaI133
a(lp1453
I2
aa(lp1454
I2
aa(lp1455
I2
aI5
aI6
aI7
aa(lp1456
I3
aaI112
aI170
aI181
aI117
a(lp1457
I4
aa(lp1458
I0
aI1
aI5
aa(lp1459
I0
aI1
aI5
aa(lp1460
I4
aa(lp1461
I0
aI1
aI2
aI3
aI4
aI5
aI6
aI7
aaI94
a(lp1462
I2
aa(lp1463
I1
aI5
aI6
aa(lp1464
I0
aI1
aI2
aI3
aI4
aI5
aI6
aI7
aa(lp1465
I2
aa(lp1466
I2
aaa(lp1467
I139
aI115
a(lp1468
I0
aI1
aa(lp1469
I0
aI1
aI5
aa(lp1470
I4
aa(lp1471
I4
aa(lp1472
I0
aI1
aa(lp1473
I0
aI1
aa(lp1474
I2
aa(lp1475
I2
aaI137
a(lp1476
I3
aaI182
aI152
aI10
aI10
aI61
aI171
aI149
aI10
aI36
a(lp1477
I0
aI1
aI5
aaI112
aI138
aI152
a(lp1478
I2
aa(lp1479
I6
aaI62
aI36
a(lp1480
I4
aa(lp1481
I0
aI1
aaI36
a(lp1482
I0
aI1
aI2
aI3
aI4
aI5
aI6
aI7
aaI112
aI10
aI10
a(lp1483
I2
aaI36
aI36
aa(lp1484
I173
a(lp1485
I3
aa(lp1486
I3
aa(lp1487
I4
aaI170
aI152
aI181
a(lp1488
I3
aaI70
aI24
a(lp1489
I0
aI1
aI2
aI3
aI4
aI5
aI6
aI7
aa(lp1490
I3
aaI173
aI152
aI152
aI152
a(lp1491
I6
aa(lp1492
I3
aaI70
a(lp1493
I3
aa(lp1494
I6
aa(lp1495
I6
aaI94
aI95
a(lp1496
I6
aaI182
aI182
aI64
aI70
aI64
a(lp1497
I6
aa(lp1498
I6
aa(lp1499
I1
aI5
aI6
aa(lp1500
I4
aaI182
aI153
aI170
a(lp1501
I4
aaI139
a(lp1502
I3
aaI181
aI152
aI166
a(lp1503
I0
aI1
aa(lp1504
I6
aaI111
aI95
a(lp1505
I0
aI1
aaI181
a(lp1506
I6
aa(lp1507
I0
aI1
aa(lp1508
I4
aaI166
aI152
aI71
aI152
a(lp1509
I3
aa(lp1510
I3
aa(lp1511
I0
aI1
aI5
aaI152
aa(lp1512
(lp1513
I2
aI5
aI6
aI7
aa(lp1514
I3
aa(lp1515
I3
aaI160
a(lp1516
I2
aa(lp1517
I6
aa(lp1518
I6
aa(lp1519
I6
aa(lp1520
I6
aaI112
a(lp1521
I0
aI1
aa(lp1522
I0
aI1
aaI33
aI112
a(lp1523
I0
aI1
aaI89
aI69
a(lp1524
I2
aI5
aI6
aI7
aaI113
aI94
aI89
a(lp1525
I0
aI1
aaI60
aI152
aI36
aI152
a(lp1526
I6
aaI83
a(lp1527
I3
aa(lp1528
I3
aaI70
aI36
aI152
a(lp1529
I3
aa(lp1530
I4
aa(lp1531
I4
aa(lp1532
I4
aa(lp1533
I2
aaI62
a(lp1534
I2
aa(lp1535
I2
aa(lp1536
I2
aa(lp1537
I3
aaI112
aI152
aI112
aI62
aI112
a(lp1538
I3
aa(lp1539
I3
aa(lp1540
I6
aaI60
aI60
aI36
aI62
aI152
aI62
aI62
a(lp1541
I3
aa(lp1542
I3
aa(lp1543
I3
aa(lp1544
I0
aI1
aa(lp1545
I2
aa(lp1546
I2
aa(lp1547
I2
aa(lp1548
I2
aaI182
a(lp1549
I3
aaI36
aI36
aI160
aI13
a(lp1550
I6
aa(lp1551
I3
aa(lp1552
I6
aa(lp1553
I6
aa(lp1554
I6
aa(lp1555
I6
aaI33
aI18
a(lp1556
I3
aa(lp1557
I3
aa(lp1558
I2
aa(lp1559
I3
aa(lp1560
I3
aaI97
a(lp1561
I3
aa(lp1562
I3
aa(lp1563
I3
aaI62
a(lp1564
I3
aa(lp1565
I3
aa(lp1566
I4
aa(lp1567
I0
aI1
aI2
aI3
aI4
aI5
aI6
aI7
aa(lp1568
I3
aa(lp1569
I2
aaI160
aI17
aI170
aI33
aI64
aI115
aa(lp1570
I61
aI160
aI61
aI36
aI160
a(lp1571
I3
aaI160
a(lp1572
I3
aaI152
a(lp1573
I2
aa(lp1574
I2
aa(lp1575
I2
aa(lp1576
I3
aaI21
aI142
aI60
a(lp1577
I2
aI5
aI6
aI7
aa(lp1578
I3
aI7
aa(lp1579
I3
aI7
aa(lp1580
I3
aaI149
aI9
aI33
aI152
aI160
aI152
aI21
a(lp1581
I3
aI7
aaI121
a(lp1582
I4
aaI13
aI142
a(lp1583
I0
aI1
aa(lp1584
I3
aa(lp1585
I0
aI1
aI2
aI3
aI4
aI5
aI6
aI7
aa(lp1586
I3
aI7
aa(lp1587
I3
aa(lp1588
I3
aI7
aa(lp1589
I2
aI5
aI6
aI7
aaI170
a(lp1590
I1
aI5
aI6
aaI19
a(lp1591
I0
aI1
aI5
aaI95
aI95
aI56
aI121
a(lp1592
I2
aaI94
aI94
aI152
aI152
a(lp1593
I2
aa(lp1594
I3
aI7
aa(lp1595
I3
aI7
aa(lp1596
I0
aI1
aa(lp1597
I2
aaI56
aI127
aI160
aI160
aI69
aa(lp1598
I137
aI182
aI152
a(lp1599
I3
aa(lp1600
I3
aaI95
aI152
a(lp1601
I2
aI5
aI6
aI7
aaI61
aI152
aI25
aI152
a(lp1602
I6
aa(lp1603
I0
aI1
aI2
aI3
aI4
aI5
aI6
aI7
aaI182
aI152
aI152
a(lp1604
I3
aI7
aa(lp1605
I3
aaI15
a(lp1606
I3
aaI182
aI182
a(lp1607
I0
aI1
aI5
aa(lp1608
I4
aa(lp1609
I0
aI1
aI5
aa(lp1610
I0
aI1
aI5
aaI152
aI152
aI137
aI137
aI142
aI182
a(lp1611
I4
aaI33
aI152
a(lp1612
I4
aaI152
aI182
aI161
aI62
aI152
aI152
a(lp1613
I3
aaI112
aI60
aI182
aI112
aI33
aI94
a(lp1614
I0
aI1
aaI161
aI142
aI159
a(lp1615
I1
aI5
aI6
aaI152
aI152
a(lp1616
I0
aI1
aI5
aa(lp1617
I3
aaI33
aI112
aI71
a(lp1618
I3
aa(lp1619
I0
aI1
aI2
aI3
aI4
aI5
aI6
aI7
aaI142
aa(lp1620
I60
aI112
aI60
aI69
aI60
a(lp1621
I4
aaI60
aI60
a(lp1622
I0
aI1
aa(lp1623
I6
aa(lp1624
I6
aaI60
aI111
aI60
aI60
a(lp1625
I0
aI1
aI2
aI3
aI4
aI5
aI6
aI7
aaI70
a(lp1626
I3
aaI0
aI0
a(lp1627
I2
aaI60
a(lp1628
I3
aaI152
aI152
a(lp1629
I3
aa(lp1630
I4
aa(lp1631
I3
aaI60
aI60
aI60
aI60
aI60
a(lp1632
I0
aI1
aI5
aa(lp1633
I2
aaI178
aI60
a(lp1634
I3
aaI178
a(lp1635
I3
aa(lp1636
I2
aa(lp1637
I2
aaI60
a(lp1638
I3
aa(lp1639
I3
aa(lp1640
I2
aa(lp1641
I0
aI1
aaI60
aI60
aI60
aI112
aI60
a(lp1642
I0
aI1
aI5
aa(lp1643
I0
aI1
aI5
aa(lp1644
I0
aI1
aa(lp1645
I2
aa(lp1646
I0
aI1
aI5
aa(lp1647
I0
aI1
aI5
aaI122
aI0
a(lp1648
I0
aI1
aa(lp1649
I0
aI1
aaI60
a(lp1650
I0
aI1
aaI60
aI122
aI60
aI71
aI60
aI60
a(lp1651
I3
aaI60
aI60
aI60
aI60
aI60
aI60
a(lp1652
I6
aaI60
a(lp1653
I3
aI7
aaI60
aa(lp1654
(lp1655
I0
aI1
aI2
aI3
aI4
aI5
aI6
aI7
aa(lp1656
I4
aaI0
aI152
a(lp1657
I4
aaI160
aI160
aI160
aI160
a(lp1658
I0
aI1
aI2
aI3
aI4
aI5
aI6
aI7
aaI62
aI62
a(lp1659
I3
aaI160
aI160
aI160
aI160
aI182
aI138
aI9
aI9
aI138
a(lp1660
I4
aa(lp1661
I3
aa(lp1662
I4
aaI34
a(lp1663
I4
aaI170
a(lp1664
I4
aaI86
aI62
aI62
a(lp1665
I0
aI1
aI2
aI3
aI4
aI5
aI6
aI7
aaI62
aI62
aI152
a(lp1666
I3
aaI152
aI165
aI65
aI152
aI67
aI160
aI17
aI36
aI182
aI7
aI36
aI36
aI36
aa(lp1667
I182
aI182
aI182
aI73
aI160
a(lp1668
I0
aI1
aI2
aI3
aI4
aI5
aI6
aI7
aaI160
aI111
aI111
aI152
aI112
aI152
a(lp1669
I4
aaI22
a(lp1670
I4
aaI160
a(lp1671
I3
aaI160
aI160
aI160
a(lp1672
I0
aI1
aa(lp1673
I0
aI1
aaI152
aI152
aI111
aI111
aI60
a(lp1674
I4
aaI15
aI160
aI17
aI112
aI152
a(lp1675
I3
aa(lp1676
I2
aa(lp1677
I4
aa(lp1678
I2
aaI70
aI152
aI152
aI62
aI152
aI152
a(lp1679
I0
aI1
aI2
aI3
aI4
aI5
aI6
aI7
aaI7
a(lp1680
I3
aaI44
aI182
a(lp1681
I0
aI1
aaI36
aI111
a(lp1682
I4
aaI149
aI182
aI44
a(lp1683
I3
aa(lp1684
I6
aa(lp1685
I6
aa(lp1686
I6
aaI71
a(lp1687
I6
aa(lp1688
I4
aaI136
aI181
aI182
aI33
aI170
a(lp1689
I0
aI1
aI2
aI3
aI4
aI5
aI6
aI7
aa(lp1690
I0
aI1
aI2
aI3
aI4
aI5
aI6
aI7
aa(lp1691
I0
aI1
aI2
aI3
aI4
aI5
aI6
aI7
aaI139
aa(lp1692
I33
a(lp1693
I6
aa(lp1694
I6
aa(lp1695
I2
aaI44
a(lp1696
I2
aI5
aI6
aI7
aaI109
aI112
a(lp1697
I0
aI1
aI5
aaI6
aI94
aI152
aI122
a(lp1698
I2
aaI122
aI60
a(lp1699
I2
aa(lp1700
I4
aa(lp1701
I3
aI7
aaI112
a(lp1702
I3
aaI70
aI96
aI152
aI11
a(lp1703
I0
aI1
aI2
aI3
aI4
aI5
aI6
aI7
aa(lp1704
I1
aI5
aI6
aaI112
aI69
aI182
a(lp1705
I3
aI7
aaI112
aI70
aI94
a(lp1706
I1
aI5
aI6
aaa(lp1707
(lp1708
I3
aa(lp1709
I0
aI1
aa(lp1710
I3
aa(lp1711
I0
aI1
aaI127
aI127
a(lp1712
I0
aI1
aI5
aa(lp1713
I0
aI1
aI5
aaI153
a(lp1714
I4
aa(lp1715
I0
aI1
aI2
aI3
aI4
aI5
aI6
aI7
aaI60
aI60
aI153
a(lp1716
I4
aaI160
aI160
aI70
aI33
aI70
aI127
aI162
aI0
aI0
a(lp1717
I0
aI1
aI5
aa(lp1718
I0
aI1
aa(lp1719
I6
aaI0
aI152
aI152
a(lp1720
I3
aaI152
aI15
aa(lp1721
(lp1722
I3
aaI13
a(lp1723
I3
aa(lp1724
I3
aaI13
a(lp1725
I3
aa(lp1726
I3
aaI182
aI160
a(lp1727
I3
aaI36
a(lp1728
I2
aa(lp1729
I1
aI5
aI6
aa(lp1730
I3
aaI70
a(lp1731
I3
aa(lp1732
I4
aaI142
aI170
a(lp1733
I3
aa(lp1734
I3
aaI71
aI181
a(lp1735
I4
aa(lp1736
I4
aa(lp1737
I0
aI1
aI5
aa(lp1738
I0
aI1
aI5
aaI16
a(lp1739
I3
aaI139
aI139
aI142
aI142
aI152
aI161
a(lp1740
I3
aa(lp1741
I4
aa(lp1742
I4
aa(lp1743
I3
aa(lp1744
I2
aa(lp1745
I2
aaI152
a(lp1746
I3
aa(lp1747
I4
aa(lp1748
I1
aI5
aI6
aa(lp1749
I0
aI1
aI2
aI3
aI4
aI5
aI6
aI7
aaI112
aI166
aI152
aI182
aI86
aI86
aI139
a(lp1750
I4
aa(lp1751
I3
aI7
aa(lp1752
I0
aI1
aI5
aa(lp1753
I4
aaI137
aI160
aI33
aI70
a(lp1754
I2
aaI170
a(lp1755
I4
aa(lp1756
I3
aa(lp1757
I3
aa(lp1758
I3
aa(lp1759
I3
aaa(lp1760
(lp1761
I4
aa(lp1762
I4
aa(lp1763
I4
aaI46
a(lp1764
I3
aa(lp1765
I2
aa(lp1766
I2
aa(lp1767
I3
aa(lp1768
I3
aI7
aa(lp1769
I4
aa(lp1770
I3
aaI18
aI137
aI137
a(lp1771
I6
aaI160
a(lp1772
I3
aaI182
aI33
aI33
aI167
a(lp1773
I2
aa(lp1774
I3
aa(lp1775
I3
aa(lp1776
I3
aaI117
a(lp1777
I0
aI1
aI5
aa(lp1778
I2
aa(lp1779
I0
aI1
aI2
aI3
aI4
aI5
aI6
aI7
aaI170
a(lp1780
I2
aa(lp1781
I4
aaI122
a(lp1782
I2
aa(lp1783
I2
aa(lp1784
I2
aa(lp1785
I2
aaa(lp1786
I182
a(lp1787
I3
aaI112
aI113
aI152
aI60
aI70
a(lp1788
I3
aa(lp1789
I3
aa(lp1790
I2
aI5
aI6
aI7
aaI152
a(lp1791
I4
aa(lp1792
I3
aaI121
a(lp1793
I3
aa(lp1794
I0
aI1
aI5
aaI149
aI112
aI152
a(lp1795
I0
aI1
aaI149
a(lp1796
I3
aa(lp1797
I0
aI1
aaI2
aI94
a(lp1798
I6
aa(lp1799
I3
aaI113
a(lp1800
I3
aI7
aaI152
aI69
aI33
aI69
aI60
a(lp1801
I3
aa(lp1802
I4
aa(lp1803
I3
aaI94
aI160
aI160
a(lp1804
I3
aaI6
a(lp1805
I3
aa(lp1806
I0
aI1
aI2
aI3
aI4
aI5
aI6
aI7
aa(lp1807
I3
aa(lp1808
I3
aaI152
a(lp1809
I3
aa(lp1810
I3
aa(lp1811
I3
aaI152
aI70
a(lp1812
I3
aa(lp1813
I3
aa(lp1814
I3
aa(lp1815
I4
aa(lp1816
I4
aaI152
aI152
aI96
a(lp1817
I2
aa(lp1818
I3
aaI112
aI33
a(lp1819
I3
aaI33
a(lp1820
I3
aa(lp1821
I6
aaI83
a(lp1822
I3
aa(lp1823
I3
aa(lp1824
I3
aa(lp1825
I4
aaa(lp1826
(lp1827
I0
aI1
aI5
aa(lp1828
I3
aa(lp1829
I2
aa(lp1830
I0
aI1
aa(lp1831
I2
aa(lp1832
I2
aa(lp1833
I3
aa(lp1834
I2
aa(lp1835
I0
aI1
aI2
aI3
aI4
aI5
aI6
aI7
aaI97
aI181
aI117
aI117
aI16
a(lp1836
I1
aI5
aI6
aa(lp1837
I2
aaI142
a(lp1838
I3
aI7
aaI152
a(lp1839
I3
aa(lp1840
I2
aa(lp1841
I2
aa(lp1842
I2
aa(lp1843
I2
aa(lp1844
I3
aa(lp1845
I6
aa(lp1846
I6
aaI152
a(lp1847
I3
aaI152
aI143
aI62
aI142
aI143
aI17
aI143
aI111
aI143
aI143
aI143
aI62
a(lp1848
I6
aa(lp1849
I6
aa(lp1850
I0
aI1
aaI121
a(lp1851
I0
aI1
aI5
aaI149
a(lp1852
I6
aa(lp1853
I6
aaI121
a(lp1854
I6
aa(lp1855
I2
aa(lp1856
I2
aa(lp1857
I2
aaI70
a(lp1858
I6
aa(lp1859
I6
aa(lp1860
I6
aa(lp1861
I3
aI7
aaI13
aI152
aI152
a(lp1862
I3
aaI52
a(lp1863
I3
aa(lp1864
I3
aa(lp1865
I2
aa(lp1866
I2
aa(lp1867
I2
aa(lp1868
I2
aaI94
aI152
aI60
aI182
a(lp1869
I3
aa(lp1870
I3
aa(lp1871
I3
aaI94
a(lp1872
I4
aa(lp1873
I3
aa(lp1874
I3
aa(lp1875
I3
aa(lp1876
I3
aa(lp1877
I3
aI7
aa(lp1878
I0
aI1
aI2
aI3
aI4
aI5
aI6
aI7
aa(lp1879
I0
aI1
aa(lp1880
I0
aI1
aa(lp1881
I3
aaI90
aI152
aI152
a(lp1882
I3
aa(lp1883
I3
aa(lp1884
I3
aa(lp1885
I0
aI1
aI5
aaI18
a(lp1886
I0
aI1
aaI160
aa(lp1887
I64
aI94
aI70
aI138
a(lp1888
I3
aaI170
a(lp1889
I3
aaI112
a(lp1890
I3
aaI33
aI152
a(lp1891
I3
aa(lp1892
I3
aaI60
a(lp1893
I6
aa(lp1894
I6
aa(lp1895
I3
aI7
aaI113
a(lp1896
I3
aaI111
aI121
aI33
a(lp1897
I0
aI1
aI2
aI3
aI4
aI5
aI6
aI7
aaI121
aI7
aI152
aI170
a(lp1898
I2
aa(lp1899
I3
aaI33
aI111
a(lp1900
I3
aa(lp1901
I0
aI1
aaI60
aI113
aI0
a(lp1902
I0
aI1
aaI60
aI60
a(lp1903
I3
aa(lp1904
I6
aa(lp1905
I6
aaI94
a(lp1906
I2
aI5
aI6
aI7
aa(lp1907
I4
aa(lp1908
I1
aI5
aI6
aa(lp1909
I3
aaI70
aI160
aI71
aI61
aI112
aa(lp1910
I170
aI152
aI152
aI182
a(lp1911
I1
aI5
aI6
aa(lp1912
I1
aI5
aI6
aa(lp1913
I3
aaI170
a(lp1914
I2
aI5
aI6
aI7
aa(lp1915
I0
aI1
aI2
aI3
aI4
aI5
aI6
aI7
aa(lp1916
I1
aI5
aI6
aa(lp1917
I0
aI1
aI2
aI3
aI4
aI5
aI6
aI7
aaI70
aI152
a(lp1918
I1
aI5
aI6
aaI152
aI70
aI152
aI46
aI111
a(lp1919
I3
aaI139
a(lp1920
I6
aaI111
aI152
aI78
aI46
aI90
aI70
aa(lp1921
(lp1922
I4
aaI146
aI162
aI112
aI112
aI146
a(lp1923
I3
aI7
aaI146
a(lp1924
I2
aa(lp1925
I2
aa(lp1926
I2
aI5
aI6
aI7
aaI162
a(lp1927
I0
aI1
aI2
aI3
aI4
aI5
aI6
aI7
aa(lp1928
I3
aa(lp1929
I2
aa(lp1930
I2
aaI146
aI117
aI151
a(lp1931
I7
aaI43
aa(lp1932
(lp1933
I6
aaI142
aI112
a(lp1934
I3
aa(lp1935
I3
aaI13
aI152
a(lp1936
I0
aI1
aI2
aI3
aI4
aI5
aI6
aI7
aa(lp1937
I4
aaI121
a(lp1938
I0
aI1
aaI90
a(lp1939
I0
aI1
aI2
aI3
aI4
aI5
aI6
aI7
aa(lp1940
I3
aaI2
a(lp1941
I3
aI7
aa(lp1942
I4
aa(lp1943
I3
aaI89
a(lp1944
I3
aa(lp1945
I3
aaI160
a(lp1946
I2
aa(lp1947
I3
aaI0
aI142
aI17
aI112
a(lp1948
I0
aI1
aI2
aI3
aI4
aI5
aI6
aI7
aaI152
a(lp1949
I0
aI1
aa(lp1950
I3
aa(lp1951
I3
aa(lp1952
I4
aa(lp1953
I0
aI1
aI2
aI3
aI4
aI5
aI6
aI7
aaI117
a(lp1954
I4
aaI112
aI112
a(lp1955
I3
aI7
aa(lp1956
I3
aa(lp1957
I3
aa(lp1958
I3
aa(lp1959
I3
aa(lp1960
I3
aa(lp1961
I3
aa(lp1962
I3
aaI90
a(lp1963
I3
aaI112
aI0
a(lp1964
I2
aaI152
aI19
aI19
aI19
a(lp1965
I0
aI1
aI5
aaI112
a(lp1966
I3
aI7
aaI19
aI19
aI19
aI19
aI19
a(lp1967
I3
aaI19
aI19
a(lp1968
I2
aa(lp1969
I3
aa(lp1970
I4
aaa(lp1971
I16
aI16
aI111
a(lp1972
I6
aaI112
aI95
a(lp1973
I0
aI1
aI5
aaI121
aI152
aI16
aI13
a(lp1974
I0
aI1
aaI152
aI152
a(lp1975
I2
aaI160
aI69
a(lp1976
I0
aI1
aaI69
aI69
aI121
a(lp1977
I4
aaI69
aI161
aI161
aI121
aI95
aI60
aI152
a(lp1978
I3
aaI95
aI13
aI60
aI112
aI60
a(lp1979
I4
aaI60
a(lp1980
I6
aaI71
aI134
aI46
a(lp1981
I4
aaI61
a(lp1982
I6
aa(lp1983
I6
aaI95
aI149
a(lp1984
I0
aI1
aaI124
aI137
a(lp1985
I3
aa(lp1986
I3
aaI152
aI160
aI160
a(lp1987
I0
aI1
aI5
aa(lp1988
I0
aI1
aa(lp1989
I0
aI1
aaI69
a(lp1990
I3
aaI121
aI70
a(lp1991
I3
aaI122
aI160
aI152
aI69
a(lp1992
I0
aI1
aaI13
aI112
aI60
aI95
aI95
a(lp1993
I3
aI7
aa(lp1994
I3
aaI122
aI16
aI115
a(lp1995
I0
aI1
aa(lp1996
I0
aI1
aaI115
aI152
a(lp1997
I4
aa(lp1998
I0
aI1
aa(lp1999
I0
aI1
aaI152
aI149
aI160
aI160
aI122
a(lp2000
I3
aI7
aa(lp2001
I6
aa(lp2002
I0
aI1
aI2
aI3
aI4
aI5
aI6
aI7
aaI113
a(lp2003
I6
aaI161
aI161
aI13
a(lp2004
I3
aaI71
aI117
a(lp2005
I3
aaI182
aI182
aI174
a(lp2006
I6
aa(lp2007
I6
aa(lp2008
I6
aaI137
aI13
aI19
aI19
aI13
aI19
aI69
aI69
aI69
aI69
aI69
aI160
a(lp2009
I3
aaI149
aI122
a(lp2010
I4
aa(lp2011
I4
aaI69
a(lp2012
I0
aI1
aaI69
a(lp2013
I0
aI1
aaI71
aI71
a(lp2014
I3
aaI65
a(lp2015
I3
aaI71
aI112
aI138
aI115
aI121
a(lp2016
I6
aa(lp2017
I6
aaa(lp2018
(lp2019
I2
aaI71
aI71
a(lp2020
I3
aa(lp2021
I4
aa(lp2022
I3
aa(lp2023
I3
aI7
aaI61
aI69
aI16
a(lp2024
I3
aI7
aaI124
aI182
a(lp2025
I3
aa(lp2026
I3
aa(lp2027
I3
aaI138
a(lp2028
I3
aa(lp2029
I4
aaI138
aI36
a(lp2030
I2
aaI61
aI61
a(lp2031
I3
aa(lp2032
I3
aaI112
aI181
aI94
aI181
a(lp2033
I4
aa(lp2034
I3
aI7
aaI152
a(lp2035
I2
aaI61
aI181
aI152
aI112
a(lp2036
I0
aI1
aa(lp2037
I3
aI7
aa(lp2038
I3
aI7
aaI16
a(lp2039
I3
aaI182
aI182
a(lp2040
I3
aa(lp2041
I4
aa(lp2042
I3
aaI60
a(lp2043
I3
aI7
aa(lp2044
I3
aa(lp2045
I3
aaI16
aI139
aI161
aI122
a(lp2046
I3
aa(lp2047
I3
aaI101
aI71
aI71
aI138
aI122
aI122
aI70
aI70
aI70
aI70
a(lp2048
I3
aa(lp2049
I3
aaI152
aI152
a(lp2050
I4
aa(lp2051
I0
aI1
aI2
aI3
aI4
aI5
aI6
aI7
aaI152
aI61
a(lp2052
I3
aaI139
aI70
aI60
a(lp2053
I3
aaI60
a(lp2054
I0
aI1
aI5
aaI152
aI61
aI113
a(lp2055
I4
aa(lp2056
I3
aaI152
a(lp2057
I3
aaI16
aI52
a(lp2058
I0
aI1
aI5
aaI69
aI70
aI70
aI152
a(lp2059
I3
aa(lp2060
I3
aaI122
aI122
a(lp2061
I4
aaI34
a(lp2062
I6
aaI33
aI152
aI70
aI70
a(lp2063
I2
aa(lp2064
I3
aaI61
aI61
aI61
a(lp2065
I3
aa(lp2066
I3
aaI41
a(lp2067
I2
aaa(lp2068
I21
a(lp2069
I0
aI1
aI2
aI3
aI4
aI5
aI6
aI7
aa(lp2070
I3
aa(lp2071
I0
aI1
aI2
aI3
aI4
aI5
aI6
aI7
aa(lp2072
I3
aa(lp2073
I6
aa(lp2074
I3
aaI152
a(lp2075
I3
aa(lp2076
I3
aa(lp2077
I0
aI1
aI5
aaI137
a(lp2078
I3
aI7
aa(lp2079
I4
aa(lp2080
I3
aI7
aaI34
aI34
aI152
a(lp2081
I4
aa(lp2082
I4
aa(lp2083
I0
aI1
aI2
aI3
aI4
aI5
aI6
aI7
aa(lp2084
I3
aa(lp2085
I3
aa(lp2086
I0
aI1
aI2
aI3
aI4
aI5
aI6
aI7
aaI181
a(lp2087
I4
aa(lp2088
I4
aaI112
a(lp2089
I3
aaI152
aI61
aa(lp2090
I112
aI142
a(lp2091
I6
aaI95
a(lp2092
I6
aaI160
a(lp2093
I3
aa(lp2094
I6
aaI95
aI95
aI95
aI34
a(lp2095
I6
aaI95
aI95
aI115
aI34
a(lp2096
I0
aI1
aI2
aI3
aI4
aI5
aI6
aI7
aaI70
a(lp2097
I0
aI1
aI2
aI3
aI4
aI5
aI6
aI7
aaI161
aI13
aI60
aI60
aI112
a(lp2098
I0
aI1
aI5
aaI71
aI117
a(lp2099
I3
aaI111
aI137
aI58
aI142
aI17
a(lp2100
I3
aaI16
aI121
aI121
a(lp2101
I0
aI1
aa(lp2102
I1
aI5
aI6
aa(lp2103
I6
aa(lp2104
I6
aa(lp2105
I6
aa(lp2106
I6
aa(lp2107
I6
aa(lp2108
I6
aaI115
aI71
aI60
aI70
a(lp2109
I3
aaI60
a(lp2110
I3
aa(lp2111
I0
aI1
aI2
aI3
aI4
aI5
aI6
aI7
aa(lp2112
I6
aa(lp2113
I3
aaI44
aI112
a(lp2114
I3
aaI115
a(lp2115
I4
aa(lp2116
I4
aa(lp2117
I3
aaI94
a(lp2118
I6
aaI35
aI142
aI71
a(lp2119
I6
aa(lp2120
I6
aa(lp2121
I3
aaI181
aI60
a(lp2122
I6
aa(lp2123
I6
aaI142
a(lp2124
I6
aa(lp2125
I6
aa(lp2126
I6
aa(lp2127
I3
aa(lp2128
I4
aa(lp2129
I6
aaI152
aI113
aI112
a(lp2130
I4
aaI112
a(lp2131
I3
aI7
aa(lp2132
I0
aI1
aI2
aI3
aI4
aI5
aI6
aI7
aa(lp2133
I0
aI1
aI2
aI3
aI4
aI5
aI6
aI7
aa(lp2134
I6
aaI19
aI19
aI138
a(lp2135
I1
aI5
aI6
aaI61
aI115
aI115
a(lp2136
I1
aI5
aI6
aa(lp2137
I4
aa(lp2138
I4
aa(lp2139
I4
aa(lp2140
I6
aa(lp2141
I6
aaI95
aI95
aI95
aI95
aI60
aI95
aI60
aI95
aI95
aI95
aI95
aI95
aI95
aI95
aI95
aI95
aI95
aI19
a(lp2142
I6
aa(lp2143
I0
aI1
aI2
aI3
aI4
aI5
aI6
aI7
aaI60
aI60
aI115
a(lp2144
I4
aaI95
aI95
aI95
aI60
aI111
a(lp2145
I1
aI5
aI6
aaI121
aI121
aI115
aI115
aI60
a(lp2146
I3
aaI60
aa(lp2147
(lp2148
I3
aa(lp2149
I3
aaI36
aI6
a(lp2150
I3
aa(lp2151
I6
aa(lp2152
I3
aaI149
a(lp2153
I0
aI1
aI5
aaI24
a(lp2154
I3
aaI112
a(lp2155
I4
aaI152
a(lp2156
I3
aa(lp2157
I2
aI5
aI6
aI7
aa(lp2158
I1
aI5
aI6
aa(lp2159
I0
aI1
aI2
aI3
aI4
aI5
aI6
aI7
aaI161
a(lp2160
I3
aaI111
aI70
aa(lp2161
(lp2162
I3
aa(lp2163
I3
aaI70
aI69
a(lp2164
I2
aaI69
aI36
a(lp2165
I3
aa(lp2166
I4
aa(lp2167
I3
aa(lp2168
I2
aa(lp2169
I2
aaI111
aI36
aI149
a(lp2170
I3
aa(lp2171
I3
aa(lp2172
I4
aa(lp2173
I0
aI1
aaI162
a(lp2174
I3
aaI36
aI24
aI94
a(lp2175
I0
aI1
aI5
aaI70
aI94
aI35
a(lp2176
I0
aI1
aI5
aaI62
aI112
aI160
aI24
aI76
aI117
a(lp2177
I3
aaI149
a(lp2178
I3
aaI94
a(lp2179
I0
aI1
aaI69
aI69
a(lp2180
I0
aI1
aaI69
aI70
aI112
a(lp2181
I0
aI1
aI5
aa(lp2182
I6
aaI69
a(lp2183
I6
aa(lp2184
I6
aaI70
aI69
aI181
a(lp2185
I3
aaI70
aI137
a(lp2186
I0
aI1
aaI64
a(lp2187
I3
aaI22
a(lp2188
I3
aa(lp2189
I3
aaI112
a(lp2190
I3
aaI21
aI143
a(lp2191
I0
aI1
aI2
aI3
aI4
aI5
aI6
aI7
aa(lp2192
I0
aI1
aaI94
a(lp2193
I3
aaI170
a(lp2194
I3
aaI94
aI139
aI112
a(lp2195
I4
aaI117
aa(lp2196
I143
a(lp2197
I3
aaI152
a(lp2198
I3
aaI111
a(lp2199
I0
aI1
aI2
aI3
aI4
aI5
aI6
aI7
aa(lp2200
I2
aa(lp2201
I2
aaI182
aI112
a(lp2202
I3
aaI17
aI138
a(lp2203
I3
aaI95
aI95
aI62
aI111
a(lp2204
I4
aaI170
a(lp2205
I6
aaI7
aI138
aI18
a(lp2206
I2
aaI70
aI90
aI33
aI90
a(lp2207
I4
aa(lp2208
I3
aa(lp2209
I4
aa(lp2210
I0
aI1
aa(lp2211
I0
aI1
aI5
aa(lp2212
I0
aI1
aaI70
a(lp2213
I6
aaI70
a(lp2214
I6
aaI111
aI60
a(lp2215
I3
aa(lp2216
I3
aa(lp2217
I3
aa(lp2218
I3
aa(lp2219
I6
aa(lp2220
I6
aaI13
a(lp2221
I3
aaI152
a(lp2222
I0
aI1
aa(lp2223
I0
aI1
aaI143
aI13
aI13
a(lp2224
I4
aaI137
aI152
aI152
a(lp2225
I3
aa(lp2226
I3
aaI127
aI182
aI143
a(lp2227
I3
aa(lp2228
I4
aa(lp2229
I0
aI1
aI2
aI3
aI4
aI5
aI6
aI7
aa(lp2230
I3
aaI61
a(lp2231
I6
aaI138
a(lp2232
I6
aaI95
aI95
aI95
aI95
a(lp2233
I0
aI1
aaI160
aI138
aI152
aI152
aI159
a(lp2234
I4
aaI138
a(lp2235
I3
aa(lp2236
I3
aaI112
aI152
aI152
aI18
aI44
aI44
a(lp2237
I3
aa(lp2238
I3
aa(lp2239
I0
aI1
aaI138
a(lp2240
I0
aI1
aI2
aI3
aI4
aI5
aI6
aI7
aaI159
aI182
aI182
a(lp2241
I4
aa(lp2242
I3
aaa(lp2243
I94
aI94
a(lp2244
I1
aI5
aI6
aaI152
a(lp2245
I3
aaI64
a(lp2246
I3
aaI18
aI36
a(lp2247
I3
aaI160
aI36
aI36
a(lp2248
I3
aaI64
aI9
a(lp2249
I0
aI1
aI5
aa(lp2250
I0
aI1
aI5
aa(lp2251
I0
aI1
aI5
aaI149
aI149
aI122
a(lp2252
I2
aI5
aI6
aI7
aaI36
aI15
aI36
aI36
aI36
aI36
aI36
a(lp2253
I3
aa(lp2254
I2
aa(lp2255
I3
aa(lp2256
I2
aa(lp2257
I0
aI1
aI5
aa(lp2258
I0
aI1
aI5
aa(lp2259
I0
aI1
aI5
aaI95
aI95
aI95
aI95
aI95
aI95
aI95
aI95
aI95
aI95
aI95
aI95
aI95
aI95
aI95
aI112
aI19
aI112
a(lp2260
I3
aa(lp2261
I3
aa(lp2262
I0
aI1
aI2
aI3
aI4
aI5
aI6
aI7
aa(lp2263
I3
aa(lp2264
I3
aa(lp2265
I3
aa(lp2266
I2
aa(lp2267
I3
aa(lp2268
I0
aI1
aa(lp2269
I2
aaI54
a(lp2270
I2
aa(lp2271
I0
aI1
aI5
aa(lp2272
I0
aI1
aI5
aa(lp2273
I0
aI1
aI5
aaa(lp2274
I112
aI152
aI70
a(lp2275
I0
aI1
aI2
aI3
aI4
aI5
aI6
aI7
aaI94
a(lp2276
I1
aI5
aI6
aaI94
aI160
a(lp2277
I0
aI1
aI2
aI3
aI4
aI5
aI6
aI7
aaI94
a(lp2278
I3
aI7
aa(lp2279
I4
aa(lp2280
I3
aI7
aaI33
a(lp2281
I4
aa(lp2282
I4
aaI160
aI160
aI94
aI153
a(lp2283
I4
aaI153
a(lp2284
I0
aI1
aI2
aI3
aI4
aI5
aI6
aI7
aaI53
aI94
aI94
aI94
aI96
a(lp2285
I0
aI1
aI2
aI3
aI4
aI5
aI6
aI7
aaI94
a(lp2286
I6
aaI94
aI61
aI95
aI95
a(lp2287
I6
aaI95
aI95
a(lp2288
I6
aaI94
a(lp2289
I4
aa(lp2290
I4
aaI94
aI94
aI160
aI94
aI94
aa(lp2291
(lp2292
I2
aa(lp2293
I2
aa(lp2294
I3
aI7
aa(lp2295
I3
aaI60
a(lp2296
I0
aI1
aI2
aI3
aI4
aI5
aI6
aI7
aa(lp2297
I2
aI5
aI6
aI7
aaI121
a(lp2298
I1
aI5
aI6
aaI62
aI152
aI62
a(lp2299
I3
aaI60
a(lp2300
I3
aaI160
aI160
a(lp2301
I3
aI7
aaI152
a(lp2302
I6
aaI9
aI9
aI121
aI17
aa(lp2303
(lp2304
I4
aa(lp2305
I3
aaI152
a(lp2306
I4
aaI181
aI181
a(lp2307
I3
aa(lp2308
I3
aa(lp2309
I0
aI1
aa(lp2310
I0
aI1
aa(lp2311
I3
aa(lp2312
I4
aa(lp2313
I4
aa(lp2314
I3
aI7
aaI113
a(lp2315
I4
aa(lp2316
I3
aI7
aaI96
a(lp2317
I3
aa(lp2318
I0
aI1
aI2
aI3
aI4
aI5
aI6
aI7
aaI121
aI121
aI121
a(lp2319
I3
aaa(lp2320
(lp2321
I3
aaI94
a(lp2322
I2
aaI178
aI160
a(lp2323
I0
aI1
aI2
aI3
aI4
aI5
aI6
aI7
aa(lp2324
I4
aaI86
a(lp2325
I0
aI1
aI5
aa(lp2326
I3
aa(lp2327
I0
aI1
aI5
aaI111
aI112
aI112
aI112
aI111
aI149
aI160
aI9
aI139
aI149
aI61
aI18
aI61
aI152
aI70
aI122
aI22
aI60
a(lp2328
I6
aaI112
a(lp2329
I2
aaI90
aI112
aI90
aI112
aI112
aI70
aI90
aI112
aI152
aI70
aI112
aI70
aI152
aI112
aI43
a(lp2330
I3
aa(lp2331
I3
aa(lp2332
I4
aaI33
aI33
aI112
aI90
aI94
aI70
aI70
aI112
aI160
aI160
aI86
a(lp2333
I0
aI1
aI5
aa(lp2334
I0
aI1
aI5
aaI21
aI70
aI17
a(lp2335
I0
aI1
aI5
aa(lp2336
I3
aa(lp2337
I3
aa(lp2338
I3
aaI94
aI160
a(lp2339
I3
aaI149
aI69
aI69
aI69
aI95
aI94
aI69
a(lp2340
I0
aI1
aI5
aaI138
a(lp2341
I0
aI1
aaI122
a(lp2342
I4
aaI70
a(lp2343
I3
aaI19
aI19
aI18
aI152
aI152
a(lp2344
I3
aaI60
aI112
a(lp2345
I3
aaI112
aI90
aI111
aI112
aI152
aI182
aI182
aI70
aI60
aI70
aI70
aI18
aI70
aI60
aI95
aI121
aI121
aI138
aI121
aI121
aI60
aI149
aI149
a(lp2346
I3
aI7
aa(lp2347
I0
aI1
aI2
aI3
aI4
aI5
aI6
aI7
aaI149
a(lp2348
I6
aaI81
aI33
aI181
a(lp2349
I3
aaI81
a(lp2350
I0
aI1
aaI182
aI86
aI182
a(lp2351
I3
aaI70
aI70
aI90
aI96
aI160
aI160
aI83
aI70
aI69
aI182
aI34
aI161
aI178
aI69
a(lp2352
I6
aaI34
aI182
a(lp2353
I6
aaI111
aI182
aI69
a(lp2354
I6
aaI178
a(lp2355
I3
aaI70
a(lp2356
I3
aa(lp2357
I0
aI1
aa(lp2358
I0
aI1
aa(lp2359
I0
aI1
aaa(lp2360
(lp2361
I3
aa(lp2362
I0
aI1
aI5
aaI134
a(lp2363
I4
aaI121
a(lp2364
I3
aI7
aaI152
a(lp2365
I3
aa(lp2366
I3
aa(lp2367
I0
aI1
aI2
aI3
aI4
aI5
aI6
aI7
aaI121
a(lp2368
I1
aI5
aI6
aaI94
aI69
a(lp2369
I6
aaI33
a(lp2370
I1
aI5
aI6
aaI61
a(lp2371
I1
aI5
aI6
aaI94
a(lp2372
I6
aaI152
a(lp2373
I6
aaI17
aI70
a(lp2374
I3
aI7
aa(lp2375
I2
aI5
aI6
aI7
aaI95
aI61
aI90
aI90
aI112
a(lp2376
I0
aI1
aI2
aI3
aI4
aI5
aI6
aI7
aa(lp2377
I1
aI5
aI6
aaI160
aI70
aI142
aI181
a(lp2378
I2
aaI13
aI90
aI61
aI17
aI152
a(lp2379
I2
aI5
aI6
aI7
aaI152
aI152
a(lp2380
I1
aI5
aI6
aaI19
aI19
aI19
aI69
aI181
aI70
aI13
a(lp2381
I4
aa(lp2382
I3
aI7
aaI69
aI83
aI69
aa(lp2383
(lp2384
I0
aI1
aa(lp2385
I6
aaI152
aI112
a(lp2386
I3
aI7
aa(lp2387
I6
aaI13
aI22
a(lp2388
I0
aI1
aaI112
aI13
a(lp2389
I6
aaI13
a(lp2390
I6
aaI149
a(lp2391
I0
aI1
aaI69
aI182
aI182
a(lp2392
I3
aaI152
aI22
aI13
aI13
a(lp2393
I6
aa(lp2394
I0
aI1
aa(lp2395
I3
aI7
aa(lp2396
I0
aI1
aI2
aI3
aI4
aI5
aI6
aI7
aaI182
a(lp2397
I0
aI1
aI5
aa(lp2398
I0
aI1
aI5
aaI152
aI113
a(lp2399
I6
aa(lp2400
I0
aI1
aaI94
aI13
aI94
aI142
a(lp2401
I6
aaI22
a(lp2402
I0
aI1
aaI112
aI13
aI13
aa(lp2403
(lp2404
I2
aI5
aI6
aI7
aa(lp2405
I3
aI7
aa(lp2406
I0
aI1
aaI111
aI13
a(lp2407
I2
aI5
aI6
aI7
aaI16
aI13
a(lp2408
I2
aI5
aI6
aI7
aaI13
a(lp2409
I2
aI5
aI6
aI7
aa(lp2410
I0
aI1
aI2
aI3
aI4
aI5
aI6
aI7
aaI152
a(lp2411
I1
aI5
aI6
aa(lp2412
I1
aI5
aI6
aa(lp2413
I1
aI5
aI6
aaI70
aI117
aI152
aI35
aI35
aI35
aI35
a(lp2414
I0
aI1
aI5
aa(lp2415
I0
aI1
aI5
aaI152
aI152
aI15
aI15
aI25
aI149
aa(lp2416
I182
a(lp2417
I3
aa(lp2418
I3
aaI111
aI111
a(lp2419
I0
aI1
aa(lp2420
I3
aa(lp2421
I0
aI1
aa(lp2422
I0
aI1
aa(lp2423
I3
aaI152
aI152
aI33
aI152
aI13
a(lp2424
I3
aaI111
aI121
a(lp2425
I4
aaI181
aI181
a(lp2426
I4
aa(lp2427
I4
aa(lp2428
I3
aaI152
aI16
a(lp2429
I6
aaI17
aI152
aI149
a(lp2430
I4
aa(lp2431
I4
aaI182
aI149
a(lp2432
I0
aI1
aa(lp2433
I3
aa(lp2434
I3
aaI70
aI70
a(lp2435
I0
aI1
aI2
aI3
aI4
aI5
aI6
aI7
aa(lp2436
I0
aI1
aI2
aI3
aI4
aI5
aI6
aI7
aaI114
aa(lp2437
(lp2438
I4
aa(lp2439
I2
aaI112
a(lp2440
I4
aa(lp2441
I2
aI5
aI6
aI7
aa(lp2442
I3
aI7
aa(lp2443
I3
aaI112
aI112
aI22
a(lp2444
I4
aaI138
a(lp2445
I3
aa(lp2446
I6
aa(lp2447
I6
aa(lp2448
I0
aI1
aI2
aI3
aI4
aI5
aI6
aI7
aa(lp2449
I2
aa(lp2450
I3
aa(lp2451
I3
aa(lp2452
I3
aa(lp2453
I3
aa(lp2454
I4
aaI152
aI7
aI112
a(lp2455
I3
aaI70
a(lp2456
I1
aI5
aI6
aa(lp2457
I4
aa(lp2458
I3
aa(lp2459
I2
aa(lp2460
I3
aa(lp2461
I3
aaI122
a(lp2462
I3
aaI122
aI122
a(lp2463
I2
aaI149
aI149
aa(lp2464
(lp2465
I6
aaI112
a(lp2466
I6
aa(lp2467
I3
aa(lp2468
I3
aa(lp2469
I2
aI5
aI6
aI7
aaI36
a(lp2470
I3
aI7
aaI152
a(lp2471
I3
aa(lp2472
I6
aa(lp2473
I3
aaI152
aI152
aI16
aI24
a(lp2474
I3
aaI0
aI24
aI22
aI122
a(lp2475
I2
aa(lp2476
I2
aa(lp2477
I3
aa(lp2478
I3
aa(lp2479
I2
aaI152
aI36
aI34
aI21
a(lp2480
I1
aI5
aI6
aa(lp2481
I0
aI1
aI2
aI3
aI4
aI5
aI6
aI7
aaa(lp2482
I111
a(lp2483
I3
aI7
aa(lp2484
I2
aa(lp2485
I6
aa(lp2486
I3
aa(lp2487
I4
aaI94
aI94
a(lp2488
I2
aa(lp2489
I3
aa(lp2490
I3
aa(lp2491
I3
aa(lp2492
I2
aa(lp2493
I3
aaI33
a(lp2494
I6
aa(lp2495
I2
aa(lp2496
I2
aa(lp2497
I3
aI7
aa(lp2498
I0
aI1
aI2
aI3
aI4
aI5
aI6
aI7
aaI33
a(lp2499
I3
aaI33
a(lp2500
I1
aI5
aI6
aaI33
aI160
a(lp2501
I3
aa(lp2502
I3
aaI121
aI44
aI152
aI152
aI69
aI160
aI111
a(lp2503
I3
aa(lp2504
I1
aI5
aI6
aa(lp2505
I3
aa(lp2506
I3
aaI111
aI181
aI111
a(lp2507
I0
aI1
aI2
aI3
aI4
aI5
aI6
aI7
aa(lp2508
I4
aa(lp2509
I3
aI7
aaI33
a(lp2510
I3
aI7
aa(lp2511
I3
aI7
aaI70
a(lp2512
I3
aaI181
a(lp2513
I3
aaI117
a(lp2514
I0
aI1
aI5
aa(lp2515
I2
aa(lp2516
I3
aa(lp2517
I3
aaI21
aI124
aI124
aI152
aI152
aI149
aI56
aI56
a(lp2518
I0
aI1
aa(lp2519
I0
aI1
aI5
aa(lp2520
I0
aI1
aI5
aa(lp2521
I2
aa(lp2522
I3
aI7
aaI112
aI33
a(lp2523
I2
aI5
aI6
aI7
aaI33
aI33
aa(lp2524
(lp2525
I0
aI1
aaI94
a(lp2526
I0
aI1
aaI152
aI152
aI114
aI152
a(lp2527
I0
aI1
aI2
aI3
aI4
aI5
aI6
aI7
aaI33
a(lp2528
I0
aI1
aI2
aI3
aI4
aI5
aI6
aI7
aa(lp2529
I3
aaI170
aI182
a(lp2530
I3
aa(lp2531
I0
aI1
aI2
aI3
aI4
aI5
aI6
aI7
aa(lp2532
I3
aI7
aa(lp2533
I0
aI1
aI2
aI3
aI4
aI5
aI6
aI7
aa(lp2534
I0
aI1
aI2
aI3
aI4
aI5
aI6
aI7
aa(lp2535
I0
aI1
aI2
aI3
aI4
aI5
aI6
aI7
aaI111
a(lp2536
I0
aI1
aa(lp2537
I0
aI1
aI5
aa(lp2538
I4
aa(lp2539
I2
aI5
aI6
aI7
aa(lp2540
I4
aaI113
a(lp2541
I0
aI1
aa(lp2542
I3
aa(lp2543
I3
aa(lp2544
I3
aa(lp2545
I6
aaI22
aI134
aI182
aI182
aI114
aI152
aI17
aI17
a(lp2546
I2
aaI117
aI21
a(lp2547
I0
aI1
aaI17
aI152
aI62
aI152
aI127
aI15
aI70
aa(lp2548
(lp2549
I2
aa(lp2550
I3
aa(lp2551
I3
aa(lp2552
I3
aa(lp2553
I7
aa(lp2554
I6
aa(lp2555
I3
aaI182
a(lp2556
I4
aa(lp2557
I3
aaI152
a(lp2558
I0
aI1
aI2
aI3
aI4
aI5
aI6
aI7
aa(lp2559
I4
aaI170
a(lp2560
I6
aa(lp2561
I2
aI5
aI6
aI7
aa(lp2562
I3
aI7
aa(lp2563
I3
aa(lp2564
I2
aa(lp2565
I2
aa(lp2566
I3
aaI170
aI170
aI78
a(lp2567
I3
aa(lp2568
I3
aI7
aaI170
aI152
aI9
a(lp2569
I2
aaI58
aI52
aI131
a(lp2570
I3
aa(lp2571
I4
aa(lp2572
I3
aa(lp2573
I2
aaI78
a(lp2574
I3
aaI78
a(lp2575
I3
aaI182
a(lp2576
I2
aa(lp2577
I3
aa(lp2578
I2
aa(lp2579
I2
aaI90
aI60
aI70
aI78
aI121
a(lp2580
I3
aI7
aaI138
aI58
aI94
a(lp2581
I3
aa(lp2582
I3
aaI94
aI131
a(lp2583
I4
aaI78
aI153
a(lp2584
I3
aa(lp2585
I3
aa(lp2586
I3
aaa(lp2587
I70
a(lp2588
I3
aaI160
aI19
aI160
a(lp2589
I3
aaI160
aI61
aI34
a(lp2590
I6
aaI33
aI34
aI134
a(lp2591
I3
aa(lp2592
I3
aI7
aaI19
aI19
a(lp2593
I6
aaI17
a(lp2594
I6
aa(lp2595
I6
aa(lp2596
I6
aaI83
aI70
a(lp2597
I6
aaI152
aI178
aI163
aI152
aI152
aI70
aI152
aI34
aI152
aI70
aI61
aI34
aI152
aI34
aI122
a(lp2598
I4
aaI139
aI70
aI34
a(lp2599
I1
aI5
aI6
aaI113
aI70
aI70
a(lp2600
I3
aa(lp2601
I6
aa(lp2602
I6
aaI149
aI152
aI112
aI6
aI112
aI112
aI21
aI178
aI152
aI21
aI178
a(lp2603
I6
aa(lp2604
I6
aa(lp2605
I6
aa(lp2606
I6
aaI83
aI34
a(lp2607
I0
aI1
aI2
aI3
aI4
aI5
aI6
aI7
aaI34
aI94
aI94
a(lp2608
I3
aI7
aaI152
aI61
aI113
aI160
aI152
a(lp2609
I6
aaI34
a(lp2610
I6
aa(lp2611
I2
aa(lp2612
I2
aa(lp2613
I3
aaI34
aI149
aI149
aI149
aI0
aI0
aI61
aI70
aI60
aI178
a(lp2614
I3
aa(lp2615
I3
aaI134
aI6
a(lp2616
I3
aa(lp2617
I3
aa(lp2618
I3
aaI19
aI71
aI36
aI19
a(lp2619
I3
aaI181
aI181
a(lp2620
I6
aaI94
aI19
aI19
aI160
aI160
aI160
aI52
aI160
aI160
aI70
aI61
aI112
aI60
a(lp2621
I2
aI5
aI6
aI7
aaI152
aI170
a(lp2622
I4
aaI182
a(lp2623
I4
aaI182
aI95
aI17
a(lp2624
I0
aI1
aI2
aI3
aI4
aI5
aI6
aI7
aa(lp2625
I4
aaI160
a(lp2626
I4
aa(lp2627
I1
aI5
aI6
aaI170
a(lp2628
I4
aa(lp2629
I3
aa(lp2630
I4
aaI94
aI94
aa(lp2631
(lp2632
I2
aaI2
a(lp2633
I4
aa(lp2634
I3
aa(lp2635
I3
aa(lp2636
I3
aI7
aa(lp2637
I4
aaI111
aI94
aI112
aI137
aI117
aI170
a(lp2638
I0
aI1
aI2
aI3
aI4
aI5
aI6
aI7
aa(lp2639
I2
aa(lp2640
I3
aaI70
aI137
aI149
aI9
aI149
aI9
aI19
a(lp2641
I4
aaI159
aI36
a(lp2642
I3
aaI70
aI70
aI61
aI36
aI112
a(lp2643
I3
aI7
aaI113
aI182
aI70
aI70
aI94
aI25
a(lp2644
I3
aaI61
aI21
aI60
aI149
a(lp2645
I3
aaI61
a(lp2646
I3
aI7
aa(lp2647
I3
aI7
aaI70
aI70
aI90
aI152
aI152
aI152
aI61
aI113
aI160
aI112
a(lp2648
I4
aa(lp2649
I4
aaI139
aI21
aI181
aI70
a(lp2650
I3
aaI112
aI112
aa(lp2651
I62
aI70
aI181
a(lp2652
I0
aI1
aI5
aaI70
aI121
aI70
a(lp2653
I4
aaI70
a(lp2654
I4
aaI160
aI15
aI15
a(lp2655
I2
aaI28
a(lp2656
I3
aa(lp2657
I7
aaI149
a(lp2658
I3
aa(lp2659
I0
aI1
aI5
aaI181
a(lp2660
I0
aI1
aI5
aaI181
aI152
a(lp2661
I4
aa(lp2662
I4
aa(lp2663
I4
aa(lp2664
I4
aaI153
a(lp2665
I4
aaI121
a(lp2666
I0
aI1
aI2
aI3
aI4
aI5
aI6
aI7
aaI152
a(lp2667
I4
aaI152
aI33
aI122
aI114
aI15
aI112
a(lp2668
I3
aa(lp2669
I3
aa(lp2670
I3
aaI111
a(lp2671
I3
aaI149
aI143
aI149
a(lp2672
I4
aaI108
aI112
a(lp2673
I4
aa(lp2674
I2
aa(lp2675
I3
aa(lp2676
I4
aaI112
a(lp2677
I3
aa(lp2678
I4
aa(lp2679
I0
aI1
aI2
aI3
aI4
aI5
aI6
aI7
aaI152
a(lp2680
I3
aaI33
aI33
aI33
aI13
aI181
aI181
aI181
a(lp2681
I0
aI1
aI2
aI3
aI4
aI5
aI6
aI7
aaI70
aI69
a(lp2682
I3
aa(lp2683
I3
aa(lp2684
I4
aa(lp2685
I3
aI7
aa(lp2686
I4
aa(lp2687
I0
aI1
aI2
aI3
aI4
aI5
aI6
aI7
aa(lp2688
I1
aI5
aI6
aa(lp2689
I1
aI5
aI6
aa(lp2690
I3
aaI127
aI127
aI138
aI122
aI112
a(lp2691
I2
aI5
aI6
aI7
aa(lp2692
I0
aI1
aI2
aI3
aI4
aI5
aI6
aI7
aa(lp2693
I3
aI7
aa(lp2694
I3
aI7
aa(lp2695
I0
aI1
aI2
aI3
aI4
aI5
aI6
aI7
aa(lp2696
I3
aI7
aaI9
aI70
aI70
aI70
aI70
aI70
a(lp2697
I3
aI7
aa(lp2698
I3
aI7
aa(lp2699
I3
aaI181
aI181
a(lp2700
I3
aaI36
a(lp2701
I3
aa(lp2702
I3
aaI111
a(lp2703
I2
aI5
aI6
aI7
aaI19
aI19
aI112
aI112
a(lp2704
I2
aI5
aI6
aI7
aaI44
aI152
aI139
aI70
aI70
aa(lp2705
I152
aI70
aI152
a(lp2706
I0
aI1
aaI152
aI152
aI2
aI33
aI70
aI61
a(lp2707
I3
aa(lp2708
I3
aaI70
a(lp2709
I0
aI1
aa(lp2710
I3
aaI111
aI160
a(lp2711
I3
aaI16
a(lp2712
I0
aI1
aI5
aa(lp2713
I0
aI1
aI2
aI3
aI4
aI5
aI6
aI7
aaI19
a(lp2714
I6
aa(lp2715
I0
aI1
aaI19
a(lp2716
I6
aaI36
aI19
aI94
a(lp2717
I0
aI1
aI5
aa(lp2718
I0
aI1
aI2
aI3
aI4
aI5
aI6
aI7
aaI70
a(lp2719
I1
aI5
aI6
aaI16
aI111
aI70
aI70
a(lp2720
I0
aI1
aI2
aI3
aI4
aI5
aI6
aI7
aa(lp2721
I3
aaI15
a(lp2722
I3
aaI152
aI70
aI70
a(lp2723
I0
aI1
aI2
aI3
aI4
aI5
aI6
aI7
aa(lp2724
I0
aI1
aaI160
aI70
aI33
aI33
a(lp2725
I0
aI1
aa(lp2726
I3
aI7
aaa(lp2727
(lp2728
I2
aa(lp2729
I3
aaI122
aI7
aI97
aI159
a(lp2730
I7
aa(lp2731
I3
aa(lp2732
I2
aI5
aI6
aI7
aaI149
aI122
aI69
aI159
aI46
aI152
a(lp2733
I3
aa(lp2734
I3
aa(lp2735
I6
aaI90
aI182
a(lp2736
I3
aaI17
a(lp2737
I2
aaI21
aI21
aI149
aI21
aI90
aI9
a(lp2738
I0
aI1
aI2
aI3
aI4
aI5
aI6
aI7
aaI7
aI159
a(lp2739
I3
aa(lp2740
I0
aI1
aI5
aa(lp2741
I3
aa(lp2742
I3
aaI16
aI97
a(lp2743
I3
aI7
aa(lp2744
I3
aa(lp2745
I0
aI1
aI5
aa(lp2746
I2
aa(lp2747
I3
aaI152
a(lp2748
I3
aaI159
aI122
a(lp2749
I4
aa(lp2750
I3
aaa(lp2751
(lp2752
I3
aI7
aaI16
a(lp2753
I0
aI1
aI2
aI3
aI4
aI5
aI6
aI7
aa(lp2754
I3
aa(lp2755
I3
aa(lp2756
I3
aa(lp2757
I3
aI7
aa(lp2758
I0
aI1
aaI182
a(lp2759
I0
aI1
aaI152
a(lp2760
I3
aa(lp2761
I0
aI1
aI5
aa(lp2762
I3
aa(lp2763
I3
aaI136
a(lp2764
I3
aa(lp2765
I3
aaI16
aI62
aI160
aI160
aI19
aI19
aI19
aI19
a(lp2766
I3
aa(lp2767
I4
aa(lp2768
I4
aa(lp2769
I4
aa(lp2770
I0
aI1
aI5
aa(lp2771
I0
aI1
aI5
aa(lp2772
I3
aa(lp2773
I6
aa(lp2774
I0
aI1
aI2
aI3
aI4
aI5
aI6
aI7
aaI149
aI149
aI149
a(lp2775
I3
aa(lp2776
I3
aa(lp2777
I3
aI7
aa(lp2778
I0
aI1
aI5
aa(lp2779
I0
aI1
aI5
aa(lp2780
I3
aaI152
a(lp2781
I4
aa(lp2782
I3
aa(lp2783
I4
aa(lp2784
I3
aI7
aa(lp2785
I3
aa(lp2786
I3
aa(lp2787
I3
aa(lp2788
I4
aa(lp2789
I4
aaI149
aI122
aI16
aI113
aI16
a(lp2790
I2
aaI86
a(lp2791
I7
aa(lp2792
I3
aI7
aaI182
a(lp2793
I0
aI1
aI2
aI3
aI4
aI5
aI6
aI7
aaI152
aI149
a(lp2794
I3
aa(lp2795
I6
aaI152
aI152
aa(lp2796
I121
aI69
aI152
aI152
a(lp2797
I3
aI7
aa(lp2798
I3
aaI160
aI160
aI160
aI152
aI17
aI90
aI112
aI182
aI21
aI149
aI21
aI149
aI160
aI160
a(lp2799
I0
aI1
aI2
aI3
aI4
aI5
aI6
aI7
aaI52
aI152
aI70
aI137
aI160
a(lp2800
I3
aI7
aaI18
a(lp2801
I3
aa(lp2802
I3
aa(lp2803
I3
aa(lp2804
I6
aaI181
aI18
aI125
aI125
aI152
a(lp2805
I3
aI7
aaI36
aI62
aI117
aI137
a(lp2806
I3
aaI62
aI62
aI52
aI70
aI95
aI9
aI9
aI137
aI112
a(lp2807
I3
aa(lp2808
I3
aaI170
aI170
aI18
aI6
aI36
a(lp2809
I3
aa(lp2810
I4
aaI153
aI70
aI137
a(lp2811
I2
aI5
aI6
aI7
aaI18
aI18
aI6
aI112
a(lp2812
I4
aa(lp2813
I3
aI7
aa(lp2814
I3
aa(lp2815
I4
aa(lp2816
I4
aa(lp2817
I0
aI1
aI2
aI3
aI4
aI5
aI6
aI7
aa(lp2818
I0
aI1
aI2
aI3
aI4
aI5
aI6
aI7
aaI70
a(lp2819
I3
aI7
aa(lp2820
I3
aI7
aaI36
aI36
a(lp2821
I3
aa(lp2822
I0
aI1
aI2
aI3
aI4
aI5
aI6
aI7
aaI62
aI62
aI62
aI62
a(lp2823
I4
aa(lp2824
I3
aaI160
aI160
a(lp2825
I3
aaI160
aI160
aI10
a(lp2826
I4
aaI52
a(lp2827
I3
aaa(lp2828
I90
aI94
a(lp2829
I0
aI1
aI5
aaI61
aI61
aI160
aI70
a(lp2830
I4
aaI94
a(lp2831
I0
aI1
aa(lp2832
I4
aaI138
aI33
aI25
aI33
a(lp2833
I3
aa(lp2834
I3
aaI25
aI33
aI90
aI70
aI152
aI94
aI149
aI33
aI6
aI94
a(lp2835
I4
aa(lp2836
I0
aI1
aa(lp2837
I0
aI1
aa(lp2838
I0
aI1
aa(lp2839
I4
aa(lp2840
I4
aa(lp2841
I4
aa(lp2842
I4
aa(lp2843
I0
aI1
aaI109
aI0
a(lp2844
I4
aa(lp2845
I4
aa(lp2846
I4
aaI138
a(lp2847
I3
aaI112
a(lp2848
I0
aI1
aI2
aI3
aI4
aI5
aI6
aI7
aa(lp2849
I0
aI1
aI2
aI3
aI4
aI5
aI6
aI7
aaI33
a(lp2850
I0
aI1
aaI94
aa(lp2851
I161
aI69
aI69
a(lp2852
I0
aI1
aI2
aI3
aI4
aI5
aI6
aI7
aa(lp2853
I3
aI7
aa(lp2854
I4
aa(lp2855
I0
aI1
aI2
aI3
aI4
aI5
aI6
aI7
aaI170
a(lp2856
I3
aaI112
aI160
aI170
a(lp2857
I4
aaI117
a(lp2858
I3
aaI160
aI34
aI161
aI69
aI69
aI181
a(lp2859
I3
aa(lp2860
I4
aa(lp2861
I3
aaI160
aI33
aI137
a(lp2862
I3
aI7
aa(lp2863
I4
aaI137
aI161
aI69
aI149
aI122
a(lp2864
I3
aaI122
aI112
aI62
a(lp2865
I6
aaI112
a(lp2866
I0
aI1
aI2
aI3
aI4
aI5
aI6
aI7
aaI112
a(lp2867
I4
aa(lp2868
I3
aI7
aaI145
aI153
a(lp2869
I4
aa(lp2870
I4
aa(lp2871
I2
aa(lp2872
I4
aa(lp2873
I6
aa(lp2874
I3
aI7
aa(lp2875
I3
aaI170
a(lp2876
I0
aI1
aI2
aI3
aI4
aI5
aI6
aI7
aaI139
aI170
aI112
a(lp2877
I2
aa(lp2878
I3
aaI137
aI152
aI170
aI121
aI160
a(lp2879
I1
aI5
aI6
aaI181
aa(lp2880
(lp2881
I0
aI1
aa(lp2882
I2
aa(lp2883
I6
aa(lp2884
I6
aa(lp2885
I0
aI1
aa(lp2886
I0
aI1
aI5
aaI60
aI174
aI160
aI160
a(lp2887
I0
aI1
aa(lp2888
I0
aI1
aI2
aI3
aI4
aI5
aI6
aI7
aaI152
a(lp2889
I6
aaI108
a(lp2890
I6
aa(lp2891
I6
aa(lp2892
I3
aa(lp2893
I3
aaI160
a(lp2894
I4
aa(lp2895
I3
aa(lp2896
I0
aI1
aI5
aaI152
aI127
aI160
a(lp2897
I0
aI1
aI5
aa(lp2898
I0
aI1
aI2
aI3
aI4
aI5
aI6
aI7
aa(lp2899
I3
aa(lp2900
I3
aaI152
aI152
aI112
aI69
aI114
a(lp2901
I3
aaI94
aI71
aa(lp2902
I62
aI62
aI62
aI122
aI122
aI61
aI36
aI36
aI36
aI36
aI36
aI36
aI62
aI112
a(lp2903
I3
aaI0
aI0
aI62
a(lp2904
I4
aa(lp2905
I4
aaI122
aI60
aI22
aI60
a(lp2906
I2
aa(lp2907
I6
aaI111
aI117
a(lp2908
I4
aa(lp2909
I0
aI1
aI5
aaI71
aI83
aI69
aI16
aI0
a(lp2910
I6
aaI122
aI69
a(lp2911
I2
aa(lp2912
I4
aa(lp2913
I4
aaI69
aI112
aI122
a(lp2914
I2
aaI122
aI122
aI122
aI182
aI71
aI71
aI69
aI149
a(lp2915
I3
aaI94
aI24
aI22
aI60
aI69
aI111
a(lp2916
I3
aaI117
aI70
aI34
aI34
aI122
aI149
a(lp2917
I4
aaI17
aI60
aI86
aI86
a(lp2918
I3
aa(lp2919
I2
aa(lp2920
I4
aaI0
aI0
aI35
aI69
a(lp2921
I3
aaI62
aI62
aI36
aI122
a(lp2922
I4
aaI94
aI94
a(lp2923
I3
aaI34
aI60
aI34
a(lp2924
I2
aaI58
aI122
aI62
aI62
a(lp2925
I3
aaI36
aI36
a(lp2926
I0
aI1
aI2
aI3
aI4
aI5
aI6
aI7
aaI62
aI18
aI149
aI152
a(lp2927
I4
aa(lp2928
I4
aa(lp2929
I0
aI1
aI2
aI3
aI4
aI5
aI6
aI7
aaI60
aI122
a(lp2930
I4
aaI60
a(lp2931
I2
aa(lp2932
I4
aaI7
aI60
aI0
aI62
a(lp2933
I3
aa(lp2934
I4
aa(lp2935
I4
aaI34
aI138
aI122
a(lp2936
I4
aaI34
a(lp2937
I3
aaI16
aI6
a(lp2938
I3
aaI29
aI134
aI62
a(lp2939
I4
aaI71
a(lp2940
I4
aaI62
aI69
a(lp2941
I2
aa(lp2942
I3
aaI106
a(lp2943
I3
aaI112
aI181
aI137
aI178
aI34
aI122
aI149
a(lp2944
I4
aaI64
aI64
aI6
aI36
aI122
aI138
aI36
a(lp2945
I4
aaI64
aa(lp2946
(lp2947
I3
aa(lp2948
I2
aaI139
aI6
aI127
a(lp2949
I3
aa(lp2950
I3
aa(lp2951
I3
aa(lp2952
I6
aaI61
aI61
aI160
aI122
a(lp2953
I3
aa(lp2954
I0
aI1
aI2
aI3
aI4
aI5
aI6
aI7
aa(lp2955
I3
aaI41
a(lp2956
I4
aaI127
aI173
a(lp2957
I3
aI7
aaI60
a(lp2958
I3
aaI152
aI70
aI70
aI17
a(lp2959
I3
aa(lp2960
I2
aa(lp2961
I2
aa(lp2962
I6
aaI6
a(lp2963
I3
aaI112
a(lp2964
I2
aI5
aI6
aI7
aa(lp2965
I6
aaI71
aI60
aI112
a(lp2966
I0
aI1
aa(lp2967
I3
aa(lp2968
I0
aI1
aa(lp2969
I3
aaI138
a(lp2970
I3
aaI152
a(lp2971
I3
aa(lp2972
I3
aa(lp2973
I3
aaI16
aI70
a(lp2974
I3
aaI152
aI138
a(lp2975
I0
aI1
aa(lp2976
I0
aI1
aaI96
aI138
a(lp2977
I3
aI7
aaI69
aI90
aI138
aI152
aI36
a(lp2978
I3
aaI121
aI149
aI160
aI160
aI152
aI152
aI152
a(lp2979
I3
aaI152
aI90
a(lp2980
I0
aI1
aaI122
aI122
a(lp2981
I3
aa(lp2982
I0
aI1
aI5
aa(lp2983
I3
aa(lp2984
I3
aaI152
a(lp2985
I3
aaI166
aI33
aI166
aI62
a(lp2986
I0
aI1
aa(lp2987
I6
aa(lp2988
I6
aa(lp2989
I4
aaI160
aI114
aI70
aI70
a(lp2990
I4
aaI112
aI97
a(lp2991
I2
aa(lp2992
I3
aa(lp2993
I6
aa(lp2994
I6
aa(lp2995
I3
aa(lp2996
I6
aaI70
a(lp2997
I4
aaI138
aI69
aI69
a(lp2998
I4
aa(lp2999
I3
aI7
aaI70
aI152
aI70
a(lp3000
I1
aI5
aI6
aaI152
aI152
aI152
aI152
aI172
aI152
aI152
a(lp3001
I4
aa(lp3002
I2
aa(lp3003
I0
aI1
aaI70
a(lp3004
I0
aI1
aaI24
a(lp3005
I3
aaI112
aI112
a(lp3006
I3
aa(lp3007
I3
aaI17
aI139
a(lp3008
I3
aI7
aaI138
aI70
aI71
aI62
aI160
a(lp3009
I3
aaI138
a(lp3010
I3
aa(lp3011
I3
aaI71
aI152
a(lp3012
I4
aa(lp3013
I3
aaa(lp3014
I64
aI64
aI122
a(lp3015
I4
aa(lp3016
I3
aI7
aa(lp3017
I3
aaI122
aI122
aI122
a(lp3018
I3
aaI60
a(lp3019
I3
aaI117
a(lp3020
I3
aa(lp3021
I3
aaI65
a(lp3022
I4
aaI149
a(lp3023
I1
aI5
aI6
aaI167
aI112
aI122
aI122
a(lp3024
I4
aaI122
aI122
aI122
aI178
a(lp3025
I0
aI1
aI2
aI3
aI4
aI5
aI6
aI7
aa(lp3026
I4
aaa(lp3027
(lp3028
I4
aa(lp3029
I3
aI7
aa(lp3030
I0
aI1
aI2
aI3
aI4
aI5
aI6
aI7
aaI112
a(lp3031
I4
aaI112
aI112
a(lp3032
I3
aa(lp3033
I4
aa(lp3034
I4
aa(lp3035
I4
aa(lp3036
I3
aI7
aa(lp3037
I3
aI7
aaI170
a(lp3038
I3
aI7
aa(lp3039
I3
aI7
aa(lp3040
I3
aI7
aaI152
aI182
aI182
a(lp3041
I3
aI7
aaI160
a(lp3042
I3
aI7
aa(lp3043
I3
aI7
aa(lp3044
I3
aI7
aaI69
aI69
a(lp3045
I3
aI7
aa(lp3046
I3
aI7
aa(lp3047
I3
aI7
aa(lp3048
I0
aI1
aI2
aI3
aI4
aI5
aI6
aI7
aa(lp3049
I3
aI7
aa(lp3050
I0
aI1
aI2
aI3
aI4
aI5
aI6
aI7
aa(lp3051
I4
aa(lp3052
I3
aI7
aa(lp3053
I3
aI7
aa(lp3054
I0
aI1
aI2
aI3
aI4
aI5
aI6
aI7
aa(lp3055
I3
aI7
aa(lp3056
I4
aa(lp3057
I3
aI7
aa(lp3058
I3
aI7
aa(lp3059
I3
aa(lp3060
I4
aa(lp3061
I3
aaI152
aI71
a(lp3062
I0
aI1
aI5
aa(lp3063
I4
aa(lp3064
I4
aa(lp3065
I3
aI7
aa(lp3066
I3
aI7
aa(lp3067
I3
aI7
aa(lp3068
I4
aa(lp3069
I4
aa(lp3070
I4
aa(lp3071
I3
aI7
aa(lp3072
I0
aI1
aI2
aI3
aI4
aI5
aI6
aI7
aaI152
aI121
a(lp3073
I3
aI7
aaI112
a(lp3074
I3
aI7
aa(lp3075
I4
aa(lp3076
I0
aI1
aI2
aI3
aI4
aI5
aI6
aI7
aaa(lp3077
(lp3078
I4
aaI53
a(lp3079
I2
aI5
aI6
aI7
aaI6
aI152
a(lp3080
I3
aaI149
aI152
a(lp3081
I0
aI1
aaI95
aI152
aI149
aI16
a(lp3082
I6
aaI53
aI146
a(lp3083
I0
aI1
aI5
aa(lp3084
I0
aI1
aI5
aaI90
aI160
aI149
aI152
a(lp3085
I6
aaI112
aI33
aI152
aI70
aI149
aI121
aI95
aI111
a(lp3086
I3
aI7
aaI121
aI121
a(lp3087
I6
aa(lp3088
I6
aaI70
a(lp3089
I3
aa(lp3090
I3
aaI43
aI138
aI160
a(lp3091
I2
aI5
aI6
aI7
aaI0
aI69
aI138
aI69
aI160
aI112
aI70
aI112
a(lp3092
I1
aI5
aI6
aaI159
aI122
a(lp3093
I0
aI1
aI2
aI3
aI4
aI5
aI6
aI7
aaI61
aI61
aI149
aa(lp3094
(lp3095
I0
aI1
aI2
aI3
aI4
aI5
aI6
aI7
aa(lp3096
I4
aaI112
aI7
aI143
aI112
aI62
a(lp3097
I2
aaI108
aI152
aI114
a(lp3098
I4
aaI18
aI160
aI160
a(lp3099
I4
aaI46
aI81
aI131
aI113
aI46
aI46
aI18
a(lp3100
I1
aI5
aI6
aaI142
a(lp3101
I1
aI5
aI6
aaI33
a(lp3102
I4
aa(lp3103
I4
aa(lp3104
I4
aaI182
a(lp3105
I2
aaI182
a(lp3106
I4
aaI182
a(lp3107
I4
aaI182
a(lp3108
I2
aa(lp3109
I4
aa(lp3110
I4
aa(lp3111
I3
aaI181
a(lp3112
I4
aaI182
aI181
a(lp3113
I4
aaI181
a(lp3114
I3
aaI112
aI160
aI108
a(lp3115
I3
aaI46
aI112
aI81
a(lp3116
I4
aaI112
aI62
a(lp3117
I4
aaI18
aI112
aI7
aI160
aI152
aI114
a(lp3118
I4
aaI143
a(lp3119
I2
aaI152
a(lp3120
I0
aI1
aI5
aaI112
aI18
aI160
aI7
aI114
a(lp3121
I4
aaI152
aI62
aI143
a(lp3122
I2
aa(lp3123
I4
aaI160
aI46
aI108
aI112
aI81
aI70
aI70
aI96
a(lp3124
I0
aI1
aa(lp3125
I0
aI1
aaa(lp3126
I60
aI6
a(lp3127
I0
aI1
aaI35
aI81
a(lp3128
I0
aI1
aaI6
aI152
a(lp3129
I3
aa(lp3130
I2
aa(lp3131
I4
aa(lp3132
I6
aa(lp3133
I6
aaI146
aI160
aI2
aI121
a(lp3134
I0
aI1
aa(lp3135
I0
aI1
aI2
aI3
aI4
aI5
aI6
aI7
aa(lp3136
I4
aaI143
aI160
aI81
aI69
aI60
a(lp3137
I0
aI1
aa(lp3138
I6
aaI33
a(lp3139
I0
aI1
aaI56
a(lp3140
I0
aI1
aaI95
aI95
aI19
aI19
aI19
aI19
a(lp3141
I4
aaI137
aI143
aI143
aI152
aI149
aI149
a(lp3142
I4
aa(lp3143
I0
aI1
aI5
aaI60
a(lp3144
I3
aa(lp3145
I4
aaI18
aI152
aI152
aI16
aI16
aI149
a(lp3146
I6
aaI62
aI149
a(lp3147
I0
aI1
aaI137
aI137
aI16
aI16
aI170
a(lp3148
I2
aI5
aI6
aI7
aaI2
aI61
aI137
aI2
a(lp3149
I6
aa(lp3150
I0
aI1
aa(lp3151
I0
aI1
aaI112
a(lp3152
I0
aI1
aaI139
a(lp3153
I4
aaI122
aI122
aI160
a(lp3154
I0
aI1
aI2
aI3
aI4
aI5
aI6
aI7
aa(lp3155
I3
aI7
aa(lp3156
I3
aaI149
aI149
aI149
a(lp3157
I2
aaI36
aI19
aI19
aI19
aI19
a(lp3158
I3
aaI149
a(lp3159
I4
aaI152
a(lp3160
I4
aaI19
aI19
aI161
aI160
aa(lp3161
(lp3162
I0
aI1
aI5
aa(lp3163
I4
aaI139
aI139
a(lp3164
I0
aI1
aI2
aI3
aI4
aI5
aI6
aI7
aa(lp3165
I3
aa(lp3166
I3
aa(lp3167
I3
aI7
aa(lp3168
I3
aI7
aa(lp3169
I2
aI5
aI6
aI7
aa(lp3170
I3
aaI70
a(lp3171
I1
aI5
aI6
aaI112
a(lp3172
I3
aa(lp3173
I1
aI5
aI6
aa(lp3174
I3
aa(lp3175
I3
aa(lp3176
I1
aI5
aI6
aa(lp3177
I3
aa(lp3178
I3
aa(lp3179
I3
aa(lp3180
I3
aa(lp3181
I3
aa(lp3182
I4
aaI70
aI70
aa(lp3183
I152
aI78
a(lp3184
I3
aaI152
aI173
a(lp3185
I4
aa(lp3186
I0
aI1
aI2
aI3
aI4
aI5
aI6
aI7
aaI111
a(lp3187
I2
aa(lp3188
I2
aaI95
aI95
aI95
aI149
aI149
aI111
a(lp3189
I4
aaI137
aI78
aI173
a(lp3190
I4
aa(lp3191
I4
aa(lp3192
I4
aaa(lp3193
(lp3194
I3
aaI94
a(lp3195
I4
aa(lp3196
I4
aaI94
aI139
a(lp3197
I2
aa(lp3198
I4
aa(lp3199
I2
aa(lp3200
I4
aa(lp3201
I2
aa(lp3202
I4
aa(lp3203
I4
aa(lp3204
I4
aaI181
a(lp3205
I1
aI5
aI6
aaI16
a(lp3206
I4
aaI0
a(lp3207
I3
aaI60
aI60
a(lp3208
I4
aa(lp3209
I3
aa(lp3210
I4
aa(lp3211
I3
aa(lp3212
I4
aaI117
a(lp3213
I4
aa(lp3214
I2
aaI95
aI95
aI13
aI95
aI70
a(lp3215
I6
aaI95
aI111
aI95
aI95
aI95
aI95
aI95
aI9
aI70
aI95
aI54
aI95
aI95
aI167
aI95
aI95
aI95
aI33
aI33
aI95
aI95
aI70
aI95
aI95
aI95
aI95
aI95
aI33
aI94
a(lp3216
I3
aI7
aa(lp3217
I3
aaI117
a(lp3218
I3
aa(lp3219
I0
aI1
aI2
aI3
aI4
aI5
aI6
aI7
aa(lp3220
I0
aI1
aI5
aa(lp3221
I0
aI1
aa(lp3222
I2
aaI159
a(lp3223
I2
aa(lp3224
I2
aa(lp3225
I2
aa(lp3226
I2
aaI152
aI181
a(lp3227
I6
aaI13
a(lp3228
I2
aa(lp3229
I3
aa(lp3230
I3
aI7
aaI16
aI16
a(lp3231
I4
aa(lp3232
I3
aa(lp3233
I3
aa(lp3234
I4
aa(lp3235
I3
aa(lp3236
I4
aa(lp3237
I4
aaI117
aI117
a(lp3238
I3
aaI127
aI152
a(lp3239
I3
aa(lp3240
I3
aa(lp3241
I0
aI1
aI2
aI3
aI4
aI5
aI6
aI7
aaI136
a(lp3242
I0
aI1
aa(lp3243
I3
aI7
aaI111
aI70
aI160
aI170
aI127
aI60
aa(lp3244
(lp3245
I3
aaI122
aI122
aI122
aI122
a(lp3246
I3
aa(lp3247
I2
aI5
aI6
aI7
aaI152
aI33
aI61
aI112
aI33
aI112
aI70
a(lp3248
I3
aaI160
aI160
aI160
a(lp3249
I7
aa(lp3250
I4
aa(lp3251
I4
aa(lp3252
I3
aa(lp3253
I3
aa(lp3254
I4
aa(lp3255
I4
aaI160
aI160
aI160
aI160
a(lp3256
I3
aa(lp3257
I3
aI7
aaI70
a(lp3258
I4
aa(lp3259
I3
aa(lp3260
I4
aa(lp3261
I3
aa(lp3262
I3
aa(lp3263
I4
aaI94
aI6
aI94
aI94
aI28
a(lp3264
I4
aa(lp3265
I7
aa(lp3266
I7
aa(lp3267
I0
aI1
aI2
aI3
aI4
aI5
aI6
aI7
aaI122
a(lp3268
I4
aa(lp3269
I7
aa(lp3270
I4
aaI112
a(lp3271
I6
aaI112
aI28
aI70
a(lp3272
I7
aaI160
aI160
aI160
aI28
aI16
a(lp3273
I3
aaI70
aI15
aI15
aI15
aI70
a(lp3274
I3
aa(lp3275
I7
aa(lp3276
I3
aaa(lp3277
(lp3278
I3
aa(lp3279
I3
aa(lp3280
I4
aaI160
aI112
a(lp3281
I6
aa(lp3282
I2
aa(lp3283
I3
aa(lp3284
I2
aaI60
a(lp3285
I3
aI7
aaI18
a(lp3286
I3
aaI70
a(lp3287
I4
aaI9
a(lp3288
I3
aaI112
aI152
a(lp3289
I4
aa(lp3290
I3
aI7
aaI34
aI152
aI34
a(lp3291
I0
aI1
aI2
aI3
aI4
aI5
aI6
aI7
aa(lp3292
I4
aa(lp3293
I4
aa(lp3294
I4
aa(lp3295
I0
aI1
aI2
aI3
aI4
aI5
aI6
aI7
aa(lp3296
I3
aaI182
aI17
aa(lp3297
I69
a(lp3298
I6
aaI153
aI94
a(lp3299
I7
aa(lp3300
I2
aa(lp3301
I2
aaI182
aI149
a(lp3302
I4
aaI60
a(lp3303
I2
aa(lp3304
I4
aa(lp3305
I3
aa(lp3306
I4
aa(lp3307
I4
aaI136
aI15
a(lp3308
I2
aa(lp3309
I1
aI5
aI6
aa(lp3310
I2
aaI33
aI94
a(lp3311
I0
aI1
aa(lp3312
I0
aI1
aaI52
a(lp3313
I6
aa(lp3314
I6
aaI60
a(lp3315
I2
aaI15
a(lp3316
I3
aaI122
a(lp3317
I2
aa(lp3318
I0
aI1
aI2
aI3
aI4
aI5
aI6
aI7
aaI18
a(lp3319
I1
aI5
aI6
aaI112
a(lp3320
I0
aI1
aI5
aa(lp3321
I2
aaI33
a(lp3322
I4
aaI182
aI121
a(lp3323
I2
aaa(lp3324
(lp3325
I3
aa(lp3326
I3
aa(lp3327
I3
aa(lp3328
I0
aI1
aI2
aI3
aI4
aI5
aI6
aI7
aa(lp3329
I3
aI7
aaI112
aI112
aI22
a(lp3330
I4
aaI137
aI137
a(lp3331
I3
aa(lp3332
I3
aaI121
a(lp3333
I3
aaI70
aI70
a(lp3334
I3
aaI182
aI70
aI70
aI182
aI108
aI112
a(lp3335
I3
aaI112
aI112
aI54
aI13
a(lp3336
I6
aa(lp3337
I6
aaI101
a(lp3338
I6
aa(lp3339
I3
aa(lp3340
I3
aaI13
aI13
a(lp3341
I3
aa(lp3342
I0
aI1
aI5
aaI114
aI160
aI112
a(lp3343
I3
aaI182
a(lp3344
I3
aaI153
a(lp3345
I4
aa(lp3346
I3
aaI182
a(lp3347
I3
aaI182
aI112
a(lp3348
I3
aa(lp3349
I3
aa(lp3350
I3
aaI67
a(lp3351
I2
aa(lp3352
I0
aI1
aa(lp3353
I0
aI1
aI5
aaI60
aI182
aI182
aI182
aI182
aI101
aI34
aI78
aI112
aI160
a(lp3354
I4
aa(lp3355
I1
aI5
aI6
aaI112
aI34
aa(lp3356
(lp3357
I3
aaI70
aI70
aI21
a(lp3358
I4
aa(lp3359
I2
aa(lp3360
I4
aa(lp3361
I4
aaI122
a(lp3362
I3
aa(lp3363
I6
aa(lp3364
I4
aaI13
aI94
aI170
aI152
aI160
aI152
a(lp3365
I4
aaI170
aI112
aI170
a(lp3366
I2
aI5
aI6
aI7
aa(lp3367
I0
aI1
aI2
aI3
aI4
aI5
aI6
aI7
aaa(lp3368
I142
a(lp3369
I2
aaI117
aI142
a(lp3370
I2
aaI60
a(lp3371
I3
aa(lp3372
I2
aaI36
a(lp3373
I0
aI1
aI2
aI3
aI4
aI5
aI6
aI7
aa(lp3374
I4
aaI166
aI112
a(lp3375
I4
aaI149
a(lp3376
I3
aa(lp3377
I2
aa(lp3378
I0
aI1
aI5
aa(lp3379
I4
aa(lp3380
I4
aa(lp3381
I4
aaI112
a(lp3382
I1
aI5
aI6
aaI112
a(lp3383
I3
aa(lp3384
I3
aa(lp3385
I3
aa(lp3386
I3
aa(lp3387
I4
aaI142
a(lp3388
I3
aa(lp3389
I3
aa(lp3390
I3
aaI142
aI175
aI95
aI95
aI95
aI117
a(lp3391
I4
aa(lp3392
I2
aaI121
aI62
aI62
aI166
a(lp3393
I2
aaI33
aI152
a(lp3394
I3
aaI70
aI121
aI121
a(lp3395
I1
aI5
aI6
aa(lp3396
I6
aaI70
a(lp3397
I3
aaI62
a(lp3398
I3
aa(lp3399
I2
aa(lp3400
I4
aa(lp3401
I4
aa(lp3402
I4
aaI70
aI70
a(lp3403
I0
aI1
aI5
aaI112
a(lp3404
I0
aI1
aI5
aaI9
aI112
aI112
a(lp3405
I6
aaI71
aI62
a(lp3406
I2
aa(lp3407
I3
aaI152
aI60
a(lp3408
I3
aa(lp3409
I2
aa(lp3410
I4
aaI122
aI122
a(lp3411
I2
aaI122
a(lp3412
I4
aa(lp3413
I4
aa(lp3414
I3
aa(lp3415
I2
aa(lp3416
I0
aI1
aaI25
aI70
aI70
a(lp3417
I0
aI1
aaI13
a(lp3418
I2
aaI112
a(lp3419
I0
aI1
aI5
aaI182
aI182
aI70
aI90
aI33
aI70
aI70
aI70
aI70
a(lp3420
I6
aa(lp3421
I6
aaa(lp3422
(lp3423
I0
aI1
aI2
aI3
aI4
aI5
aI6
aI7
aa(lp3424
I3
aI7
aa(lp3425
I0
aI1
aI2
aI3
aI4
aI5
aI6
aI7
aaI112
aI30
a(lp3426
I0
aI1
aI5
aaI160
aI160
aI160
aI160
aI129
aI112
a(lp3427
I3
aI7
aaI95
aI95
a(lp3428
I0
aI1
aI5
aaI95
a(lp3429
I2
aaI149
a(lp3430
I3
aI7
aa(lp3431
I3
aI7
aa(lp3432
I2
aa(lp3433
I3
aaI86
aI86
aI11
a(lp3434
I3
aaI122
aI111
aI86
a(lp3435
I2
aaI86
aI149
a(lp3436
I3
aaI17
aI81
aI60
aI114
aI160
aI90
aI160
aI62
aI160
aI90
aI160
aI160
aI160
aI60
a(lp3437
I0
aI1
aI5
aa(lp3438
I4
aa(lp3439
I4
aa(lp3440
I2
aa(lp3441
I2
aaI62
a(lp3442
I4
aaI117
aI112
a(lp3443
I4
aa(lp3444
I2
aa(lp3445
I4
aaI36
aI67
aI25
a(lp3446
I4
aaI149
aI149
a(lp3447
I3
aa(lp3448
I2
aaI149
a(lp3449
I3
aaI149
aI149
aI149
a(lp3450
I4
aaI112
a(lp3451
I4
aaI153
a(lp3452
I2
aaI67
aI175
aI152
a(lp3453
I6
aaI35
a(lp3454
I6
aaI94
aI152
aI95
aI129
aa(lp3455
I138
aI69
aI149
aI70
aI70
a(lp3456
I3
aaI34
a(lp3457
I3
aa(lp3458
I0
aI1
aaI94
a(lp3459
I0
aI1
aa(lp3460
I0
aI1
aI5
aa(lp3461
I0
aI1
aa(lp3462
I4
aaI33
aI152
a(lp3463
I4
aaI46
aI61
aI94
aI46
aI46
a(lp3464
I3
aa(lp3465
I6
aa(lp3466
I3
aa(lp3467
I3
aaI70
aI70
aI70
aI94
aI142
a(lp3468
I6
aaI142
a(lp3469
I6
aa(lp3470
I3
aaI36
aI152
aI152
a(lp3471
I3
aa(lp3472
I0
aI1
aI2
aI3
aI4
aI5
aI6
aI7
aaI69
aI138
aI111
aI181
aI160
a(lp3473
I0
aI1
aaI94
a(lp3474
I6
aa(lp3475
I6
aa(lp3476
I1
aI5
aI6
aaI138
aI70
aI33
aI70
aI46
aI46
aa(lp3477
I34
aI121
a(lp3478
I2
aaI170
a(lp3479
I2
aa(lp3480
I3
aI7
aa(lp3481
I3
aI7
aaI121
a(lp3482
I0
aI1
aI5
aa(lp3483
I1
aI5
aI6
aaI121
aI170
a(lp3484
I2
aI5
aI6
aI7
aa(lp3485
I3
aaI19
aI19
aI19
a(lp3486
I3
aa(lp3487
I3
aaI170
aI182
aI60
aI121
a(lp3488
I4
aa(lp3489
I4
aa(lp3490
I2
aaI161
aI60
aI35
a(lp3491
I0
aI1
aI2
aI3
aI4
aI5
aI6
aI7
aaI149
a(lp3492
I4
aaI34
a(lp3493
I3
aaa(lp3494
(lp3495
I3
aI7
aa(lp3496
I3
aI7
aaI138
aI58
a(lp3497
I6
aa(lp3498
I3
aI7
aaI152
a(lp3499
I3
aI7
aaI70
aI152
a(lp3500
I0
aI1
aI2
aI3
aI4
aI5
aI6
aI7
aaI152
aI22
aI152
a(lp3501
I4
aaI121
a(lp3502
I3
aI7
aa(lp3503
I3
aI7
aaI149
aI112
a(lp3504
I0
aI1
aa(lp3505
I3
aa(lp3506
I3
aa(lp3507
I3
aa(lp3508
I3
aaI142
a(lp3509
I0
aI1
aaI181
aI181
aI142
aI113
a(lp3510
I2
aa(lp3511
I3
aa(lp3512
I3
aa(lp3513
I3
aI7
aa(lp3514
I6
aa(lp3515
I3
aa(lp3516
I3
aI7
aa(lp3517
I6
aa(lp3518
I3
aI7
aaI159
a(lp3519
I3
aI7
aa(lp3520
I0
aI1
aI2
aI3
aI4
aI5
aI6
aI7
aaI182
aI143
aI152
aI152
aI152
aI159
a(lp3521
I1
aI5
aI6
aaI152
a(lp3522
I2
aa(lp3523
I3
aaI152
aI152
aI113
a(lp3524
I4
aa(lp3525
I3
aI7
aa(lp3526
I3
aI7
aa(lp3527
I4
aa(lp3528
I3
aI7
aa(lp3529
I0
aI1
aI2
aI3
aI4
aI5
aI6
aI7
aa(lp3530
I2
aI5
aI6
aI7
aa(lp3531
I3
aa(lp3532
I3
aa(lp3533
I2
aI5
aI6
aI7
aaI159
aI142
aI142
aI152
aI70
aI18
a(lp3534
I3
aI7
aaI160
a(lp3535
I1
aI5
aI6
aaI153
aI70
aI160
a(lp3536
I3
aa(lp3537
I3
aaI160
aI21
aI21
aa(lp3538
I16
a(lp3539
I2
aa(lp3540
I3
aaI121
a(lp3541
I3
aa(lp3542
I3
aa(lp3543
I4
aa(lp3544
I0
aI1
aI2
aI3
aI4
aI5
aI6
aI7
aa(lp3545
I3
aaI160
a(lp3546
I4
aa(lp3547
I4
aa(lp3548
I3
aaI181
a(lp3549
I4
aa(lp3550
I1
aI5
aI6
aa(lp3551
I3
aa(lp3552
I3
aa(lp3553
I3
aaI58
a(lp3554
I3
aaa(lp3555
(lp3556
I4
aa(lp3557
I3
aaI112
aI60
aI15
aI142
aI94
a(lp3558
I4
aaI160
aI152
a(lp3559
I4
aa(lp3560
I3
aa(lp3561
I3
aaI33
aI60
a(lp3562
I3
aI7
aaI112
a(lp3563
I6
aaI9
aI142
a(lp3564
I4
aa(lp3565
I4
aaI149
aI165
a(lp3566
I6
aa(lp3567
I6
aa(lp3568
I6
aa(lp3569
I4
aaI149
a(lp3570
I6
aaI16
aI142
aI152
aI112
aI15
aI142
aI142
aI142
a(lp3571
I4
aaI142
aI152
a(lp3572
I3
aa(lp3573
I3
aI7
aaI111
aI16
aI172
a(lp3574
I6
aa(lp3575
I6
aaI17
aI112
aI78
aI152
aI70
aI181
a(lp3576
I3
aI7
aa(lp3577
I4
aa(lp3578
I3
aa(lp3579
I4
aa(lp3580
I3
aa(lp3581
I4
aa(lp3582
I4
aa(lp3583
I3
aa(lp3584
I0
aI1
aI2
aI3
aI4
aI5
aI6
aI7
aaI60
aI70
a(lp3585
I3
aaI152
a(lp3586
I3
aaa(lp3587
I181
a(lp3588
I3
aa(lp3589
I2
aaI60
a(lp3590
I0
aI1
aI5
aaI117
a(lp3591
I6
aaI121
a(lp3592
I3
aaI60
a(lp3593
I1
aI5
aI6
aa(lp3594
I0
aI1
aI5
aaI161
aI69
aI33
aI33
aI69
aI70
a(lp3595
I1
aI5
aI6
aa(lp3596
I3
aaI16
aI152
a(lp3597
I3
aI7
aaI152
a(lp3598
I3
aa(lp3599
I3
aa(lp3600
I3
aa(lp3601
I3
aa(lp3602
I4
aa(lp3603
I3
aI7
aaI139
a(lp3604
I2
aI5
aI6
aI7
aa(lp3605
I4
aaI170
aI90
aI121
a(lp3606
I0
aI1
aI2
aI3
aI4
aI5
aI6
aI7
aaI78
a(lp3607
I3
aI7
aa(lp3608
I0
aI1
aI5
aaI152
a(lp3609
I3
aa(lp3610
I3
aaa(lp3611
I160
a(lp3612
I1
aI5
aI6
aaI70
aI36
a(lp3613
I6
aaI160
aI36
aI152
a(lp3614
I3
aa(lp3615
I3
aa(lp3616
I3
aaI33
a(lp3617
I3
aaI111
aI7
a(lp3618
I3
aaI90
aI136
aI134
aI182
a(lp3619
I3
aa(lp3620
I6
aaI122
aI146
aI36
a(lp3621
I3
aaI70
aI15
aI70
aI70
aI61
a(lp3622
I3
aa(lp3623
I3
aaI70
aI117
aI70
aI36
aI36
aI33
a(lp3624
I4
aa(lp3625
I1
aI5
aI6
aaI70
aI70
aI160
aI70
aI112
aI36
aI70
aI90
aI70
aI90
aI70
aI70
aI70
a(lp3626
I6
aaI70
a(lp3627
I3
aaI70
a(lp3628
I3
aaI182
a(lp3629
I6
aa(lp3630
I3
aa(lp3631
I0
aI1
aI5
aaI70
aI33
aI70
aI33
aI24
a(lp3632
I3
aaI70
aI122
aI117
aI0
aI24
a(lp3633
I2
aaI43
aI161
aI122
a(lp3634
I1
aI5
aI6
aaI70
a(lp3635
I3
aI7
aaI70
aI17
a(lp3636
I0
aI1
aI2
aI3
aI4
aI5
aI6
aI7
aa(lp3637
I3
aI7
aaI90
a(lp3638
I3
aaI70
aI70
a(lp3639
I1
aI5
aI6
aaI136
a(lp3640
I3
aaI160
aI36
aI36
aI43
aI70
aI36
aI43
a(lp3641
I3
aa(lp3642
I6
aaI70
a(lp3643
I3
aI7
aaI70
aI122
aI70
aI70
aa(lp3644
I70
aI114
a(lp3645
I3
aaI152
aI139
aI114
aI21
aI181
a(lp3646
I6
aa(lp3647
I6
aa(lp3648
I1
aI5
aI6
aaI70
aI112
aI112
aI70
aI152
aI69
aI83
aI36
aI137
aI94
aI36
aI6
aI90
aI36
aI111
aI114
a(lp3649
I3
aa(lp3650
I3
aa(lp3651
I3
aI7
aa(lp3652
I3
aI7
aaI6
aI111
a(lp3653
I4
aaI70
aI70
a(lp3654
I3
aa(lp3655
I3
aa(lp3656
I3
aa(lp3657
I3
aa(lp3658
I3
aa(lp3659
I0
aI1
aI5
aaI160
aI152
aI70
a(lp3660
I0
aI1
aI5
aaI111
a(lp3661
I3
aa(lp3662
I3
aaI36
aI70
a(lp3663
I0
aI1
aI2
aI3
aI4
aI5
aI6
aI7
aaI152
aI62
a(lp3664
I2
aaI36
aI36
a(lp3665
I0
aI1
aI5
aa(lp3666
I0
aI1
aI2
aI3
aI4
aI5
aI6
aI7
aaI112
aI17
aI114
a(lp3667
I3
aaI181
aI181
a(lp3668
I3
aI7
aa(lp3669
I2
aa(lp3670
I3
aI7
aaI138
aI181
a(lp3671
I0
aI1
aI2
aI3
aI4
aI5
aI6
aI7
aaI138
a(lp3672
I3
aaI137
a(lp3673
I4
aa(lp3674
I2
aI5
aI6
aI7
aa(lp3675
I4
aaI70
a(lp3676
I2
aI5
aI6
aI7
aaI70
aI36
aI149
aI36
aI149
aI149
aI36
aI36
a(lp3677
I2
aI5
aI6
aI7
aaI149
aI149
aI96
aa(lp3678
(lp3679
I0
aI1
aaI117
a(lp3680
I6
aa(lp3681
I0
aI1
aI5
aaI127
a(lp3682
I3
aa(lp3683
I0
aI1
aa(lp3684
I0
aI1
aI2
aI3
aI4
aI5
aI6
aI7
aa(lp3685
I0
aI1
aa(lp3686
I2
aa(lp3687
I0
aI1
aa(lp3688
I0
aI1
aaI138
a(lp3689
I6
aaI70
aI143
aI113
a(lp3690
I6
aaI178
aI138
a(lp3691
I3
aaI152
aa(lp3692
I9
aI60
aI152
a(lp3693
I4
aa(lp3694
I6
aa(lp3695
I6
aa(lp3696
I6
aa(lp3697
I6
aa(lp3698
I6
aaI152
a(lp3699
I2
aI5
aI6
aI7
aa(lp3700
I3
aaI139
aI152
a(lp3701
I0
aI1
aI2
aI3
aI4
aI5
aI6
aI7
aa(lp3702
I3
aa(lp3703
I0
aI1
aI2
aI3
aI4
aI5
aI6
aI7
aaI139
aI83
aI62
aI152
a(lp3704
I4
aa(lp3705
I4
aa(lp3706
I4
aa(lp3707
I3
aI7
aa(lp3708
I3
aI7
aa(lp3709
I4
aaI152
aI152
a(lp3710
I0
aI1
aa(lp3711
I4
aaI182
aI152
aI44
a(lp3712
I4
aaI61
aI124
a(lp3713
I3
aa(lp3714
I3
aa(lp3715
I4
aaI137
a(lp3716
I4
aa(lp3717
I4
aaI149
aI152
a(lp3718
I4
aa(lp3719
I3
aaI149
aI16
a(lp3720
I4
aaI160
a(lp3721
I2
aaI142
a(lp3722
I6
aa(lp3723
I6
aa(lp3724
I3
aaI152
a(lp3725
I4
aaI62
a(lp3726
I4
aaa(lp3727
I70
aI134
aI21
aI43
aI152
aI152
aI16
a(lp3728
I3
aaI70
aI70
a(lp3729
I0
aI1
aI2
aI3
aI4
aI5
aI6
aI7
aa(lp3730
I6
aa(lp3731
I0
aI1
aa(lp3732
I0
aI1
aaI112
aI69
a(lp3733
I1
aI5
aI6
aaI70
aI6
aI61
aI121
a(lp3734
I3
aa(lp3735
I3
aa(lp3736
I3
aaI152
aI70
a(lp3737
I0
aI1
aaI112
aI6
aI152
aI181
aI70
aI181
aI70
aI2
aI70
aI70
a(lp3738
I4
aaI117
aI44
aI70
a(lp3739
I2
aI5
aI6
aI7
aaI18
aI112
aI44
a(lp3740
I6
aaI70
aI181
aI70
aI33
aI112
aI7
aI94
aI152
aa(lp3741
(lp3742
I3
aa(lp3743
I0
aI1
aI2
aI3
aI4
aI5
aI6
aI7
aa(lp3744
I2
aaI97
aI16
aI143
a(lp3745
I3
aI7
aa(lp3746
I3
aI7
aa(lp3747
I2
aaI137
aI137
aI122
aI41
aI117
aI152
aI152
aI182
aI149
aI152
a(lp3748
I4
aa(lp3749
I4
aaI149
aI149
aI152
aI112
aI112
a(lp3750
I2
aa(lp3751
I3
aI7
aaI152
a(lp3752
I3
aaI16
aI112
aI62
aI62
aI134
aI182
aI182
aI152
a(lp3753
I3
aI7
aa(lp3754
I3
aa(lp3755
I4
aaI160
a(lp3756
I3
aI7
aa(lp3757
I4
aaI173
aI97
aI97
aI97
aI97
aI152
aI16
aI97
aI143
aI152
a(lp3758
I3
aa(lp3759
I3
aa(lp3760
I3
aaI152
aI94
aI97
aI143
aI16
a(lp3761
I4
aaI25
a(lp3762
I3
aI7
aaI182
aI165
a(lp3763
I0
aI1
aaI60
a(lp3764
I0
aI1
aaI173
aI173
aI182
aI94
aI94
aI17
aa(lp3765
(lp3766
I6
aa(lp3767
I2
aI5
aI6
aI7
aa(lp3768
I6
aaI142
a(lp3769
I0
aI1
aaI121
a(lp3770
I0
aI1
aa(lp3771
I2
aI5
aI6
aI7
aa(lp3772
I3
aI7
aa(lp3773
I3
aI7
aaI181
a(lp3774
I3
aI7
aa(lp3775
I2
aa(lp3776
I3
aI7
aaI117
a(lp3777
I1
aI5
aI6
aa(lp3778
I0
aI1
aI2
aI3
aI4
aI5
aI6
aI7
aaI170
a(lp3779
I0
aI1
aI2
aI3
aI4
aI5
aI6
aI7
aa(lp3780
I0
aI1
aI2
aI3
aI4
aI5
aI6
aI7
aa(lp3781
I6
aa(lp3782
I2
aI5
aI6
aI7
aa(lp3783
I6
aa(lp3784
I1
aI5
aI6
aa(lp3785
I6
aa(lp3786
I6
aaa(lp3787
I139
a(lp3788
I0
aI1
aI2
aI3
aI4
aI5
aI6
aI7
aaI139
aI162
a(lp3789
I2
aaI111
aI122
a(lp3790
I3
aa(lp3791
I3
aa(lp3792
I3
aaI60
a(lp3793
I0
aI1
aI2
aI3
aI4
aI5
aI6
aI7
aa(lp3794
I3
aa(lp3795
I3
aa(lp3796
I4
aa(lp3797
I3
aa(lp3798
I3
aa(lp3799
I4
aaI7
aI152
a(lp3800
I3
aaI138
aI60
a(lp3801
I3
aaI160
a(lp3802
I4
aa(lp3803
I3
aI7
aa(lp3804
I3
aaI160
a(lp3805
I3
aa(lp3806
I4
aaa(lp3807
(lp3808
I6
aaI70
aI113
aI70
a(lp3809
I2
aI5
aI6
aI7
aaI111
aI152
a(lp3810
I6
aa(lp3811
I6
aaI112
a(lp3812
I3
aaI70
a(lp3813
I0
aI1
aaI111
aI70
aI86
a(lp3814
I0
aI1
aaI113
aI94
aI70
aI182
aI16
a(lp3815
I0
aI1
aaI46
a(lp3816
I1
aI5
aI6
aa(lp3817
I0
aI1
aI2
aI3
aI4
aI5
aI6
aI7
aa(lp3818
I3
aaI112
aI61
a(lp3819
I0
aI1
aa(lp3820
I6
aa(lp3821
I0
aI1
aaI17
aI160
a(lp3822
I3
aa(lp3823
I3
aa(lp3824
I3
aa(lp3825
I0
aI1
aa(lp3826
I0
aI1
aaa(lp3827
I17
a(lp3828
I1
aI5
aI6
aa(lp3829
I4
aaI152
aI138
aI149
a(lp3830
I0
aI1
aI2
aI3
aI4
aI5
aI6
aI7
aa(lp3831
I3
aI7
aa(lp3832
I3
aI7
aa(lp3833
I3
aI7
aaI163
aI137
a(lp3834
I3
aa(lp3835
I3
aa(lp3836
I3
aaI26
aI160
aI112
aI149
aI181
aI90
aI149
aI33
aI161
aI161
aI19
aI152
aI160
aI152
aI160
aI160
a(lp3837
I3
aa(lp3838
I3
aa(lp3839
I3
aa(lp3840
I3
aa(lp3841
I3
aaI34
aI159
a(lp3842
I3
aa(lp3843
I3
aa(lp3844
I3
aaI7
a(lp3845
I4
aaI152
aI33
a(lp3846
I3
aaI149
a(lp3847
I3
aaI149
aI7
aI159
aI149
a(lp3848
I2
aI5
aI6
aI7
aa(lp3849
I3
aaI71
a(lp3850
I3
aaI71
aI36
aI152
a(lp3851
I3
aa(lp3852
I3
aaI25
aI19
a(lp3853
I3
aa(lp3854
I3
aa(lp3855
I3
aa(lp3856
I3
aaI19
a(lp3857
I3
aaI19
aI159
a(lp3858
I6
aa(lp3859
I6
aa(lp3860
I6
aaa(lp3861
(lp3862
I3
aI7
aa(lp3863
I4
aa(lp3864
I3
aI7
aa(lp3865
I4
aa(lp3866
I4
aaI149
aI18
aI6
aI76
a(lp3867
I0
aI1
aI2
aI3
aI4
aI5
aI6
aI7
aaI153
a(lp3868
I3
aa(lp3869
I4
aaI33
a(lp3870
I2
aI5
aI6
aI7
aaI25
aI161
aI69
aI121
aI161
a(lp3871
I3
aaI69
a(lp3872
I4
aaI143
a(lp3873
I4
aa(lp3874
I3
aI7
aa(lp3875
I3
aI7
aa(lp3876
I4
aaI149
aI149
aI143
aI149
aI69
aI69
a(lp3877
I6
aaI18
a(lp3878
I4
aaI121
a(lp3879
I3
aa(lp3880
I4
aa(lp3881
I6
aaI161
aI69
aI69
a(lp3882
I6
aaa(lp3883
(lp3884
I6
aa(lp3885
I6
aa(lp3886
I4
aaI21
a(lp3887
I6
aa(lp3888
I1
aI5
aI6
aa(lp3889
I4
aa(lp3890
I4
aa(lp3891
I0
aI1
aI2
aI3
aI4
aI5
aI6
aI7
aaI70
a(lp3892
I4
aa(lp3893
I2
aI5
aI6
aI7
aaI170
a(lp3894
I2
aaI71
a(lp3895
I3
aI7
aa(lp3896
I3
aI7
aaa(lp3897
I15
aI25
aI7
aI15
a(lp3898
I3
aaI139
aI61
a(lp3899
I3
aaI61
aI19
aI19
aI161
aI19
aI19
aI33
a(lp3900
I3
aa(lp3901
I3
aa(lp3902
I0
aI1
aI2
aI3
aI4
aI5
aI6
aI7
aa(lp3903
I3
aa(lp3904
I3
aI7
aa(lp3905
I0
aI1
aI5
aa(lp3906
I0
aI1
aaI117
a(lp3907
I2
aI5
aI6
aI7
aa(lp3908
I3
aI7
aaa(lp3909
(lp3910
I3
aI7
aa(lp3911
I3
aI7
aa(lp3912
I0
aI1
aa(lp3913
I0
aI1
aI5
aa(lp3914
I0
aI1
aI5
aa(lp3915
I0
aI1
aI5
aa(lp3916
I3
aa(lp3917
I3
aaI69
a(lp3918
I0
aI1
aI5
aa(lp3919
I6
aa(lp3920
I3
aa(lp3921
I0
aI1
aI5
aa(lp3922
I0
aI1
aI2
aI3
aI4
aI5
aI6
aI7
aaI113
a(lp3923
I4
aa(lp3924
I3
aa(lp3925
I4
aa(lp3926
I4
aa(lp3927
I0
aI1
aI5
aa(lp3928
I4
aaI62
a(lp3929
I4
aa(lp3930
I2
aa(lp3931
I2
aa(lp3932
I3
aa(lp3933
I3
aa(lp3934
I3
aa(lp3935
I3
aa(lp3936
I0
aI1
aa(lp3937
I3
aa(lp3938
I4
aaI62
a(lp3939
I3
aa(lp3940
I3
aa(lp3941
I3
aa(lp3942
I0
aI1
aa(lp3943
I3
aaI62
a(lp3944
I3
aI7
aaI175
a(lp3945
I2
aaI17
aI175
a(lp3946
I2
aa(lp3947
I0
aI1
aI5
aaI159
aI160
a(lp3948
I0
aI1
aI5
aa(lp3949
I3
aa(lp3950
I3
aa(lp3951
I3
aa(lp3952
I3
aaI13
aI13
a(lp3953
I0
aI1
aaI171
a(lp3954
I0
aI1
aa(lp3955
I0
aI1
aa(lp3956
I4
aa(lp3957
I4
aa(lp3958
I3
aaI62
aI62
aI62
a(lp3959
I3
aa(lp3960
I3
aa(lp3961
I3
aa(lp3962
I3
aa(lp3963
I3
aa(lp3964
I3
aa(lp3965
I3
aa(lp3966
I3
aa(lp3967
I3
aa(lp3968
I3
aaI62
a(lp3969
I0
aI1
aaI138
aI138
aI138
aI138
aI138
a(lp3970
I3
aa(lp3971
I3
aa(lp3972
I0
aI1
aa(lp3973
I0
aI1
aa(lp3974
I3
aa(lp3975
I3
aa(lp3976
I3
aaa(lp3977
(lp3978
I0
aI1
aI5
aa(lp3979
I0
aI1
aa(lp3980
I0
aI1
aaI121
aI53
a(lp3981
I6
aaI60
a(lp3982
I3
aa(lp3983
I6
aaI159
a(lp3984
I6
aaI60
aI2
a(lp3985
I6
aa(lp3986
I3
aaI181
aI152
aI138
a(lp3987
I0
aI1
aa(lp3988
I6
aa(lp3989
I0
aI1
aa(lp3990
I6
aa(lp3991
I6
aa(lp3992
I0
aI1
aaI60
aI94
aI60
aI152
a(lp3993
I3
aaI60
aI60
a(lp3994
I6
aaI60
aI152
a(lp3995
I3
aa(lp3996
I0
aI1
aI2
aI3
aI4
aI5
aI6
aI7
aaI60
aI181
aa(lp3997
(lp3998
I3
aI7
aaI121
aI95
aI95
aI95
a(lp3999
I0
aI1
aaI142
a(lp4000
I3
aI7
aaI95
aI95
aI95
aI170
a(lp4001
I4
aa(lp4002
I3
aa(lp4003
I4
aaI152
a(lp4004
I4
aa(lp4005
I2
aa(lp4006
I2
aaI122
a(lp4007
I2
aaI122
a(lp4008
I3
aI7
aa(lp4009
I4
aa(lp4010
I4
aa(lp4011
I3
aaI112
a(lp4012
I0
aI1
aI5
aaI61
aI86
aI95
a(lp4013
I2
aaI181
aI181
aI181
aI122
a(lp4014
I4
aaI96
aI111
aI111
aI111
aI143
aI143
a(lp4015
I2
aaI62
a(lp4016
I2
aaI33
aI53
aI149
aI170
a(lp4017
I3
aa(lp4018
I2
aaI17
a(lp4019
I4
aa(lp4020
I4
aaI122
a(lp4021
I4
aa(lp4022
I6
aa(lp4023
I0
aI1
aI2
aI3
aI4
aI5
aI6
aI7
aa(lp4024
I6
aaI117
a(lp4025
I0
aI1
aI5
aa(lp4026
I2
aa(lp4027
I3
aI7
aa(lp4028
I2
aa(lp4029
I3
aa(lp4030
I6
aa(lp4031
I3
aa(lp4032
I6
aa(lp4033
I2
aa(lp4034
I3
aa(lp4035
I2
aa(lp4036
I2
aa(lp4037
I3
aaa(lp4038
(lp4039
I3
aaI181
aI70
aI160
aI152
aI17
aI160
aI152
aI138
a(lp4040
I4
aaI152
aI33
aI160
aI122
aI69
a(lp4041
I0
aI1
aI2
aI3
aI4
aI5
aI6
aI7
aa(lp4042
I3
aaI152
a(lp4043
I3
aaI149
aI152
aI9
aI152
aI70
aI152
aI95
aI95
aI152
a(lp4044
I3
aI7
aa(lp4045
I6
aa(lp4046
I6
aa(lp4047
I3
aaI152
a(lp4048
I3
aa(lp4049
I3
aa(lp4050
I3
aa(lp4051
I3
aa(lp4052
I3
aa(lp4053
I3
aa(lp4054
I3
aaI159
a(lp4055
I3
aaI160
a(lp4056
I3
aa(lp4057
I3
aaI112
a(lp4058
I3
aa(lp4059
I3
aa(lp4060
I3
aa(lp4061
I3
aa(lp4062
I2
aa(lp4063
I3
aa(lp4064
I3
aa(lp4065
I3
aaI97
a(lp4066
I3
aI7
aaI108
aI111
a(lp4067
I2
aa(lp4068
I0
aI1
aI2
aI3
aI4
aI5
aI6
aI7
aaI60
aI112
a(lp4069
I0
aI1
aaI138
aI170
a(lp4070
I3
aI7
aa(lp4071
I3
aI7
aaI49
a(lp4072
I2
aI5
aI6
aI7
aaI152
a(lp4073
I0
aI1
aI2
aI3
aI4
aI5
aI6
aI7
aaI152
aI70
aI152
aI70
a(lp4074
I0
aI1
aI5
aa(lp4075
I3
aaI121
a(lp4076
I3
aaI121
a(lp4077
I1
aI5
aI6
aa(lp4078
I3
aaa(lp4079
(lp4080
I3
aaI112
a(lp4081
I7
aaI33
aI43
aI33
aI33
aI112
a(lp4082
I3
aaI117
a(lp4083
I2
aaI153
a(lp4084
I4
aa(lp4085
I2
aaI96
aI96
a(lp4086
I0
aI1
aI2
aI3
aI4
aI5
aI6
aI7
aa(lp4087
I4
aaI73
aI117
aI117
a(lp4088
I3
aa(lp4089
I3
aaI160
aI136
aI160
a(lp4090
I2
aa(lp4091
I3
aa(lp4092
I4
aaI160
a(lp4093
I3
aa(lp4094
I7
aa(lp4095
I2
aa(lp4096
I2
aa(lp4097
I3
aa(lp4098
I7
aaa(lp4099
I61
aI61
aI61
aI90
aI170
a(lp4100
I2
aI5
aI6
aI7
aa(lp4101
I0
aI1
aI2
aI3
aI4
aI5
aI6
aI7
aaI170
aI70
aI111
a(lp4102
I3
aI7
aaI70
a(lp4103
I0
aI1
aI2
aI3
aI4
aI5
aI6
aI7
aa(lp4104
I3
aaI17
a(lp4105
I4
aaI152
aI90
a(lp4106
I6
aa(lp4107
I6
aa(lp4108
I6
aaI160
aI182
a(lp4109
I4
aa(lp4110
I4
aa(lp4111
I3
aaI61
a(lp4112
I0
aI1
aI2
aI3
aI4
aI5
aI6
aI7
aaI61
aI94
aI61
aI61
a(lp4113
I6
aa(lp4114
I1
aI5
aI6
aaI152
a(lp4115
I6
aaa(lp4116
I121
a(lp4117
I1
aI5
aI6
aaI139
a(lp4118
I3
aa(lp4119
I4
aa(lp4120
I4
aaI121
aI121
a(lp4121
I0
aI1
aI2
aI3
aI4
aI5
aI6
aI7
aaI139
a(lp4122
I3
aI7
aa(lp4123
I3
aaI117
aI170
a(lp4124
I3
aaI71
a(lp4125
I3
aI7
aa(lp4126
I3
aI7
aaI9
a(lp4127
I3
aaI139
aI121
a(lp4128
I3
aI7
aa(lp4129
I3
aaI163
a(lp4130
I4
aaa(lp4131
I62
aI60
a(lp4132
I3
aaI112
aI152
aI142
a(lp4133
I4
aaI76
aI181
a(lp4134
I0
aI1
aI2
aI3
aI4
aI5
aI6
aI7
aaI26
a(lp4135
I0
aI1
aI5
aaI181
a(lp4136
I3
aa(lp4137
I0
aI1
aI5
aaI111
aI61
aI61
aI61
aI165
a(lp4138
I1
aI5
aI6
aaI76
a(lp4139
I4
aa(lp4140
I4
aa(lp4141
I0
aI1
aI5
aa(lp4142
I0
aI1
aI5
aa(lp4143
I0
aI1
aa(lp4144
I4
aa(lp4145
I3
aaI160
a(lp4146
I3
aa(lp4147
I0
aI1
aI5
aa(lp4148
I4
aa(lp4149
I3
aaI181
a(lp4150
I0
aI1
aI5
aa(lp4151
I3
aa(lp4152
I2
aa(lp4153
I2
aa(lp4154
I3
aa(lp4155
I3
aa(lp4156
I3
aa(lp4157
I3
aaa(lp4158
(lp4159
I4
aa(lp4160
I4
aa(lp4161
I4
aa(lp4162
I3
aI7
aa(lp4163
I4
aaI16
aI152
aI113
a(lp4164
I3
aa(lp4165
I3
aa(lp4166
I3
aaI159
aI152
a(lp4167
I0
aI1
aa(lp4168
I3
aa(lp4169
I2
aaI60
aI101
aI97
aI97
aI97
aI60
aI60
aI62
aI97
aI97
aI97
aI16
a(lp4170
I2
aaI161
a(lp4171
I3
aI7
aa(lp4172
I3
aaI181
aI101
aI16
aI152
a(lp4173
I3
aaI152
a(lp4174
I3
aaI176
aI60
aI159
aI117
a(lp4175
I2
aa(lp4176
I2
aaI117
a(lp4177
I0
aI1
aaI62
a(lp4178
I2
aa(lp4179
I3
aa(lp4180
I3
aaI16
a(lp4181
I2
aaI182
aI6
a(lp4182
I4
aaI170
aI95
aI95
a(lp4183
I0
aI1
aI5
aaI60
aI152
aI21
aI160
a(lp4184
I0
aI1
aI2
aI3
aI4
aI5
aI6
aI7
aaI60
aI138
aI111
a(lp4185
I3
aa(lp4186
I3
aa(lp4187
I3
aa(lp4188
I2
aa(lp4189
I3
aa(lp4190
I3
aaI86
a(lp4191
I2
aa(lp4192
I2
aaI95
a(lp4193
I2
aa(lp4194
I3
aaI16
a(lp4195
I3
aaI101
aI24
aI152
aI139
aI152
a(lp4196
I3
aaI127
aI127
aI152
a(lp4197
I2
aaI160
aI137
a(lp4198
I3
aa(lp4199
I4
aaa(lp4200
I152
aI111
aI112
aI61
aI33
a(lp4201
I3
aa(lp4202
I3
aa(lp4203
I2
aaI62
aI15
a(lp4204
I3
aaI61
a(lp4205
I2
aaI122
a(lp4206
I3
aaI122
a(lp4207
I3
aaI122
aI122
a(lp4208
I1
aI5
aI6
aaI33
aI33
a(lp4209
I3
aa(lp4210
I0
aI1
aI2
aI3
aI4
aI5
aI6
aI7
aa(lp4211
I0
aI1
aI2
aI3
aI4
aI5
aI6
aI7
aa(lp4212
I6
aa(lp4213
I4
aaI9
a(lp4214
I6
aaI170
aI94
a(lp4215
I2
aaI70
aI33
aI33
aI15
aI70
aI2
aI160
aI182
a(lp4216
I3
aa(lp4217
I2
aa(lp4218
I3
aaI112
aI94
aI182
a(lp4219
I3
aa(lp4220
I2
aI5
aI6
aI7
aaI94
aI9
a(lp4221
I3
aI7
aa(lp4222
I6
aaI166
a(lp4223
I6
aaI182
aI70
aI101
aI152
aI17
aI182
a(lp4224
I6
aaI149
a(lp4225
I3
aa(lp4226
I3
aa(lp4227
I3
aa(lp4228
I2
aa(lp4229
I3
aaI182
a(lp4230
I3
aaI36
aI44
a(lp4231
I3
aa(lp4232
I6
aaI112
a(lp4233
I3
aa(lp4234
I3
aI7
aa(lp4235
I3
aa(lp4236
I2
aaI109
a(lp4237
I3
aa(lp4238
I4
aa(lp4239
I3
aI7
aaI182
aI15
a(lp4240
I3
aaI112
a(lp4241
I4
aaa(lp4242
(lp4243
I1
aI5
aI6
aa(lp4244
I0
aI1
aI2
aI3
aI4
aI5
aI6
aI7
aa(lp4245
I6
aa(lp4246
I6
aaI71
aI71
a(lp4247
I0
aI1
aaI152
aI152
aI71
aI112
aI69
aI69
aI69
a(lp4248
I3
aaI121
aI94
aI69
aI115
aI70
a(lp4249
I3
aI7
aa(lp4250
I6
aa(lp4251
I6
aa(lp4252
I1
aI5
aI6
aaI19
a(lp4253
I3
aa(lp4254
I3
aa(lp4255
I0
aI1
aaI149
a(lp4256
I0
aI1
aaI71
a(lp4257
I3
aaI19
a(lp4258
I0
aI1
aaI152
a(lp4259
I6
aaI115
aI160
a(lp4260
I3
aa(lp4261
I6
aaI149
aI71
aI152
aI117
aI112
aI115
aI112
aI95
aI95
aI95
aI19
a(lp4262
I6
aaI95
aI142
a(lp4263
I3
aaI19
aI142
aI19
a(lp4264
I1
aI5
aI6
aa(lp4265
I3
aaI36
a(lp4266
I0
aI1
aaI149
aI36
aI182
a(lp4267
I0
aI1
aa(lp4268
I6
aaI69
aI117
aI69
aI96
a(lp4269
I1
aI5
aI6
aa(lp4270
I3
aa(lp4271
I6
aa(lp4272
I6
aaI71
a(lp4273
I6
aaI69
a(lp4274
I0
aI1
aI5
aa(lp4275
I0
aI1
aI5
aa(lp4276
I0
aI1
aI5
aa(lp4277
I0
aI1
aI5
aaI149
aI71
aI22
aI122
aI113
a(lp4278
I2
aaI152
a(lp4279
I1
aI5
aI6
aa(lp4280
I6
aa(lp4281
I6
aa(lp4282
I1
aI5
aI6
aa(lp4283
I6
aa(lp4284
I6
aaI149
a(lp4285
I4
aa(lp4286
I3
aa(lp4287
I3
aaI122
aI117
a(lp4288
I0
aI1
aa(lp4289
I1
aI5
aI6
aaI26
aa(lp4290
I115
a(lp4291
I4
aaI149
aI149
aI124
aI124
aI133
aI142
a(lp4292
I0
aI1
aaI142
aI125
aI97
aI97
aI97
aI51
aI97
aI149
aI70
aI70
aI70
aI69
aI160
aI33
a(lp4293
I3
aaI69
aI71
a(lp4294
I3
aa(lp4295
I1
aI5
aI6
aa(lp4296
I1
aI5
aI6
aa(lp4297
I6
aaI90
aI44
a(lp4298
I3
aaI160
aI160
aI160
aI70
aI70
aI152
aI7
a(lp4299
I3
aI7
aa(lp4300
I3
aI7
aaI149
aI152
aI70
aI60
aI70
aI152
aI152
aI70
aI142
a(lp4301
I4
aaI117
aI7
a(lp4302
I0
aI1
aI2
aI3
aI4
aI5
aI6
aI7
aaI152
aI152
aI61
a(lp4303
I4
aa(lp4304
I4
aaI152
a(lp4305
I3
aa(lp4306
I3
aa(lp4307
I3
aaa.